libnidas.so.1 nidas-libs #MINVER#
 _Z10SscanffreePv@Base 1.2+1640
 _Z11Sscanfallocj@Base 1.2+1640
 _Z13SscanfreallocPvj@Base 1.2+1640
 _ZGVN5nidas4core10SamplePoolINS0_7SampleTIcEEE13_instanceLockE@Base 1.2+1640
 _ZGVN5nidas4core10SamplePoolINS0_7SampleTIdEEE13_instanceLockE@Base 1.2+1640
 _ZGVN5nidas4core10SamplePoolINS0_7SampleTIfEEE13_instanceLockE@Base 1.2+1640
 _ZGVN5nidas4core10SamplePoolINS0_7SampleTIhEEE13_instanceLockE@Base 1.2+1640
 _ZGVN5nidas4core10SamplePoolINS0_7SampleTIiEEE13_instanceLockE@Base 1.2+1640
 _ZGVN5nidas4core10SamplePoolINS0_7SampleTIjEEE13_instanceLockE@Base 1.2+1640
 _ZGVN5nidas4core10SamplePoolINS0_7SampleTIsEEE13_instanceLockE@Base 1.2+1640
 _ZGVN5nidas4core10SamplePoolINS0_7SampleTItEEE13_instanceLockE@Base 1.2+1640
 _ZGVN5nidas4core10SamplePoolINS0_7SampleTIxEEE13_instanceLockE@Base 1.2+1640
 _ZGVZN5nidas4core7FileSet14setNonBlockingEbE7logctxt@Base 1.2+1640
 _ZGVZN5nidas4util19McSocketMulticasterINS0_14DatagramSocketEE3runEvE7logctxt@Base 1.2+1640
 _ZGVZN5nidas4util19McSocketMulticasterINS0_14DatagramSocketEE3runEvE7logctxt_0@Base 1.2+1640
 _ZGVZN5nidas4util19McSocketMulticasterINS0_14DatagramSocketEE3runEvE7logctxt_1@Base 1.2+1640
 _ZGVZN5nidas4util19McSocketMulticasterINS0_14DatagramSocketEE3runEvE7logctxt_2@Base 1.2+1640
 _ZGVZN5nidas4util19McSocketMulticasterINS0_14DatagramSocketEE3runEvE7logctxt_3@Base 1.2+1640
 _ZGVZN5nidas4util19McSocketMulticasterINS0_14DatagramSocketEE3runEvE7logctxt_4@Base 1.2+1640
 _ZGVZN5nidas4util19McSocketMulticasterINS0_14DatagramSocketEE3runEvE7logctxt_5@Base 1.2+1640
 _ZGVZN5nidas4util19McSocketMulticasterINS0_14DatagramSocketEE3runEvE7logctxt_6@Base 1.2+1640
 _ZGVZN5nidas4util19McSocketMulticasterINS0_14DatagramSocketEE9interruptEvE7logctxt@Base 1.2+1640
 _ZGVZN5nidas4util19McSocketMulticasterINS0_6SocketEE3runEvE7logctxt@Base 1.2+1640
 _ZGVZN5nidas4util19McSocketMulticasterINS0_6SocketEE3runEvE7logctxt_0@Base 1.2+1640
 _ZGVZN5nidas4util19McSocketMulticasterINS0_6SocketEE3runEvE7logctxt_1@Base 1.2+1640
 _ZGVZN5nidas4util19McSocketMulticasterINS0_6SocketEE3runEvE7logctxt_2@Base 1.2+1640
 _ZGVZN5nidas4util19McSocketMulticasterINS0_6SocketEE3runEvE7logctxt_3@Base 1.2+1640
 _ZGVZN5nidas4util19McSocketMulticasterINS0_6SocketEE3runEvE7logctxt_4@Base 1.2+1640
 _ZGVZN5nidas4util19McSocketMulticasterINS0_6SocketEE3runEvE7logctxt_5@Base 1.2+1640
 _ZGVZN5nidas4util19McSocketMulticasterINS0_6SocketEE3runEvE7logctxt_6@Base 1.2+1640
 _ZGVZN5nidas4util19McSocketMulticasterINS0_6SocketEE9interruptEvE7logctxt@Base 1.2+1640
 _ZGVZN5nidas4util8McSocketINS0_14DatagramSocketEE15joinMulticasterEvE7logctxt@Base 1.2+1640
 _ZGVZN5nidas4util8McSocketINS0_14DatagramSocketEE15joinMulticasterEvE7logctxt_0@Base 1.2+1640
 _ZGVZN5nidas4util8McSocketINS0_14DatagramSocketEE15joinMulticasterEvE7logctxt_1@Base 1.2+1640
 _ZGVZN5nidas4util8McSocketINS0_14DatagramSocketEE5closeEvE7logctxt@Base 1.2+1640
 _ZGVZN5nidas4util8McSocketINS0_14DatagramSocketEE5closeEvE7logctxt_0@Base 1.2+1640
 _ZGVZN5nidas4util8McSocketINS0_14DatagramSocketEE5closeEvE7logctxt_1@Base 1.2+1640
 _ZGVZN5nidas4util8McSocketINS0_14DatagramSocketEE6acceptERNS0_16Inet4PacketInfoXEE7logctxt@Base 1.2+1640
 _ZGVZN5nidas4util8McSocketINS0_14DatagramSocketEE7connectERNS0_16Inet4PacketInfoXEE7logctxt@Base 1.2+1640
 _ZGVZN5nidas4util8McSocketINS0_6SocketEE15joinMulticasterEvE7logctxt@Base 1.2+1640
 _ZGVZN5nidas4util8McSocketINS0_6SocketEE15joinMulticasterEvE7logctxt_0@Base 1.2+1640
 _ZGVZN5nidas4util8McSocketINS0_6SocketEE15joinMulticasterEvE7logctxt_1@Base 1.2+1640
 _ZGVZN5nidas4util8McSocketINS0_6SocketEE5closeEvE7logctxt@Base 1.2+1640
 _ZGVZN5nidas4util8McSocketINS0_6SocketEE5closeEvE7logctxt_0@Base 1.2+1640
 _ZGVZN5nidas4util8McSocketINS0_6SocketEE5closeEvE7logctxt_1@Base 1.2+1640
 _ZGVZN5nidas4util8McSocketINS0_6SocketEE6acceptERNS0_16Inet4PacketInfoXEE7logctxt@Base 1.2+1640
 _ZGVZN5nidas4util8McSocketINS0_6SocketEE7connectERNS0_16Inet4PacketInfoXEE7logctxt@Base 1.2+1640
 _ZN11xercesc_3_210XMLDeleterD0Ev@Base 1.2+1640
 _ZN11xercesc_3_210XMLDeleterD1Ev@Base 1.2+1640
 _ZN11xercesc_3_210XMLDeleterD2Ev@Base 1.2+1640
 _ZN11xercesc_3_211InputSource28setIssueFatalErrorIfNotFoundEb@Base 1.2+1640
 _ZN11xercesc_3_213SAX2XMLReader18setInputBufferSizeEj@Base 1.2+1640
 _ZN11xercesc_3_214DefaultHandler10charactersEPKDsj@Base 1.2+1640
 _ZN11xercesc_3_214DefaultHandler10endElementEPKDsS2_S2_@Base 1.2+1640
 _ZN11xercesc_3_214DefaultHandler10fatalErrorERKNS_17SAXParseExceptionE@Base 1.2+1640
 _ZN11xercesc_3_214DefaultHandler10startCDATAEv@Base 1.2+1640
 _ZN11xercesc_3_214DefaultHandler11elementDeclEPKDsS2_@Base 1.2+1640
 _ZN11xercesc_3_214DefaultHandler11endDocumentEv@Base 1.2+1640
 _ZN11xercesc_3_214DefaultHandler11resetErrorsEv@Base 1.2+1640
 _ZN11xercesc_3_214DefaultHandler11startEntityEPKDs@Base 1.2+1640
 _ZN11xercesc_3_214DefaultHandler12notationDeclEPKDsS2_S2_@Base 1.2+1640
 _ZN11xercesc_3_214DefaultHandler12resetDocTypeEv@Base 1.2+1640
 _ZN11xercesc_3_214DefaultHandler12startElementEPKDsS2_S2_RKNS_10AttributesE@Base 1.2+1640
 _ZN11xercesc_3_214DefaultHandler13attributeDeclEPKDsS2_S2_S2_S2_@Base 1.2+1640
 _ZN11xercesc_3_214DefaultHandler13resetDocumentEv@Base 1.2+1640
 _ZN11xercesc_3_214DefaultHandler13resolveEntityEPKDsS2_@Base 1.2+1640
 _ZN11xercesc_3_214DefaultHandler13skippedEntityEPKDs@Base 1.2+1640
 _ZN11xercesc_3_214DefaultHandler13startDocumentEv@Base 1.2+1640
 _ZN11xercesc_3_214DefaultHandler16endPrefixMappingEPKDs@Base 1.2+1640
 _ZN11xercesc_3_214DefaultHandler18externalEntityDeclEPKDsS2_S2_@Base 1.2+1640
 _ZN11xercesc_3_214DefaultHandler18internalEntityDeclEPKDsS2_@Base 1.2+1640
 _ZN11xercesc_3_214DefaultHandler18setDocumentLocatorEPKNS_7LocatorE@Base 1.2+1640
 _ZN11xercesc_3_214DefaultHandler18startPrefixMappingEPKDsS2_@Base 1.2+1640
 _ZN11xercesc_3_214DefaultHandler18unparsedEntityDeclEPKDsS2_S2_S2_@Base 1.2+1640
 _ZN11xercesc_3_214DefaultHandler19ignorableWhitespaceEPKDsj@Base 1.2+1640
 _ZN11xercesc_3_214DefaultHandler21processingInstructionEPKDsS2_@Base 1.2+1640
 _ZN11xercesc_3_214DefaultHandler5errorERKNS_17SAXParseExceptionE@Base 1.2+1640
 _ZN11xercesc_3_214DefaultHandler6endDTDEv@Base 1.2+1640
 _ZN11xercesc_3_214DefaultHandler7commentEPKDsj@Base 1.2+1640
 _ZN11xercesc_3_214DefaultHandler7warningERKNS_17SAXParseExceptionE@Base 1.2+1640
 _ZN11xercesc_3_214DefaultHandler8endCDATAEv@Base 1.2+1640
 _ZN11xercesc_3_214DefaultHandler8startDTDEPKDsS2_S2_@Base 1.2+1640
 _ZN11xercesc_3_214DefaultHandler9endEntityEPKDs@Base 1.2+1640
 _ZN11xercesc_3_214DefaultHandlerD0Ev@Base 1.2+1640
 _ZN11xercesc_3_214DefaultHandlerD1Ev@Base 1.2+1640
 _ZN11xercesc_3_214DefaultHandlerD2Ev@Base 1.2+1640
 _ZN15SscanfFlexLexer10LexerErrorEPKc@Base 1.2+1640
 _ZN15SscanfFlexLexer10LexerInputEPci@Base 1.2+1640
 _ZN15SscanfFlexLexer11LexerOutputEPKci@Base 1.2+1640
 _ZN15SscanfFlexLexer11ctor_commonEv@Base 1.2+1640
 _ZN15SscanfFlexLexer12yy_pop_stateEv@Base 1.2+1640
 _ZN15SscanfFlexLexer12yy_top_stateEv@Base 1.2+1640
 _ZN15SscanfFlexLexer13yy_push_stateEi@Base 1.2+1640
 _ZN15SscanfFlexLexer14switch_streamsEPSiPSo@Base 1.2+1640
 _ZN15SscanfFlexLexer14switch_streamsERSiRSo@Base 1.2+1640
 _ZN15SscanfFlexLexer14yy_init_bufferEP15yy_buffer_stateRSi@Base 1.2+1640
 _ZN15SscanfFlexLexer15yy_flush_bufferEP15yy_buffer_state@Base 1.2+1640
 _ZN15SscanfFlexLexer16yy_create_bufferEPSii@Base 1.2+1640
 _ZN15SscanfFlexLexer16yy_create_bufferERSii@Base 1.2+1640
 _ZN15SscanfFlexLexer16yy_delete_bufferEP15yy_buffer_state@Base 1.2+1640
 _ZN15SscanfFlexLexer16yy_try_NUL_transEi@Base 1.2+1640
 _ZN15SscanfFlexLexer18yy_get_next_bufferEv@Base 1.2+1640
 _ZN15SscanfFlexLexer18yypop_buffer_stateEv@Base 1.2+1640
 _ZN15SscanfFlexLexer19yy_switch_to_bufferEP15yy_buffer_state@Base 1.2+1640
 _ZN15SscanfFlexLexer19yypush_buffer_stateEP15yy_buffer_state@Base 1.2+1640
 _ZN15SscanfFlexLexer20yy_load_buffer_stateEv@Base 1.2+1640
 _ZN15SscanfFlexLexer21yy_get_previous_stateEv@Base 1.2+1640
 _ZN15SscanfFlexLexer21yyensure_buffer_stackEv@Base 1.2+1640
 _ZN15SscanfFlexLexer5yylexEv@Base 1.2+1640
 _ZN15SscanfFlexLexer6yywrapEv@Base 1.2+1640
 _ZN15SscanfFlexLexer7yyinputEv@Base 1.2+1640
 _ZN15SscanfFlexLexer7yyunputEiPc@Base 1.2+1640
 _ZN15SscanfFlexLexer9yyrestartEPSi@Base 1.2+1640
 _ZN15SscanfFlexLexer9yyrestartERSi@Base 1.2+1640
 _ZN15SscanfFlexLexerC1EPSiPSo@Base 1.2+1640
 _ZN15SscanfFlexLexerC1ERSiRSo@Base 1.2+1640
 _ZN15SscanfFlexLexerC2EPSiPSo@Base 1.2+1640
 _ZN15SscanfFlexLexerC2ERSiRSo@Base 1.2+1640
 _ZN15SscanfFlexLexerD0Ev@Base 1.2+1640
 _ZN15SscanfFlexLexerD1Ev@Base 1.2+1640
 _ZN15SscanfFlexLexerD2Ev@Base 1.2+1640
 _ZN5nidas4core10DSMCatalog14fromDOMElementEPKN11xercesc_3_210DOMElementE@Base 1.2+1640
 _ZN5nidas4core10DSMCatalogC1ERKS1_@Base 1.2+1640
 _ZN5nidas4core10DSMCatalogC1Ev@Base 1.2+1640
 _ZN5nidas4core10DSMCatalogC2ERKS1_@Base 1.2+1640
 _ZN5nidas4core10DSMCatalogC2Ev@Base 1.2+1640
 _ZN5nidas4core10DSMCatalogD0Ev@Base 1.2+1640
 _ZN5nidas4core10DSMCatalogD1Ev@Base 1.2+1640
 _ZN5nidas4core10DSMCatalogD2Ev@Base 1.2+1640
 _ZN5nidas4core10DSMCatalogaSERKS1_@Base 1.2+1640
 _ZN5nidas4core10DSMService10printClockERSo@Base 1.2+1640
 _ZN5nidas4core10DSMService11printStatusERSof@Base 1.2+1640
 _ZN5nidas4core10DSMService12addProcessorEPNS0_17SampleIOProcessorE@Base 1.2+1640
 _ZN5nidas4core10DSMService12addSubThreadEPNS_4util6ThreadE@Base 1.2+1640
 _ZN5nidas4core10DSMService12getClassNameB5cxx11EPKN11xercesc_3_210DOMElementEPKNS0_7ProjectE@Base 1.2+1640
 _ZN5nidas4core10DSMService12setDSMServerEPNS0_9DSMServerE@Base 1.2+1640
 _ZN5nidas4core10DSMService14fromDOMElementEPKN11xercesc_3_210DOMElementE@Base 1.2+1640
 _ZN5nidas4core10DSMService15checkSubThreadsEv@Base 1.2+1640
 _ZN5nidas4core10DSMService4joinEv@Base 1.2+1640
 _ZN5nidas4core10DSMService6cancelEv@Base 1.2+1640
 _ZN5nidas4core10DSMService9interruptEv@Base 1.2+1640
 _ZN5nidas4core10DSMServiceC1ERKNSt7__cxx1112basic_stringIcSt11char_traitsIcESaIcEEE@Base 1.2+1640
 _ZN5nidas4core10DSMServiceC2ERKNSt7__cxx1112basic_stringIcSt11char_traitsIcESaIcEEE@Base 1.2+1640
 _ZN5nidas4core10DSMServiceD0Ev@Base 1.2+1640
 _ZN5nidas4core10DSMServiceD1Ev@Base 1.2+1640
 _ZN5nidas4core10DSMServiceD2Ev@Base 1.2+1640
 _ZN5nidas4core10GetDsmList4helpB5cxx11Ev@Base 1.2+1640
 _ZN5nidas4core10GetDsmList7executeERN6XmlRpc11XmlRpcValueES4_@Base 1.2+1640
 _ZN5nidas4core10GetDsmListD0Ev@Base 1.2+1640
 _ZN5nidas4core10GetDsmListD1Ev@Base 1.2+1640
 _ZN5nidas4core10GetDsmListD2Ev@Base 1.2+1640
 _ZN5nidas4core10ParameterTINSt7__cxx1112basic_stringIcSt11char_traitsIcESaIcEEEE14fromDOMElementEPKN11xercesc_3_210DOMElementEPKNS0_10DictionaryE@Base 1.2+1640
 _ZN5nidas4core10ParameterTINSt7__cxx1112basic_stringIcSt11char_traitsIcESaIcEEEE6assignERKNS0_9ParameterE@Base 1.2+1640
 _ZN5nidas4core10ParameterTINSt7__cxx1112basic_stringIcSt11char_traitsIcESaIcEEEED0Ev@Base 1.2+1640
 _ZN5nidas4core10ParameterTINSt7__cxx1112basic_stringIcSt11char_traitsIcESaIcEEEED1Ev@Base 1.2+1640
 _ZN5nidas4core10ParameterTINSt7__cxx1112basic_stringIcSt11char_traitsIcESaIcEEEED2Ev@Base 1.2+1640
 _ZN5nidas4core10ParameterTIbE14fromDOMElementEPKN11xercesc_3_210DOMElementEPKNS0_10DictionaryE@Base 1.2+1640
 _ZN5nidas4core10ParameterTIbE6assignERKNS0_9ParameterE@Base 1.2+1640
 _ZN5nidas4core10ParameterTIbED0Ev@Base 1.2+1640
 _ZN5nidas4core10ParameterTIbED1Ev@Base 1.2+1640
 _ZN5nidas4core10ParameterTIbED2Ev@Base 1.2+1640
 _ZN5nidas4core10ParameterTIfE14fromDOMElementEPKN11xercesc_3_210DOMElementEPKNS0_10DictionaryE@Base 1.2+1640
 _ZN5nidas4core10ParameterTIfE6assignERKNS0_9ParameterE@Base 1.2+1640
 _ZN5nidas4core10ParameterTIfED0Ev@Base 1.2+1640
 _ZN5nidas4core10ParameterTIfED1Ev@Base 1.2+1640
 _ZN5nidas4core10ParameterTIfED2Ev@Base 1.2+1640
 _ZN5nidas4core10ParameterTIiE14fromDOMElementEPKN11xercesc_3_210DOMElementEPKNS0_10DictionaryE@Base 1.2+1640
 _ZN5nidas4core10ParameterTIiE6assignERKNS0_9ParameterE@Base 1.2+1640
 _ZN5nidas4core10ParameterTIiED0Ev@Base 1.2+1640
 _ZN5nidas4core10ParameterTIiED1Ev@Base 1.2+1640
 _ZN5nidas4core10ParameterTIiED2Ev@Base 1.2+1640
 _ZN5nidas4core10Polynomial10fromStringERKNSt7__cxx1112basic_stringIcSt11char_traitsIcESaIcEEE@Base 1.2+1640
 _ZN5nidas4core10Polynomial11parseFieldsEPNS0_7CalFileE@Base 1.2+1640
 _ZN5nidas4core10Polynomial14fromDOMElementEPKN11xercesc_3_210DOMElementE@Base 1.2+1640
 _ZN5nidas4core10Polynomial15setCoefficientsEPKfj@Base 1.2+1640
 _ZN5nidas4core10Polynomial15setCoefficientsERKSt6vectorIfSaIfEE@Base 1.2+1640
 _ZN5nidas4core10Polynomial5resetEv@Base 1.2+1640
 _ZN5nidas4core10Polynomial7convertExd@Base 1.2+1640
 _ZN5nidas4core10PolynomialC1Ev@Base 1.2+1640
 _ZN5nidas4core10PolynomialC2Ev@Base 1.2+1640
 _ZN5nidas4core10PolynomialD0Ev@Base 1.2+1640
 _ZN5nidas4core10PolynomialD1Ev@Base 1.2+1640
 _ZN5nidas4core10PolynomialD2Ev@Base 1.2+1640
 _ZN5nidas4core10SamplePoolINS0_7SampleTIcEEE11getInstanceEv@Base 1.2+1640
 _ZN5nidas4core10SamplePoolINS0_7SampleTIcEEE13_instanceLockE@Base 1.2+1640
 _ZN5nidas4core10SamplePoolINS0_7SampleTIcEEE9_instanceE@Base 1.2+1640
 _ZN5nidas4core10SamplePoolINS0_7SampleTIcEEE9getSampleEPPS3_Pij@Base 1.2+1640
 _ZN5nidas4core10SamplePoolINS0_7SampleTIcEEE9getSampleEj@Base 1.2+1640
 _ZN5nidas4core10SamplePoolINS0_7SampleTIcEEE9putSampleEPKS3_@Base 1.2+1640
 _ZN5nidas4core10SamplePoolINS0_7SampleTIcEEE9putSampleEPKS3_PPPS3_PiSA_@Base 1.2+1640
 _ZN5nidas4core10SamplePoolINS0_7SampleTIcEEED0Ev@Base 1.2+1640
 _ZN5nidas4core10SamplePoolINS0_7SampleTIcEEED1Ev@Base 1.2+1640
 _ZN5nidas4core10SamplePoolINS0_7SampleTIcEEED2Ev@Base 1.2+1640
 _ZN5nidas4core10SamplePoolINS0_7SampleTIdEEE11getInstanceEv@Base 1.2+1640
 _ZN5nidas4core10SamplePoolINS0_7SampleTIdEEE13_instanceLockE@Base 1.2+1640
 _ZN5nidas4core10SamplePoolINS0_7SampleTIdEEE9_instanceE@Base 1.2+1640
 _ZN5nidas4core10SamplePoolINS0_7SampleTIdEEE9getSampleEPPS3_Pij@Base 1.2+1640
 _ZN5nidas4core10SamplePoolINS0_7SampleTIdEEE9getSampleEj@Base 1.2+1640
 _ZN5nidas4core10SamplePoolINS0_7SampleTIdEEE9putSampleEPKS3_@Base 1.2+1640
 _ZN5nidas4core10SamplePoolINS0_7SampleTIdEEE9putSampleEPKS3_PPPS3_PiSA_@Base 1.2+1640
 _ZN5nidas4core10SamplePoolINS0_7SampleTIdEEED0Ev@Base 1.2+1640
 _ZN5nidas4core10SamplePoolINS0_7SampleTIdEEED1Ev@Base 1.2+1640
 _ZN5nidas4core10SamplePoolINS0_7SampleTIdEEED2Ev@Base 1.2+1640
 _ZN5nidas4core10SamplePoolINS0_7SampleTIfEEE11getInstanceEv@Base 1.2+1640
 _ZN5nidas4core10SamplePoolINS0_7SampleTIfEEE13_instanceLockE@Base 1.2+1640
 _ZN5nidas4core10SamplePoolINS0_7SampleTIfEEE9_instanceE@Base 1.2+1640
 _ZN5nidas4core10SamplePoolINS0_7SampleTIfEEE9getSampleEPPS3_Pij@Base 1.2+1640
 _ZN5nidas4core10SamplePoolINS0_7SampleTIfEEE9getSampleEj@Base 1.2+1640
 _ZN5nidas4core10SamplePoolINS0_7SampleTIfEEE9putSampleEPKS3_@Base 1.2+1640
 _ZN5nidas4core10SamplePoolINS0_7SampleTIfEEE9putSampleEPKS3_PPPS3_PiSA_@Base 1.2+1640
 _ZN5nidas4core10SamplePoolINS0_7SampleTIfEEED0Ev@Base 1.2+1640
 _ZN5nidas4core10SamplePoolINS0_7SampleTIfEEED1Ev@Base 1.2+1640
 _ZN5nidas4core10SamplePoolINS0_7SampleTIfEEED2Ev@Base 1.2+1640
 _ZN5nidas4core10SamplePoolINS0_7SampleTIhEEE11getInstanceEv@Base 1.2+1640
 _ZN5nidas4core10SamplePoolINS0_7SampleTIhEEE13_instanceLockE@Base 1.2+1640
 _ZN5nidas4core10SamplePoolINS0_7SampleTIhEEE9_instanceE@Base 1.2+1640
 _ZN5nidas4core10SamplePoolINS0_7SampleTIhEEE9getSampleEPPS3_Pij@Base 1.2+1640
 _ZN5nidas4core10SamplePoolINS0_7SampleTIhEEE9getSampleEj@Base 1.2+1640
 _ZN5nidas4core10SamplePoolINS0_7SampleTIhEEE9putSampleEPKS3_@Base 1.2+1640
 _ZN5nidas4core10SamplePoolINS0_7SampleTIhEEE9putSampleEPKS3_PPPS3_PiSA_@Base 1.2+1640
 _ZN5nidas4core10SamplePoolINS0_7SampleTIhEEED0Ev@Base 1.2+1640
 _ZN5nidas4core10SamplePoolINS0_7SampleTIhEEED1Ev@Base 1.2+1640
 _ZN5nidas4core10SamplePoolINS0_7SampleTIhEEED2Ev@Base 1.2+1640
 _ZN5nidas4core10SamplePoolINS0_7SampleTIiEEE11getInstanceEv@Base 1.2+1640
 _ZN5nidas4core10SamplePoolINS0_7SampleTIiEEE13_instanceLockE@Base 1.2+1640
 _ZN5nidas4core10SamplePoolINS0_7SampleTIiEEE9_instanceE@Base 1.2+1640
 _ZN5nidas4core10SamplePoolINS0_7SampleTIiEEE9getSampleEPPS3_Pij@Base 1.2+1640
 _ZN5nidas4core10SamplePoolINS0_7SampleTIiEEE9getSampleEj@Base 1.2+1640
 _ZN5nidas4core10SamplePoolINS0_7SampleTIiEEE9putSampleEPKS3_@Base 1.2+1640
 _ZN5nidas4core10SamplePoolINS0_7SampleTIiEEE9putSampleEPKS3_PPPS3_PiSA_@Base 1.2+1640
 _ZN5nidas4core10SamplePoolINS0_7SampleTIiEEED0Ev@Base 1.2+1640
 _ZN5nidas4core10SamplePoolINS0_7SampleTIiEEED1Ev@Base 1.2+1640
 _ZN5nidas4core10SamplePoolINS0_7SampleTIiEEED2Ev@Base 1.2+1640
 _ZN5nidas4core10SamplePoolINS0_7SampleTIjEEE11getInstanceEv@Base 1.2+1640
 _ZN5nidas4core10SamplePoolINS0_7SampleTIjEEE13_instanceLockE@Base 1.2+1640
 _ZN5nidas4core10SamplePoolINS0_7SampleTIjEEE9_instanceE@Base 1.2+1640
 _ZN5nidas4core10SamplePoolINS0_7SampleTIjEEE9getSampleEPPS3_Pij@Base 1.2+1640
 _ZN5nidas4core10SamplePoolINS0_7SampleTIjEEE9getSampleEj@Base 1.2+1640
 _ZN5nidas4core10SamplePoolINS0_7SampleTIjEEE9putSampleEPKS3_@Base 1.2+1640
 _ZN5nidas4core10SamplePoolINS0_7SampleTIjEEE9putSampleEPKS3_PPPS3_PiSA_@Base 1.2+1640
 _ZN5nidas4core10SamplePoolINS0_7SampleTIjEEED0Ev@Base 1.2+1640
 _ZN5nidas4core10SamplePoolINS0_7SampleTIjEEED1Ev@Base 1.2+1640
 _ZN5nidas4core10SamplePoolINS0_7SampleTIjEEED2Ev@Base 1.2+1640
 _ZN5nidas4core10SamplePoolINS0_7SampleTIsEEE11getInstanceEv@Base 1.2+1640
 _ZN5nidas4core10SamplePoolINS0_7SampleTIsEEE13_instanceLockE@Base 1.2+1640
 _ZN5nidas4core10SamplePoolINS0_7SampleTIsEEE9_instanceE@Base 1.2+1640
 _ZN5nidas4core10SamplePoolINS0_7SampleTIsEEE9getSampleEPPS3_Pij@Base 1.2+1640
 _ZN5nidas4core10SamplePoolINS0_7SampleTIsEEE9getSampleEj@Base 1.2+1640
 _ZN5nidas4core10SamplePoolINS0_7SampleTIsEEE9putSampleEPKS3_@Base 1.2+1640
 _ZN5nidas4core10SamplePoolINS0_7SampleTIsEEE9putSampleEPKS3_PPPS3_PiSA_@Base 1.2+1640
 _ZN5nidas4core10SamplePoolINS0_7SampleTIsEEED0Ev@Base 1.2+1640
 _ZN5nidas4core10SamplePoolINS0_7SampleTIsEEED1Ev@Base 1.2+1640
 _ZN5nidas4core10SamplePoolINS0_7SampleTIsEEED2Ev@Base 1.2+1640
 _ZN5nidas4core10SamplePoolINS0_7SampleTItEEE11getInstanceEv@Base 1.2+1640
 _ZN5nidas4core10SamplePoolINS0_7SampleTItEEE13_instanceLockE@Base 1.2+1640
 _ZN5nidas4core10SamplePoolINS0_7SampleTItEEE9_instanceE@Base 1.2+1640
 _ZN5nidas4core10SamplePoolINS0_7SampleTItEEE9getSampleEPPS3_Pij@Base 1.2+1640
 _ZN5nidas4core10SamplePoolINS0_7SampleTItEEE9getSampleEj@Base 1.2+1640
 _ZN5nidas4core10SamplePoolINS0_7SampleTItEEE9putSampleEPKS3_@Base 1.2+1640
 _ZN5nidas4core10SamplePoolINS0_7SampleTItEEE9putSampleEPKS3_PPPS3_PiSA_@Base 1.2+1640
 _ZN5nidas4core10SamplePoolINS0_7SampleTItEEED0Ev@Base 1.2+1640
 _ZN5nidas4core10SamplePoolINS0_7SampleTItEEED1Ev@Base 1.2+1640
 _ZN5nidas4core10SamplePoolINS0_7SampleTItEEED2Ev@Base 1.2+1640
 _ZN5nidas4core10SamplePoolINS0_7SampleTIxEEE11getInstanceEv@Base 1.2+1640
 _ZN5nidas4core10SamplePoolINS0_7SampleTIxEEE13_instanceLockE@Base 1.2+1640
 _ZN5nidas4core10SamplePoolINS0_7SampleTIxEEE9_instanceE@Base 1.2+1640
 _ZN5nidas4core10SamplePoolINS0_7SampleTIxEEE9getSampleEPPS3_Pij@Base 1.2+1640
 _ZN5nidas4core10SamplePoolINS0_7SampleTIxEEE9getSampleEj@Base 1.2+1640
 _ZN5nidas4core10SamplePoolINS0_7SampleTIxEEE9putSampleEPKS3_@Base 1.2+1640
 _ZN5nidas4core10SamplePoolINS0_7SampleTIxEEE9putSampleEPKS3_PPPS3_PiSA_@Base 1.2+1640
 _ZN5nidas4core10SamplePoolINS0_7SampleTIxEEED0Ev@Base 1.2+1640
 _ZN5nidas4core10SamplePoolINS0_7SampleTIxEEED1Ev@Base 1.2+1640
 _ZN5nidas4core10SamplePoolINS0_7SampleTIxEEED2Ev@Base 1.2+1640
 _ZN5nidas4core11AsciiSscanf6sscanfEPKcPfi@Base 1.2+1640
 _ZN5nidas4core11AsciiSscanf9setFormatERKNSt7__cxx1112basic_stringIcSt11char_traitsIcESaIcEEE@Base 1.2+1640
 _ZN5nidas4core11AsciiSscanfC1Ev@Base 1.2+1640
 _ZN5nidas4core11AsciiSscanfC2Ev@Base 1.2+1640
 _ZN5nidas4core11AsciiSscanfD0Ev@Base 1.2+1640
 _ZN5nidas4core11AsciiSscanfD1Ev@Base 1.2+1640
 _ZN5nidas4core11AsciiSscanfD2Ev@Base 1.2+1640
 _ZN5nidas4core11McSocketUDP10MyMcSocket9connectedEPNS_4util14DatagramSocketERKNS3_16Inet4PacketInfoXE@Base 1.2+1640
 _ZN5nidas4core11McSocketUDP10MyMcSocketD0Ev@Base 1.2+1640
 _ZN5nidas4core11McSocketUDP10MyMcSocketD1Ev@Base 1.2+1640
 _ZN5nidas4core11McSocketUDP10MyMcSocketD2Ev@Base 1.2+1640
 _ZN5nidas4core11McSocketUDP14fromDOMElementEPKN11xercesc_3_210DOMElementE@Base 1.2+1640
 _ZN5nidas4core11McSocketUDP14setNonBlockingEb@Base 1.2+1640
 _ZN5nidas4core11McSocketUDP14setRequestTypeENS0_15McSocketRequestE@Base 1.2+1640
 _ZN5nidas4core11McSocketUDP17requestConnectionEPNS0_18IOChannelRequesterE@Base 1.2+1640
 _ZN5nidas4core11McSocketUDP4readEPvj@Base 1.2+1640
 _ZN5nidas4core11McSocketUDP5closeEv@Base 1.2+1640
 _ZN5nidas4core11McSocketUDP5writeEPK5ioveci@Base 1.2+1640
 _ZN5nidas4core11McSocketUDP5writeEPKvj@Base 1.2+1640
 _ZN5nidas4core11McSocketUDP7connectEv@Base 1.2+1640
 _ZN5nidas4core11McSocketUDP7setNameERKNSt7__cxx1112basic_stringIcSt11char_traitsIcESaIcEEE@Base 1.2+1640
 _ZN5nidas4core11McSocketUDP9connectedEPNS_4util14DatagramSocketERKNS2_16Inet4PacketInfoXE@Base 1.2+1640
 _ZN5nidas4core11McSocketUDPC1ERKS1_@Base 1.2+1640
 _ZN5nidas4core11McSocketUDPC1Ev@Base 1.2+1640
 _ZN5nidas4core11McSocketUDPC2ERKS1_@Base 1.2+1640
 _ZN5nidas4core11McSocketUDPC2Ev@Base 1.2+1640
 _ZN5nidas4core11McSocketUDPD0Ev@Base 1.2+1640
 _ZN5nidas4core11McSocketUDPD1Ev@Base 1.2+1640
 _ZN5nidas4core11McSocketUDPD2Ev@Base 1.2+1640
 _ZN5nidas4core11NidasAppArg10isRequiredEv@Base 1.2+1640
 _ZN5nidas4core11NidasAppArg11setRequiredEb@Base 1.2+1640
 _ZN5nidas4core11NidasAppArg13getUsageFlagsB5cxx11Ev@Base 1.2+1640
 _ZN5nidas4core11NidasAppArg5asIntEv@Base 1.2+1640
 _ZN5nidas4core11NidasAppArg5parseERKSt6vectorINSt7__cxx1112basic_stringIcSt11char_traitsIcESaIcEEESaIS8_EEPi@Base 1.2+1640
 _ZN5nidas4core11NidasAppArg5usageERKNSt7__cxx1112basic_stringIcSt11char_traitsIcESaIcEEE@Base 1.2+1640
 _ZN5nidas4core11NidasAppArg6acceptERKNSt7__cxx1112basic_stringIcSt11char_traitsIcESaIcEEE@Base 1.2+1640
 _ZN5nidas4core11NidasAppArg6asBoolEv@Base 1.2+1640
 _ZN5nidas4core11NidasAppArg6singleEv@Base 1.2+1640
 _ZN5nidas4core11NidasAppArg7addFlagERKNSt7__cxx1112basic_stringIcSt11char_traitsIcESaIcEEE@Base 1.2+1640
 _ZN5nidas4core11NidasAppArg7asFloatEv@Base 1.2+1640
 _ZN5nidas4core11NidasAppArg7getFlagB5cxx11Ev@Base 1.2+1640
 _ZN5nidas4core11NidasAppArg8getValueB5cxx11Ev@Base 1.2+1640
 _ZN5nidas4core11NidasAppArg8setFlagsERKNSt7__cxx1112basic_stringIcSt11char_traitsIcESaIcEEE@Base 1.2+1640
 _ZN5nidas4core11NidasAppArg9specifiedEv@Base 1.2+1640
 _ZN5nidas4core11NidasAppArgC1ERKNSt7__cxx1112basic_stringIcSt11char_traitsIcESaIcEEES9_S9_S9_b@Base 1.2+1640
 _ZN5nidas4core11NidasAppArgC2ERKNSt7__cxx1112basic_stringIcSt11char_traitsIcESaIcEEES9_S9_S9_b@Base 1.2+1640
 _ZN5nidas4core11NidasAppArgD0Ev@Base 1.2+1640
 _ZN5nidas4core11NidasAppArgD1Ev@Base 1.2+1640
 _ZN5nidas4core11NidasAppArgD2Ev@Base 1.2+1640
 _ZN5nidas4core11SampleClock13addSampleDateEPNS0_6SampleE@Base 1.2+1640
 _ZN5nidas4core11SampleClock7setTimeEv@Base 1.2+1640
 _ZN5nidas4core11SampleClock9_instanceE@Base 1.2+1640
 _ZN5nidas4core11SampleClockC1Ev@Base 1.2+1640
 _ZN5nidas4core11SampleClockC2Ev@Base 1.2+1640
 _ZN5nidas4core11SamplePools10removePoolEPNS0_19SamplePoolInterfaceE@Base 1.2+1640
 _ZN5nidas4core11SamplePools11getInstanceEv@Base 1.2+1640
 _ZN5nidas4core11SamplePools13_instanceLockE@Base 1.2+1640
 _ZN5nidas4core11SamplePools14deleteInstanceEv@Base 1.2+1640
 _ZN5nidas4core11SamplePools7addPoolEPNS0_19SamplePoolInterfaceE@Base 1.2+1640
 _ZN5nidas4core11SamplePools9_instanceE@Base 1.2+1640
 _ZN5nidas4core11SamplePoolsD1Ev@Base 1.2+1640
 _ZN5nidas4core11SamplePoolsD2Ev@Base 1.2+1640
 _ZN5nidas4core11XDOMElement17getAttributeValueERKNSt7__cxx1112basic_stringIcSt11char_traitsIcESaIcEEE@Base 1.2+1640
 _ZN5nidas4core11XDOMElement17setAttributeValueERKNSt7__cxx1112basic_stringIcSt11char_traitsIcESaIcEEES9_@Base 1.2+1640
 _ZN5nidas4core11XDOMElementC1EPKN11xercesc_3_210DOMElementE@Base 1.2+1640
 _ZN5nidas4core11XDOMElementC1EPN11xercesc_3_210DOMElementE@Base 1.2+1640
 _ZN5nidas4core11XDOMElementC2EPKN11xercesc_3_210DOMElementE@Base 1.2+1640
 _ZN5nidas4core11XDOMElementC2EPN11xercesc_3_210DOMElementE@Base 1.2+1640
 _ZN5nidas4core11XDOMElementD1Ev@Base 1.2+1640
 _ZN5nidas4core11XDOMElementD2Ev@Base 1.2+1640
 _ZN5nidas4core11chronyZebraE@Base 1.2+1640
 _ZN5nidas4core12Bzip2FileSet14fromDOMElementEPKN11xercesc_3_210DOMElementE@Base 1.2+1640
 _ZN5nidas4core12Bzip2FileSetC1ERKS1_@Base 1.2+1640
 _ZN5nidas4core12Bzip2FileSetC1Ev@Base 1.2+1640
 _ZN5nidas4core12Bzip2FileSetC2ERKS1_@Base 1.2+1640
 _ZN5nidas4core12Bzip2FileSetC2Ev@Base 1.2+1640
 _ZN5nidas4core12Bzip2FileSetD0Ev@Base 1.2+1640
 _ZN5nidas4core12Bzip2FileSetD1Ev@Base 1.2+1640
 _ZN5nidas4core12Bzip2FileSetD2Ev@Base 1.2+1640
 _ZN5nidas4core12DSMServerApp10getDatasetEv@Base 1.2+1640
 _ZN5nidas4core12DSMServerApp10initLoggerEv@Base 1.2+1640
 _ZN5nidas4core12DSMServerApp11initProcessEv@Base 1.2+1640
 _ZN5nidas4core12DSMServerApp12setupSignalsEv@Base 1.2+1640
 _ZN5nidas4core12DSMServerApp13waitForSignalEi@Base 1.2+1640
 _ZN5nidas4core12DSMServerApp14parseRunstringEiPPc@Base 1.2+1640
 _ZN5nidas4core12DSMServerApp16killStatusThreadEv@Base 1.2+1640
 _ZN5nidas4core12DSMServerApp16killXmlRpcThreadEv@Base 1.2+1640
 _ZN5nidas4core12DSMServerApp17startStatusThreadEPNS0_9DSMServerE@Base 1.2+1640
 _ZN5nidas4core12DSMServerApp17startXmlRpcThreadEv@Base 1.2+1640
 _ZN5nidas4core12DSMServerApp18parseXMLConfigFileERKNSt7__cxx1112basic_stringIcSt11char_traitsIcESaIcEEERNS0_7ProjectE@Base 1.2+1640
 _ZN5nidas4core12DSMServerApp3runEv@Base 1.2+1640
 _ZN5nidas4core12DSMServerApp4mainEiPPc@Base 1.2+1640
 _ZN5nidas4core12DSMServerApp5usageEv@Base 1.2+1640
 _ZN5nidas4core12DSMServerApp9_instanceE@Base 1.2+1640
 _ZN5nidas4core12DSMServerAppC1Ev@Base 1.2+1640
 _ZN5nidas4core12DSMServerAppC2Ev@Base 1.2+1640
 _ZN5nidas4core12DSMServerAppD1Ev@Base 1.2+1640
 _ZN5nidas4core12DSMServerAppD2Ev@Base 1.2+1640
 _ZN5nidas4core12HeaderSource11setDefaultsERNS0_17SampleInputHeaderE@Base 1.2+1640
 _ZN5nidas4core12HeaderSource17sendDefaultHeaderEPNS0_12SampleOutputE@Base 1.2+1640
 _ZN5nidas4core12SampleBuffer10setHeapMaxEj@Base 1.2+1640
 _ZN5nidas4core12SampleBuffer11setRealTimeEb@Base 1.2+1640
 _ZN5nidas4core12SampleBuffer12addSampleTagEPKNS0_9SampleTagE@Base 1.2+1640
 _ZN5nidas4core12SampleBuffer12setHeapBlockEb@Base 1.2+1640
 _ZN5nidas4core12SampleBuffer12setKeepStatsEb@Base 1.2+1640
 _ZN5nidas4core12SampleBuffer13heapDecrementEj@Base 1.2+1640
 _ZN5nidas4core12SampleBuffer13setLengthSecsEf@Base 1.2+1640
 _ZN5nidas4core12SampleBuffer15addSampleClientEPNS0_12SampleClientE@Base 1.2+1640
 _ZN5nidas4core12SampleBuffer15removeSampleTagEPKNS0_9SampleTagE@Base 1.2+1640
 _ZN5nidas4core12SampleBuffer18getRawSampleSourceEv@Base 1.2+1640
 _ZN5nidas4core12SampleBuffer18removeSampleClientEPNS0_12SampleClientE@Base 1.2+1640
 _ZN5nidas4core12SampleBuffer21addSampleClientForTagEPNS0_12SampleClientEPKNS0_9SampleTagE@Base 1.2+1640
 _ZN5nidas4core12SampleBuffer22setLateSampleCacheSizeEj@Base 1.2+1640
 _ZN5nidas4core12SampleBuffer24getProcessedSampleSourceEv@Base 1.2+1640
 _ZN5nidas4core12SampleBuffer24removeSampleClientForTagEPNS0_12SampleClientEPKNS0_9SampleTagE@Base 1.2+1640
 _ZN5nidas4core12SampleBuffer3runEv@Base 1.2+1640
 _ZN5nidas4core12SampleBuffer5flushEv@Base 1.2+1640
 _ZN5nidas4core12SampleBuffer7receiveEPKNS0_6SampleE@Base 1.2+1640
 _ZN5nidas4core12SampleBuffer9interruptEv@Base 1.2+1640
 _ZN5nidas4core12SampleBufferC1ERKNSt7__cxx1112basic_stringIcSt11char_traitsIcESaIcEEEb@Base 1.2+1640
 _ZN5nidas4core12SampleBufferC2ERKNSt7__cxx1112basic_stringIcSt11char_traitsIcESaIcEEEb@Base 1.2+1640
 _ZN5nidas4core12SampleBufferD0Ev@Base 1.2+1640
 _ZN5nidas4core12SampleBufferD1Ev@Base 1.2+1640
 _ZN5nidas4core12SampleBufferD2Ev@Base 1.2+1640
 _ZN5nidas4core12SampleSorter10setHeapMaxEj@Base 1.2+1640
 _ZN5nidas4core12SampleSorter11setRealTimeEb@Base 1.2+1640
 _ZN5nidas4core12SampleSorter12addSampleTagEPKNS0_9SampleTagE@Base 1.2+1640
 _ZN5nidas4core12SampleSorter12setHeapBlockEb@Base 1.2+1640
 _ZN5nidas4core12SampleSorter12setKeepStatsEb@Base 1.2+1640
 _ZN5nidas4core12SampleSorter13heapDecrementEj@Base 1.2+1640
 _ZN5nidas4core12SampleSorter13setLengthSecsEf@Base 1.2+1640
 _ZN5nidas4core12SampleSorter15addSampleClientEPNS0_12SampleClientE@Base 1.2+1640
 _ZN5nidas4core12SampleSorter15removeSampleTagEPKNS0_9SampleTagE@Base 1.2+1640
 _ZN5nidas4core12SampleSorter18getRawSampleSourceEv@Base 1.2+1640
 _ZN5nidas4core12SampleSorter18removeSampleClientEPNS0_12SampleClientE@Base 1.2+1640
 _ZN5nidas4core12SampleSorter21addSampleClientForTagEPNS0_12SampleClientEPKNS0_9SampleTagE@Base 1.2+1640
 _ZN5nidas4core12SampleSorter22setLateSampleCacheSizeEj@Base 1.2+1640
 _ZN5nidas4core12SampleSorter24getProcessedSampleSourceEv@Base 1.2+1640
 _ZN5nidas4core12SampleSorter24removeSampleClientForTagEPNS0_12SampleClientEPKNS0_9SampleTagE@Base 1.2+1640
 _ZN5nidas4core12SampleSorter3runEv@Base 1.2+1640
 _ZN5nidas4core12SampleSorter5flushEv@Base 1.2+1640
 _ZN5nidas4core12SampleSorter7receiveEPKNS0_6SampleE@Base 1.2+1640
 _ZN5nidas4core12SampleSorter9interruptEv@Base 1.2+1640
 _ZN5nidas4core12SampleSorterC1ERKNSt7__cxx1112basic_stringIcSt11char_traitsIcESaIcEEEb@Base 1.2+1640
 _ZN5nidas4core12SampleSorterC2ERKNSt7__cxx1112basic_stringIcSt11char_traitsIcESaIcEEEb@Base 1.2+1640
 _ZN5nidas4core12SampleSorterD0Ev@Base 1.2+1640
 _ZN5nidas4core12SampleSorterD1Ev@Base 1.2+1640
 _ZN5nidas4core12SampleSorterD2Ev@Base 1.2+1640
 _ZN5nidas4core12SampleTracer11format_timeB5cxx11Ex@Base 1.2+1640
 _ZN5nidas4core12SampleTracerC1EiPKcS3_i@Base 1.2+1640
 _ZN5nidas4core12SampleTracerC2EiPKcS3_i@Base 1.2+1640
 _ZN5nidas4core12SampleTracerD1Ev@Base 1.2+1640
 _ZN5nidas4core12SampleTracerD2Ev@Base 1.2+1640
 _ZN5nidas4core12SensorOpener10openSensorEPNS0_9DSMSensorE@Base 1.2+1640
 _ZN5nidas4core12SensorOpener12reopenSensorEPNS0_9DSMSensorE@Base 1.2+1640
 _ZN5nidas4core12SensorOpener3runEv@Base 1.2+1640
 _ZN5nidas4core12SensorOpener9interruptEv@Base 1.2+1640
 _ZN5nidas4core12SensorOpenerC1EPNS0_13SensorHandlerE@Base 1.2+1640
 _ZN5nidas4core12SensorOpenerC2EPNS0_13SensorHandlerE@Base 1.2+1640
 _ZN5nidas4core12SensorOpenerD0Ev@Base 1.2+1640
 _ZN5nidas4core12SensorOpenerD1Ev@Base 1.2+1640
 _ZN5nidas4core12SensorOpenerD2Ev@Base 1.2+1640
 _ZN5nidas4core12SerialSensor11printStatusERSo@Base 1.2+1640
 _ZN5nidas4core12SerialSensor12applyTermiosEv@Base 1.2+1640
 _ZN5nidas4core12SerialSensor13buildIODeviceEv@Base 1.2+1640
 _ZN5nidas4core12SerialSensor13initPromptingEv@Base 1.2+1640
 _ZN5nidas4core12SerialSensor13stopPromptingEv@Base 1.2+1640
 _ZN5nidas4core12SerialSensor14fromDOMElementEPKN11xercesc_3_210DOMElementE@Base 1.2+1640
 _ZN5nidas4core12SerialSensor14startPromptingEv@Base 1.2+1640
 _ZN5nidas4core12SerialSensor17shutdownPromptingEv@Base 1.2+1640
 _ZN5nidas4core12SerialSensor18buildSampleScannerEv@Base 1.2+1640
 _ZN5nidas4core12SerialSensor20setMessageParametersEjRKNSt7__cxx1112basic_stringIcSt11char_traitsIcESaIcEEEb@Base 1.2+1640
 _ZN5nidas4core12SerialSensor4openEi@Base 1.2+1640
 _ZN5nidas4core12SerialSensor5closeEv@Base 1.2+1640
 _ZN5nidas4core12SerialSensor8Prompter12looperNotifyEv@Base 1.2+1640
 _ZN5nidas4core12SerialSensor8Prompter19setPromptOffsetMsecEi@Base 1.2+1640
 _ZN5nidas4core12SerialSensor8Prompter19setPromptPeriodMsecEi@Base 1.2+1640
 _ZN5nidas4core12SerialSensor8Prompter9setPromptERKNSt7__cxx1112basic_stringIcSt11char_traitsIcESaIcEEE@Base 1.2+1640
 _ZN5nidas4core12SerialSensor8PrompterD0Ev@Base 1.2+1640
 _ZN5nidas4core12SerialSensor8PrompterD1Ev@Base 1.2+1640
 _ZN5nidas4core12SerialSensor8PrompterD2Ev@Base 1.2+1640
 _ZN5nidas4core12SerialSensorC1Ev@Base 1.2+1640
 _ZN5nidas4core12SerialSensorC2Ev@Base 1.2+1640
 _ZN5nidas4core12SerialSensorD0Ev@Base 1.2+1640
 _ZN5nidas4core12SerialSensorD1Ev@Base 1.2+1640
 _ZN5nidas4core12SerialSensorD2Ev@Base 1.2+1640
 _ZN5nidas4core12ServerSocket14fromDOMElementEPKN11xercesc_3_210DOMElementE@Base 1.2+1640
 _ZN5nidas4core12ServerSocket14setNonBlockingEb@Base 1.2+1640
 _ZN5nidas4core12ServerSocket16ConnectionThread3runEv@Base 1.2+1640
 _ZN5nidas4core12ServerSocket16ConnectionThread9interruptEv@Base 1.2+1640
 _ZN5nidas4core12ServerSocket16ConnectionThreadC1EPS1_@Base 1.2+1640
 _ZN5nidas4core12ServerSocket16ConnectionThreadC2EPS1_@Base 1.2+1640
 _ZN5nidas4core12ServerSocket16ConnectionThreadD0Ev@Base 1.2+1640
 _ZN5nidas4core12ServerSocket16ConnectionThreadD1Ev@Base 1.2+1640
 _ZN5nidas4core12ServerSocket16ConnectionThreadD2Ev@Base 1.2+1640
 _ZN5nidas4core12ServerSocket17requestConnectionEPNS0_18IOChannelRequesterE@Base 1.2+1640
 _ZN5nidas4core12ServerSocket4readEPvj@Base 1.2+1640
 _ZN5nidas4core12ServerSocket5closeEv@Base 1.2+1640
 _ZN5nidas4core12ServerSocket5writeEPK5ioveci@Base 1.2+1640
 _ZN5nidas4core12ServerSocket5writeEPKvj@Base 1.2+1640
 _ZN5nidas4core12ServerSocket7connectEv@Base 1.2+1640
 _ZN5nidas4core12ServerSocket7setNameERKNSt7__cxx1112basic_stringIcSt11char_traitsIcESaIcEEE@Base 1.2+1640
 _ZN5nidas4core12ServerSocketC1ERKNS_4util13SocketAddressE@Base 1.2+1640
 _ZN5nidas4core12ServerSocketC1ERKS1_@Base 1.2+1640
 _ZN5nidas4core12ServerSocketC1Ev@Base 1.2+1640
 _ZN5nidas4core12ServerSocketC2ERKNS_4util13SocketAddressE@Base 1.2+1640
 _ZN5nidas4core12ServerSocketC2ERKS1_@Base 1.2+1640
 _ZN5nidas4core12ServerSocketC2Ev@Base 1.2+1640
 _ZN5nidas4core12ServerSocketD0Ev@Base 1.2+1640
 _ZN5nidas4core12ServerSocketD1Ev@Base 1.2+1640
 _ZN5nidas4core12ServerSocketD2Ev@Base 1.2+1640
 _ZN5nidas4core12SiteIterator7hasNextEv@Base 1.2+1640
 _ZN5nidas4core12SiteIteratorC1EPKNS0_7ProjectE@Base 1.2+1640
 _ZN5nidas4core12SiteIteratorC1Ev@Base 1.2+1640
 _ZN5nidas4core12SiteIteratorC2EPKNS0_7ProjectE@Base 1.2+1640
 _ZN5nidas4core12SiteIteratorC2Ev@Base 1.2+1640
 _ZN5nidas4core12StatusThread10sendStatusEPNS_4util14DatagramSocketEPNS2_13SocketAddressERKNSt7__cxx1112basic_stringIcSt11char_traitsIcESaIcEEE@Base 1.2+1640
 _ZN5nidas4core12StatusThreadC1ERKNSt7__cxx1112basic_stringIcSt11char_traitsIcESaIcEEE@Base 1.2+1640
 _ZN5nidas4core12StatusThreadC2ERKNSt7__cxx1112basic_stringIcSt11char_traitsIcESaIcEEE@Base 1.2+1640
 _ZN5nidas4core12UnixIODevice4openEi@Base 1.2+1640
 _ZN5nidas4core12UnixIODevice4readEPvj@Base 1.2+1640
 _ZN5nidas4core12UnixIODevice4readEPvji@Base 1.2+1640
 _ZN5nidas4core12UnixIODevice5closeEv@Base 1.2+1640
 _ZN5nidas4core12UnixIODevice5ioctlEiPvj@Base 1.2+1640
 _ZN5nidas4core12UnixIODevice5writeEPKvj@Base 1.2+1640
 _ZN5nidas4core12UnixIODeviceD0Ev@Base 1.2+1640
 _ZN5nidas4core12UnixIODeviceD1Ev@Base 1.2+1640
 _ZN5nidas4core12UnixIODeviceD2Ev@Base 1.2+1640
 _ZN5nidas4core12XMLExceptionC1ERKN11xercesc_3_212DOMExceptionE@Base 1.2+1640
 _ZN5nidas4core12XMLExceptionC1ERKN11xercesc_3_212SAXExceptionE@Base 1.2+1640
 _ZN5nidas4core12XMLExceptionC1ERKN11xercesc_3_212XMLExceptionE@Base 1.2+1640
 _ZN5nidas4core12XMLExceptionC1ERKNSt7__cxx1112basic_stringIcSt11char_traitsIcESaIcEEE@Base 1.2+1640
 _ZN5nidas4core12XMLExceptionC2ERKN11xercesc_3_212DOMExceptionE@Base 1.2+1640
 _ZN5nidas4core12XMLExceptionC2ERKN11xercesc_3_212SAXExceptionE@Base 1.2+1640
 _ZN5nidas4core12XMLExceptionC2ERKN11xercesc_3_212XMLExceptionE@Base 1.2+1640
 _ZN5nidas4core12XMLExceptionC2ERKNSt7__cxx1112basic_stringIcSt11char_traitsIcESaIcEEE@Base 1.2+1640
 _ZN5nidas4core12XMLExceptionD0Ev@Base 1.2+1640
 _ZN5nidas4core12XMLExceptionD1Ev@Base 1.2+1640
 _ZN5nidas4core12XMLExceptionD2Ev@Base 1.2+1640
 _ZN5nidas4core12XmlRpcThread9interruptEv@Base 1.2+1640
 _ZN5nidas4core12XmlRpcThreadC1ERKNSt7__cxx1112basic_stringIcSt11char_traitsIcESaIcEEE@Base 1.2+1640
 _ZN5nidas4core12XmlRpcThreadC2ERKNSt7__cxx1112basic_stringIcSt11char_traitsIcESaIcEEE@Base 1.2+1640
 _ZN5nidas4core12XmlRpcThreadD0Ev@Base 1.2+1640
 _ZN5nidas4core12XmlRpcThreadD1Ev@Base 1.2+1640
 _ZN5nidas4core12XmlRpcThreadD2Ev@Base 1.2+1640
 _ZN5nidas4core13DSMEngineIntf12SensorAction4helpB5cxx11Ev@Base 1.2+1640
 _ZN5nidas4core13DSMEngineIntf12SensorAction7executeERN6XmlRpc11XmlRpcValueES5_@Base 1.2+1640
 _ZN5nidas4core13DSMEngineIntf12SensorActionD0Ev@Base 1.2+1640
 _ZN5nidas4core13DSMEngineIntf12SensorActionD1Ev@Base 1.2+1640
 _ZN5nidas4core13DSMEngineIntf12SensorActionD2Ev@Base 1.2+1640
 _ZN5nidas4core13DSMEngineIntf3runEv@Base 1.2+1640
 _ZN5nidas4core13DSMEngineIntf9DSMAction4helpB5cxx11Ev@Base 1.2+1640
 _ZN5nidas4core13DSMEngineIntf9DSMAction7executeERN6XmlRpc11XmlRpcValueES5_@Base 1.2+1640
 _ZN5nidas4core13DSMEngineIntf9DSMActionD0Ev@Base 1.2+1640
 _ZN5nidas4core13DSMEngineIntf9DSMActionD1Ev@Base 1.2+1640
 _ZN5nidas4core13DSMEngineIntf9DSMActionD2Ev@Base 1.2+1640
 _ZN5nidas4core13DSMEngineIntfC1Ev@Base 1.2+1640
 _ZN5nidas4core13DSMEngineIntfC2Ev@Base 1.2+1640
 _ZN5nidas4core13DSMEngineIntfD0Ev@Base 1.2+1640
 _ZN5nidas4core13DSMEngineIntfD1Ev@Base 1.2+1640
 _ZN5nidas4core13DSMEngineIntfD2Ev@Base 1.2+1640
 _ZN5nidas4core13DSMEngineStat3runEv@Base 1.2+1640
 _ZN5nidas4core13DSMEngineStatD0Ev@Base 1.2+1640
 _ZN5nidas4core13DSMEngineStatD1Ev@Base 1.2+1640
 _ZN5nidas4core13DSMEngineStatD2Ev@Base 1.2+1640
 _ZN5nidas4core13DSMServerIntf3runEv@Base 1.2+1640
 _ZN5nidas4core13DSMServerIntfD0Ev@Base 1.2+1640
 _ZN5nidas4core13DSMServerIntfD1Ev@Base 1.2+1640
 _ZN5nidas4core13DSMServerIntfD2Ev@Base 1.2+1640
 _ZN5nidas4core13DSMServerStat3runEv@Base 1.2+1640
 _ZN5nidas4core13DSMServerStatC1ERKNSt7__cxx1112basic_stringIcSt11char_traitsIcESaIcEEEPNS0_9DSMServerE@Base 1.2+1640
 _ZN5nidas4core13DSMServerStatC2ERKNSt7__cxx1112basic_stringIcSt11char_traitsIcESaIcEEEPNS0_9DSMServerE@Base 1.2+1640
 _ZN5nidas4core13DSMServerStatD0Ev@Base 1.2+1640
 _ZN5nidas4core13DSMServerStatD1Ev@Base 1.2+1640
 _ZN5nidas4core13DSMServerStatD2Ev@Base 1.2+1640
 _ZN5nidas4core13DynamicLoader11getInstanceEv@Base 1.2+1640
 _ZN5nidas4core13DynamicLoader13_instanceLockE@Base 1.2+1640
 _ZN5nidas4core13DynamicLoader6lookupERKNSt7__cxx1112basic_stringIcSt11char_traitsIcESaIcEEE@Base 1.2+1640
 _ZN5nidas4core13DynamicLoader6lookupERKNSt7__cxx1112basic_stringIcSt11char_traitsIcESaIcEEES9_@Base 1.2+1640
 _ZN5nidas4core13DynamicLoader9_instanceE@Base 1.2+1640
 _ZN5nidas4core13DynamicLoaderC1Ev@Base 1.2+1640
 _ZN5nidas4core13DynamicLoaderC2Ev@Base 1.2+1640
 _ZN5nidas4core13DynamicLoaderD1Ev@Base 1.2+1640
 _ZN5nidas4core13DynamicLoaderD2Ev@Base 1.2+1640
 _ZN5nidas4core13ProjectConfig14fromDOMElementEPKN11xercesc_3_210DOMElementE@Base 1.2+1640
 _ZN5nidas4core13ProjectConfig22addEnvironmentVariableERKNSt7__cxx1112basic_stringIcSt11char_traitsIcESaIcEEES9_@Base 1.2+1640
 _ZN5nidas4core13ProjectConfigC1Ev@Base 1.2+1640
 _ZN5nidas4core13ProjectConfigC2Ev@Base 1.2+1640
 _ZN5nidas4core13SampleMatcher11addCriteriaERKNSt7__cxx1112basic_stringIcSt11char_traitsIcESaIcEEE@Base 1.2+1640
 _ZN5nidas4core13SampleMatcher12RangeMatcherC1Eiiiii@Base 1.2+1640
 _ZN5nidas4core13SampleMatcher12RangeMatcherC2Eiiiii@Base 1.2+1640
 _ZN5nidas4core13SampleMatcher14exclusiveMatchEv@Base 1.2+1640
 _ZN5nidas4core13SampleMatcher5matchEPKNS0_6SampleE@Base 1.2+1640
 _ZN5nidas4core13SampleMatcher5matchEj@Base 1.2+1640
 _ZN5nidas4core13SampleMatcherC1Ev@Base 1.2+1640
 _ZN5nidas4core13SampleMatcherC2Ev@Base 1.2+1640
 _ZN5nidas4core13SampleScanner10readBufferEPNS0_9DSMSensorERb@Base 1.2+1640
 _ZN5nidas4core13SampleScanner10readBufferEPNS0_9DSMSensorERbi@Base 1.2+1640
 _ZN5nidas4core13SampleScanner11clearBufferEv@Base 1.2+1640
 _ZN5nidas4core13SampleScanner14calcStatisticsEj@Base 1.2+1640
 _ZN5nidas4core13SampleScanner15resetStatisticsEv@Base 1.2+1640
 _ZN5nidas4core13SampleScanner4initEv@Base 1.2+1640
 _ZN5nidas4core13SampleScannerC1Ei@Base 1.2+1640
 _ZN5nidas4core13SampleScannerC2Ei@Base 1.2+1640
 _ZN5nidas4core13SampleScannerD0Ev@Base 1.2+1640
 _ZN5nidas4core13SampleScannerD1Ev@Base 1.2+1640
 _ZN5nidas4core13SampleScannerD2Ev@Base 1.2+1640
 _ZN5nidas4core13SensorCatalog14fromDOMElementEPKN11xercesc_3_210DOMElementE@Base 1.2+1640
 _ZN5nidas4core13SensorCatalogC1ERKS1_@Base 1.2+1640
 _ZN5nidas4core13SensorCatalogC1Ev@Base 1.2+1640
 _ZN5nidas4core13SensorCatalogC2ERKS1_@Base 1.2+1640
 _ZN5nidas4core13SensorCatalogC2Ev@Base 1.2+1640
 _ZN5nidas4core13SensorCatalogD0Ev@Base 1.2+1640
 _ZN5nidas4core13SensorCatalogD1Ev@Base 1.2+1640
 _ZN5nidas4core13SensorCatalogD2Ev@Base 1.2+1640
 _ZN5nidas4core13SensorCatalogaSERKS1_@Base 1.2+1640
 _ZN5nidas4core13SensorHandler11scheduleAddEPNS0_22RemoteSerialConnectionE@Base 1.2+1640
 _ZN5nidas4core13SensorHandler12sensorIsOpenEPNS0_9DSMSensorE@Base 1.2+1640
 _ZN5nidas4core13SensorHandler13checkTimeoutsEx@Base 1.2+1640
 _ZN5nidas4core13SensorHandler13scheduleCloseEPNS0_22RemoteSerialConnectionE@Base 1.2+1640
 _ZN5nidas4core13SensorHandler13scheduleCloseEPNS1_15PolledDSMSensorE@Base 1.2+1640
 _ZN5nidas4core13SensorHandler13setupTimeoutsEi@Base 1.2+1640
 _ZN5nidas4core13SensorHandler13signalHandlerEiP9siginfo_t@Base 1.2+1640
 _ZN5nidas4core13SensorHandler14calcStatisticsEx@Base 1.2+1640
 _ZN5nidas4core13SensorHandler14scheduleReopenEPNS1_15PolledDSMSensorE@Base 1.2+1640
 _ZN5nidas4core13SensorHandler15PolledDSMSensor12checkTimeoutEv@Base 1.2+1640
 _ZN5nidas4core13SensorHandler15PolledDSMSensor13setupTimeoutsEi@Base 1.2+1640
 _ZN5nidas4core13SensorHandler15PolledDSMSensor16handlePollEventsEj@Base 1.2+1640
 _ZN5nidas4core13SensorHandler15PolledDSMSensor5closeEv@Base 1.2+1640
 _ZN5nidas4core13SensorHandler15PolledDSMSensorC1EPNS0_9DSMSensorEPS1_@Base 1.2+1640
 _ZN5nidas4core13SensorHandler15PolledDSMSensorC2EPNS0_9DSMSensorEPS1_@Base 1.2+1640
 _ZN5nidas4core13SensorHandler15PolledDSMSensorD0Ev@Base 1.2+1640
 _ZN5nidas4core13SensorHandler15PolledDSMSensorD1Ev@Base 1.2+1640
 _ZN5nidas4core13SensorHandler15PolledDSMSensorD2Ev@Base 1.2+1640
 _ZN5nidas4core13SensorHandler19handlePollingChangeEv@Base 1.2+1640
 _ZN5nidas4core13SensorHandler24incrementFullBufferReadsEPKNS0_9DSMSensorE@Base 1.2+1640
 _ZN5nidas4core13SensorHandler3addEPNS0_22RemoteSerialConnectionE@Base 1.2+1640
 _ZN5nidas4core13SensorHandler3addEPNS0_9DSMSensorE@Base 1.2+1640
 _ZN5nidas4core13SensorHandler3runEv@Base 1.2+1640
 _ZN5nidas4core13SensorHandler4joinEv@Base 1.2+1640
 _ZN5nidas4core13SensorHandler6removeEPNS0_22RemoteSerialConnectionE@Base 1.2+1640
 _ZN5nidas4core13SensorHandler6removeEPNS1_15PolledDSMSensorE@Base 1.2+1640
 _ZN5nidas4core13SensorHandler9addSensorEPNS0_9DSMSensorE@Base 1.2+1640
 _ZN5nidas4core13SensorHandler9interruptEv@Base 1.2+1640
 _ZN5nidas4core13SensorHandlerC1Et@Base 1.2+1640
 _ZN5nidas4core13SensorHandlerC2Et@Base 1.2+1640
 _ZN5nidas4core13SensorHandlerD0Ev@Base 1.2+1640
 _ZN5nidas4core13SensorHandlerD1Ev@Base 1.2+1640
 _ZN5nidas4core13SensorHandlerD2Ev@Base 1.2+1640
 _ZN5nidas4core13StatusHandler10charactersEPKDsj@Base 1.2+1640
 _ZN5nidas4core13StatusHandler10endElementEPKDsS3_S3_@Base 1.2+1640
 _ZN5nidas4core13StatusHandler10fatalErrorERKN11xercesc_3_217SAXParseExceptionE@Base 1.2+1640
 _ZN5nidas4core13StatusHandler12startElementEPKDsS3_S3_RKN11xercesc_3_210AttributesE@Base 1.2+1640
 _ZN5nidas4core13StatusHandler5errorERKN11xercesc_3_217SAXParseExceptionE@Base 1.2+1640
 _ZN5nidas4core13StatusHandler7warningERKN11xercesc_3_217SAXParseExceptionE@Base 1.2+1640
 _ZN5nidas4core13StatusHandlerD0Ev@Base 1.2+1640
 _ZN5nidas4core13StatusHandlerD1Ev@Base 1.2+1640
 _ZN5nidas4core13StatusHandlerD2Ev@Base 1.2+1640
 _ZN5nidas4core13UnixIOChannel14fromDOMElementEPKN11xercesc_3_210DOMElementE@Base 1.2+1640
 _ZN5nidas4core13UnixIOChannel14setNonBlockingEb@Base 1.2+1640
 _ZN5nidas4core13UnixIOChannel17requestConnectionEPNS0_18IOChannelRequesterE@Base 1.2+1640
 _ZN5nidas4core13UnixIOChannel4readEPvj@Base 1.2+1640
 _ZN5nidas4core13UnixIOChannel5closeEv@Base 1.2+1640
 _ZN5nidas4core13UnixIOChannel5writeEPK5ioveci@Base 1.2+1640
 _ZN5nidas4core13UnixIOChannel5writeEPKvj@Base 1.2+1640
 _ZN5nidas4core13UnixIOChannel7connectEv@Base 1.2+1640
 _ZN5nidas4core13UnixIOChannel7setNameERKNSt7__cxx1112basic_stringIcSt11char_traitsIcESaIcEEE@Base 1.2+1640
 _ZN5nidas4core13UnixIOChannelD0Ev@Base 1.2+1640
 _ZN5nidas4core13UnixIOChannelD1Ev@Base 1.2+1640
 _ZN5nidas4core13UnixIOChannelD2Ev@Base 1.2+1640
 _ZN5nidas4core14DatagramSocket11setHostPortERKNSt7__cxx1112basic_stringIcSt11char_traitsIcESaIcEEEt@Base 1.2+1640
 _ZN5nidas4core14DatagramSocket11setUnixPathERKNSt7__cxx1112basic_stringIcSt11char_traitsIcESaIcEEE@Base 1.2+1640
 _ZN5nidas4core14DatagramSocket14fromDOMElementEPKN11xercesc_3_210DOMElementE@Base 1.2+1640
 _ZN5nidas4core14DatagramSocket14setNonBlockingEb@Base 1.2+1640
 _ZN5nidas4core14DatagramSocket16getSocketAddressEv@Base 1.2+1640
 _ZN5nidas4core14DatagramSocket16setSocketAddressERKNS_4util13SocketAddressE@Base 1.2+1640
 _ZN5nidas4core14DatagramSocket17requestConnectionEPNS0_18IOChannelRequesterE@Base 1.2+1640
 _ZN5nidas4core14DatagramSocket4readEPvj@Base 1.2+1640
 _ZN5nidas4core14DatagramSocket5closeEv@Base 1.2+1640
 _ZN5nidas4core14DatagramSocket5writeEPK5ioveci@Base 1.2+1640
 _ZN5nidas4core14DatagramSocket5writeEPKvj@Base 1.2+1640
 _ZN5nidas4core14DatagramSocket7connectEv@Base 1.2+1640
 _ZN5nidas4core14DatagramSocket7setNameERKNSt7__cxx1112basic_stringIcSt11char_traitsIcESaIcEEE@Base 1.2+1640
 _ZN5nidas4core14DatagramSocketC1EPNS_4util14DatagramSocketE@Base 1.2+1640
 _ZN5nidas4core14DatagramSocketC1ERKS1_@Base 1.2+1640
 _ZN5nidas4core14DatagramSocketC1Ev@Base 1.2+1640
 _ZN5nidas4core14DatagramSocketC2EPNS_4util14DatagramSocketE@Base 1.2+1640
 _ZN5nidas4core14DatagramSocketC2ERKS1_@Base 1.2+1640
 _ZN5nidas4core14DatagramSocketC2Ev@Base 1.2+1640
 _ZN5nidas4core14DatagramSocketD0Ev@Base 1.2+1640
 _ZN5nidas4core14DatagramSocketD1Ev@Base 1.2+1640
 _ZN5nidas4core14DatagramSocketD2Ev@Base 1.2+1640
 _ZN5nidas4core14DatagramSocketaSERKS1_@Base 1.2+1640
 _ZN5nidas4core14GetAdsFileName4helpB5cxx11Ev@Base 1.2+1640
 _ZN5nidas4core14GetAdsFileName7executeERN6XmlRpc11XmlRpcValueES4_@Base 1.2+1640
 _ZN5nidas4core14GetAdsFileNameD0Ev@Base 1.2+1640
 _ZN5nidas4core14GetAdsFileNameD1Ev@Base 1.2+1640
 _ZN5nidas4core14GetAdsFileNameD2Ev@Base 1.2+1640
 _ZN5nidas4core14ProjectConfigs12removeConfigEPKNS0_13ProjectConfigE@Base 1.2+1640
 _ZN5nidas4core14ProjectConfigs14fromDOMElementEPKN11xercesc_3_210DOMElementE@Base 1.2+1640
 _ZN5nidas4core14ProjectConfigs15addConfigByNameEPNS0_13ProjectConfigE@Base 1.2+1640
 _ZN5nidas4core14ProjectConfigs15addConfigByTimeEPNS0_13ProjectConfigE@Base 1.2+1640
 _ZN5nidas4core14ProjectConfigs8parseXMLERKNSt7__cxx1112basic_stringIcSt11char_traitsIcESaIcEEE@Base 1.2+1640
 _ZN5nidas4core14ProjectConfigs8writeXMLERKNSt7__cxx1112basic_stringIcSt11char_traitsIcESaIcEEE@Base 1.2+1640
 _ZN5nidas4core14ProjectConfigsC1Ev@Base 1.2+1640
 _ZN5nidas4core14ProjectConfigsC2Ev@Base 1.2+1640
 _ZN5nidas4core14ProjectConfigsD1Ev@Base 1.2+1640
 _ZN5nidas4core14ProjectConfigsD2Ev@Base 1.2+1640
 _ZN5nidas4core14SampleArchiver10disconnectEPNS0_12SampleOutputE@Base 1.2+1640
 _ZN5nidas4core14SampleArchiver11printStatusERSofRi@Base 1.2+1640
 _ZN5nidas4core14SampleArchiver13connectSourceEPNS0_12SampleSourceE@Base 1.2+1640
 _ZN5nidas4core14SampleArchiver16disconnectSourceEPNS0_12SampleSourceE@Base 1.2+1640
 _ZN5nidas4core14SampleArchiver5flushEv@Base 1.2+1640
 _ZN5nidas4core14SampleArchiver7connectEPNS0_12SampleOutputE@Base 1.2+1640
 _ZN5nidas4core14SampleArchiverC1Ev@Base 1.2+1640
 _ZN5nidas4core14SampleArchiverC2Ev@Base 1.2+1640
 _ZN5nidas4core14SampleArchiverD0Ev@Base 1.2+1640
 _ZN5nidas4core14SampleArchiverD1Ev@Base 1.2+1640
 _ZN5nidas4core14SampleArchiverD2Ev@Base 1.2+1640
 _ZN5nidas4core14SampleAverager10disconnectEPNS0_12SampleSourceE@Base 1.2+1640
 _ZN5nidas4core14SampleAverager11addVariableEPKNS0_8VariableE@Base 1.2+1640
 _ZN5nidas4core14SampleAverager12addSampleTagEPKNS0_9SampleTagE@Base 1.2+1640
 _ZN5nidas4core14SampleAverager12addVariablesERKSt6vectorIPKNS0_8VariableESaIS5_EE@Base 1.2+1640
 _ZN5nidas4core14SampleAverager15addSampleClientEPNS0_12SampleClientE@Base 1.2+1640
 _ZN5nidas4core14SampleAverager15removeSampleTagEPKNS0_9SampleTagE@Base 1.2+1640
 _ZN5nidas4core14SampleAverager18getRawSampleSourceEv@Base 1.2+1640
 _ZN5nidas4core14SampleAverager18removeSampleClientEPNS0_12SampleClientE@Base 1.2+1640
 _ZN5nidas4core14SampleAverager21addSampleClientForTagEPNS0_12SampleClientEPKNS0_9SampleTagE@Base 1.2+1640
 _ZN5nidas4core14SampleAverager24getProcessedSampleSourceEv@Base 1.2+1640
 _ZN5nidas4core14SampleAverager24removeSampleClientForTagEPNS0_12SampleClientEPKNS0_9SampleTagE@Base 1.2+1640
 _ZN5nidas4core14SampleAverager4initEv@Base 1.2+1640
 _ZN5nidas4core14SampleAverager5flushEv@Base 1.2+1640
 _ZN5nidas4core14SampleAverager7connectEPNS0_12SampleSourceE@Base 1.2+1640
 _ZN5nidas4core14SampleAverager7receiveEPKNS0_6SampleE@Base 1.2+1640
 _ZN5nidas4core14SampleAveragerC1ERKSt6vectorIPKNS0_8VariableESaIS5_EE@Base 1.2+1640
 _ZN5nidas4core14SampleAveragerC1ERKSt6vectorIPNS0_8VariableESaIS4_EE@Base 1.2+1640
 _ZN5nidas4core14SampleAveragerC1Ev@Base 1.2+1640
 _ZN5nidas4core14SampleAveragerC2ERKSt6vectorIPKNS0_8VariableESaIS5_EE@Base 1.2+1640
 _ZN5nidas4core14SampleAveragerC2ERKSt6vectorIPNS0_8VariableESaIS4_EE@Base 1.2+1640
 _ZN5nidas4core14SampleAveragerC2Ev@Base 1.2+1640
 _ZN5nidas4core14SampleAveragerD0Ev@Base 1.2+1640
 _ZN5nidas4core14SampleAveragerD1Ev@Base 1.2+1640
 _ZN5nidas4core14SampleAveragerD2Ev@Base 1.2+1640
 _ZN5nidas4core14SamplePipeline10disconnectEPNS0_12SampleSourceE@Base 1.2+1640
 _ZN5nidas4core14SamplePipeline12addSampleTagEPKNS0_9SampleTagE@Base 1.2+1640
 _ZN5nidas4core14SamplePipeline15addSampleClientEPNS0_12SampleClientE@Base 1.2+1640
 _ZN5nidas4core14SamplePipeline15removeSampleTagEPKNS0_9SampleTagE@Base 1.2+1640
 _ZN5nidas4core14SamplePipeline18getRawSampleSourceEv@Base 1.2+1640
 _ZN5nidas4core14SamplePipeline18removeSampleClientEPNS0_12SampleClientE@Base 1.2+1640
 _ZN5nidas4core14SamplePipeline21addSampleClientForTagEPNS0_12SampleClientEPKNS0_9SampleTagE@Base 1.2+1640
 _ZN5nidas4core14SamplePipeline24getProcessedSampleSourceEv@Base 1.2+1640
 _ZN5nidas4core14SamplePipeline24removeSampleClientForTagEPNS0_12SampleClientEPKNS0_9SampleTagE@Base 1.2+1640
 _ZN5nidas4core14SamplePipeline4joinEv@Base 1.2+1640
 _ZN5nidas4core14SamplePipeline5flushEv@Base 1.2+1640
 _ZN5nidas4core14SamplePipeline7connectEPNS0_12SampleSourceE@Base 1.2+1640
 _ZN5nidas4core14SamplePipeline7rawinitEv@Base 1.2+1640
 _ZN5nidas4core14SamplePipeline8procinitEv@Base 1.2+1640
 _ZN5nidas4core14SamplePipeline9interruptEv@Base 1.2+1640
 _ZN5nidas4core14SamplePipelineC1Ev@Base 1.2+1640
 _ZN5nidas4core14SamplePipelineC2Ev@Base 1.2+1640
 _ZN5nidas4core14SamplePipelineD0Ev@Base 1.2+1640
 _ZN5nidas4core14SamplePipelineD1Ev@Base 1.2+1640
 _ZN5nidas4core14SamplePipelineD2Ev@Base 1.2+1640
 _ZN5nidas4core14SensorIterator7hasNextEv@Base 1.2+1640
 _ZN5nidas4core14SensorIteratorC1EPKNS0_4SiteE@Base 1.2+1640
 _ZN5nidas4core14SensorIteratorC1EPKNS0_7ProjectE@Base 1.2+1640
 _ZN5nidas4core14SensorIteratorC1EPKNS0_9DSMConfigE@Base 1.2+1640
 _ZN5nidas4core14SensorIteratorC1Ev@Base 1.2+1640
 _ZN5nidas4core14SensorIteratorC2EPKNS0_4SiteE@Base 1.2+1640
 _ZN5nidas4core14SensorIteratorC2EPKNS0_7ProjectE@Base 1.2+1640
 _ZN5nidas4core14SensorIteratorC2EPKNS0_9DSMConfigE@Base 1.2+1640
 _ZN5nidas4core14SensorIteratorC2Ev@Base 1.2+1640
 _ZN5nidas4core14ServiceCatalog14fromDOMElementEPKN11xercesc_3_210DOMElementE@Base 1.2+1640
 _ZN5nidas4core14ServiceCatalogC1ERKS1_@Base 1.2+1640
 _ZN5nidas4core14ServiceCatalogC1Ev@Base 1.2+1640
 _ZN5nidas4core14ServiceCatalogC2ERKS1_@Base 1.2+1640
 _ZN5nidas4core14ServiceCatalogC2Ev@Base 1.2+1640
 _ZN5nidas4core14ServiceCatalogD0Ev@Base 1.2+1640
 _ZN5nidas4core14ServiceCatalogD1Ev@Base 1.2+1640
 _ZN5nidas4core14ServiceCatalogD2Ev@Base 1.2+1640
 _ZN5nidas4core14ServiceCatalogaSERKS1_@Base 1.2+1640
 _ZN5nidas4core14SocketIODevice12parseAddressERKNSt7__cxx1112basic_stringIcSt11char_traitsIcESaIcEEERiRS7_SA_SB_@Base 1.2+1640
 _ZN5nidas4core14SocketIODevice4openEi@Base 1.2+1640
 _ZN5nidas4core14SocketIODevice5ioctlEiPvj@Base 1.2+1640
 _ZN5nidas4core14SocketIODeviceC1Ev@Base 1.2+1640
 _ZN5nidas4core14SocketIODeviceC2Ev@Base 1.2+1640
 _ZN5nidas4core14SocketIODeviceD0Ev@Base 1.2+1640
 _ZN5nidas4core14SocketIODeviceD1Ev@Base 1.2+1640
 _ZN5nidas4core14SocketIODeviceD2Ev@Base 1.2+1640
 _ZN5nidas4core14StatusListener3runEv@Base 1.2+1640
 _ZN5nidas4core14StatusListenerC1Ev@Base 1.2+1640
 _ZN5nidas4core14StatusListenerC2Ev@Base 1.2+1640
 _ZN5nidas4core14StatusListenerD0Ev@Base 1.2+1640
 _ZN5nidas4core14StatusListenerD1Ev@Base 1.2+1640
 _ZN5nidas4core14StatusListenerD2Ev@Base 1.2+1640
 _ZN5nidas4core14XMLConfigInputD0Ev@Base 1.2+1640
 _ZN5nidas4core14XMLConfigInputD1Ev@Base 1.2+1640
 _ZN5nidas4core14XMLConfigInputD2Ev@Base 1.2+1640
 _ZN5nidas4core15BadSampleFilter11setMaxDsmIdEj@Base 1.2+1640
 _ZN5nidas4core15BadSampleFilter11setMinDsmIdEj@Base 1.2+1640
 _ZN5nidas4core15BadSampleFilter16setMaxSampleTimeERKNS_4util5UTimeE@Base 1.2+1640
 _ZN5nidas4core15BadSampleFilter16setMinSampleTimeERKNS_4util5UTimeE@Base 1.2+1640
 _ZN5nidas4core15BadSampleFilter18setMaxSampleLengthEj@Base 1.2+1640
 _ZN5nidas4core15BadSampleFilter18setMinSampleLengthEj@Base 1.2+1640
 _ZN5nidas4core15BadSampleFilter18setSampleTypeLimitENS0_10sampleTypeE@Base 1.2+1640
 _ZN5nidas4core15BadSampleFilter18setSkipNidasHeaderEb@Base 1.2+1640
 _ZN5nidas4core15BadSampleFilter19invalidSampleHeaderERKNS0_12SampleHeaderE@Base 1.2+1640
 _ZN5nidas4core15BadSampleFilter19setDefaultTimeRangeERKNS_4util5UTimeES5_@Base 1.2+1640
 _ZN5nidas4core15BadSampleFilter19setFilterBadSamplesEb@Base 1.2+1640
 _ZN5nidas4core15BadSampleFilter7setRuleERKNSt7__cxx1112basic_stringIcSt11char_traitsIcESaIcEEE@Base 1.2+1640
 _ZN5nidas4core15BadSampleFilter8setRulesERKNSt7__cxx1112basic_stringIcSt11char_traitsIcESaIcEEE@Base 1.2+1640
 _ZN5nidas4core15BadSampleFilterC1Ev@Base 1.2+1640
 _ZN5nidas4core15BadSampleFilterC2Ev@Base 1.2+1640
 _ZN5nidas4core15CharacterSensor10scanSampleEPNS0_11AsciiSscanfEPKcPf@Base 1.2+1640
 _ZN5nidas4core15CharacterSensor13adjustTimeTagEPNS0_9SampleTagEPNS0_7SampleTIfEE@Base 1.2+1640
 _ZN5nidas4core15CharacterSensor13buildIODeviceEv@Base 1.2+1640
 _ZN5nidas4core15CharacterSensor13stopPromptingEv@Base 1.2+1640
 _ZN5nidas4core15CharacterSensor14fromDOMElementEPKN11xercesc_3_210DOMElementE@Base 1.2+1640
 _ZN5nidas4core15CharacterSensor14sendInitStringEv@Base 1.2+1640
 _ZN5nidas4core15CharacterSensor14startPromptingEv@Base 1.2+1640
 _ZN5nidas4core15CharacterSensor15togglePromptingEv@Base 1.2+1640
 _ZN5nidas4core15CharacterSensor15validateSscanfsEv@Base 1.2+1640
 _ZN5nidas4core15CharacterSensor16doesAsciiSscanfsEv@Base 1.2+1640
 _ZN5nidas4core15CharacterSensor18buildSampleScannerEv@Base 1.2+1640
 _ZN5nidas4core15CharacterSensor20searchSampleScannersEPKNS0_6SampleEPPNS0_9SampleTagE@Base 1.2+1640
 _ZN5nidas4core15CharacterSensor20setMessageParametersEjRKNSt7__cxx1112basic_stringIcSt11char_traitsIcESaIcEEEb@Base 1.2+1640
 _ZN5nidas4core15CharacterSensor4initEv@Base 1.2+1640
 _ZN5nidas4core15CharacterSensor4openEi@Base 1.2+1640
 _ZN5nidas4core15CharacterSensor7processEPKNS0_6SampleERNSt7__cxx114listIS4_SaIS4_EEE@Base 1.2+1640
 _ZN5nidas4core15CharacterSensor8validateEv@Base 1.2+1640
 _ZN5nidas4core15CharacterSensor9addPromptERKNSt7__cxx1112basic_stringIcSt11char_traitsIcESaIcEEEdd@Base 1.2+1640
 _ZN5nidas4core15CharacterSensorC1Ev@Base 1.2+1640
 _ZN5nidas4core15CharacterSensorC2Ev@Base 1.2+1640
 _ZN5nidas4core15CharacterSensorD0Ev@Base 1.2+1640
 _ZN5nidas4core15CharacterSensorD1Ev@Base 1.2+1640
 _ZN5nidas4core15CharacterSensorD2Ev@Base 1.2+1640
 _ZN5nidas4core15TimetagAdjuster3logEiPKNS0_9DSMSensorEb@Base 1.2+1640
 _ZN5nidas4core15TimetagAdjuster4slogERNS0_12SampleTracerERKNSt7__cxx1112basic_stringIcSt11char_traitsIcESaIcEEEx@Base 1.2+1640
 _ZN5nidas4core15TimetagAdjuster4slogERNS0_12SampleTracerERKNSt7__cxx1112basic_stringIcSt11char_traitsIcESaIcEEExxii@Base 1.2+1640
 _ZN5nidas4core15TimetagAdjuster6adjustEx@Base 1.2+1640
 _ZN5nidas4core15TimetagAdjusterC1Ejd@Base 1.2+1640
 _ZN5nidas4core15TimetagAdjusterC2Ejd@Base 1.2+1640
 _ZN5nidas4core15XMLConfigWriterC1EPKNS0_9DSMConfigE@Base 1.2+1640
 _ZN5nidas4core15XMLConfigWriterC1Ev@Base 1.2+1640
 _ZN5nidas4core15XMLConfigWriterC2EPKNS0_9DSMConfigE@Base 1.2+1640
 _ZN5nidas4core15XMLConfigWriterC2Ev@Base 1.2+1640
 _ZN5nidas4core15XMLConfigWriterD0Ev@Base 1.2+1640
 _ZN5nidas4core15XMLConfigWriterD1Ev@Base 1.2+1640
 _ZN5nidas4core15XMLConfigWriterD2Ev@Base 1.2+1640
 _ZN5nidas4core15XMLErrorHandler11handleErrorERKN11xercesc_3_28DOMErrorE@Base 1.2+1640
 _ZN5nidas4core15XMLErrorHandler11resetErrorsEv@Base 1.2+1640
 _ZN5nidas4core15XMLErrorHandlerC1Ev@Base 1.2+1640
 _ZN5nidas4core15XMLErrorHandlerC2Ev@Base 1.2+1640
 _ZN5nidas4core15XMLErrorHandlerD0Ev@Base 1.2+1640
 _ZN5nidas4core15XMLErrorHandlerD1Ev@Base 1.2+1640
 _ZN5nidas4core15XMLErrorHandlerD2Ev@Base 1.2+1640
 _ZN5nidas4core16AdaptiveDespiker10discrLevelEf@Base 1.2+1640
 _ZN5nidas4core16AdaptiveDespiker10staticInitEv@Base 1.2+1640
 _ZN5nidas4core16AdaptiveDespiker11adjustLevelEf@Base 1.2+1640
 _ZN5nidas4core16AdaptiveDespiker14initStatisticsEf@Base 1.2+1640
 _ZN5nidas4core16AdaptiveDespiker14staticInitDoneE@Base 1.2+1640
 _ZN5nidas4core16AdaptiveDespiker16updateStatisticsEf@Base 1.2+1640
 _ZN5nidas4core16AdaptiveDespiker19incrementStatisticsEf@Base 1.2+1640
 _ZN5nidas4core16AdaptiveDespiker21setOutlierProbabilityEf@Base 1.2+1640
 _ZN5nidas4core16AdaptiveDespiker22setDiscLevelMultiplierEf@Base 1.2+1640
 _ZN5nidas4core16AdaptiveDespiker4_adjE@Base 1.2+1640
 _ZN5nidas4core16AdaptiveDespiker5resetEv@Base 1.2+1640
 _ZN5nidas4core16AdaptiveDespiker6splineEPfS2_iddS2_@Base 1.2+1640
 _ZN5nidas4core16AdaptiveDespiker6splintEPfS2_S2_id@Base 1.2+1640
 _ZN5nidas4core16AdaptiveDespiker7despikeEfPb@Base 1.2+1640
 _ZN5nidas4core16AdaptiveDespikerC1Ev@Base 1.2+1640
 _ZN5nidas4core16AdaptiveDespikerC2Ev@Base 1.2+1640
 _ZN5nidas4core16DOMObjectFactory12createObjectERKNSt7__cxx1112basic_stringIcSt11char_traitsIcESaIcEEE@Base 1.2+1640
 _ZN5nidas4core16DOMObjectFactory15soVersionSuffixE@Base 1.2+1640
 _ZN5nidas4core16NearestResampler10ctorCommonERKSt6vectorIPKNS0_8VariableESaIS5_EEb@Base 1.2+1640
 _ZN5nidas4core16NearestResampler10disconnectEPNS0_12SampleSourceE@Base 1.2+1640
 _ZN5nidas4core16NearestResampler12addSampleTagEPKNS0_9SampleTagE@Base 1.2+1640
 _ZN5nidas4core16NearestResampler15addSampleClientEPNS0_12SampleClientE@Base 1.2+1640
 _ZN5nidas4core16NearestResampler15removeSampleTagEPKNS0_9SampleTagE@Base 1.2+1640
 _ZN5nidas4core16NearestResampler18getRawSampleSourceEv@Base 1.2+1640
 _ZN5nidas4core16NearestResampler18removeSampleClientEPNS0_12SampleClientE@Base 1.2+1640
 _ZN5nidas4core16NearestResampler21addSampleClientForTagEPNS0_12SampleClientEPKNS0_9SampleTagE@Base 1.2+1640
 _ZN5nidas4core16NearestResampler24getProcessedSampleSourceEv@Base 1.2+1640
 _ZN5nidas4core16NearestResampler24removeSampleClientForTagEPNS0_12SampleClientEPKNS0_9SampleTagE@Base 1.2+1640
 _ZN5nidas4core16NearestResampler5flushEv@Base 1.2+1640
 _ZN5nidas4core16NearestResampler7connectEPNS0_12SampleSourceE@Base 1.2+1640
 _ZN5nidas4core16NearestResampler7receiveEPKNS0_6SampleE@Base 1.2+1640
 _ZN5nidas4core16NearestResamplerC1ERKSt6vectorIPKNS0_8VariableESaIS5_EEb@Base 1.2+1640
 _ZN5nidas4core16NearestResamplerC1ERKSt6vectorIPNS0_8VariableESaIS4_EEb@Base 1.2+1640
 _ZN5nidas4core16NearestResamplerC2ERKSt6vectorIPKNS0_8VariableESaIS5_EEb@Base 1.2+1640
 _ZN5nidas4core16NearestResamplerC2ERKSt6vectorIPNS0_8VariableESaIS4_EEb@Base 1.2+1640
 _ZN5nidas4core16NearestResamplerD0Ev@Base 1.2+1640
 _ZN5nidas4core16NearestResamplerD1Ev@Base 1.2+1640
 _ZN5nidas4core16NearestResamplerD2Ev@Base 1.2+1640
 _ZN5nidas4core16SampleClientList3addEPNS0_12SampleClientE@Base 1.2+1640
 _ZN5nidas4core16SampleClientList6removeEPNS0_12SampleClientE@Base 1.2+1640
 _ZN5nidas4core16SampleClientList9removeAllEv@Base 1.2+1640
 _ZN5nidas4core16SampleClientListC1ERKS1_@Base 1.2+1640
 _ZN5nidas4core16SampleClientListC2ERKS1_@Base 1.2+1640
 _ZN5nidas4core16SampleClientListD0Ev@Base 1.2+1640
 _ZN5nidas4core16SampleClientListD1Ev@Base 1.2+1640
 _ZN5nidas4core16SampleClientListD2Ev@Base 1.2+1640
 _ZN5nidas4core16SampleClientListaSERKS1_@Base 1.2+1640
 _ZN5nidas4core16SampleOutputBase10disconnectEv@Base 1.2+1640
 _ZN5nidas4core16SampleOutputBase10setLatencyEf@Base 1.2+1640
 _ZN5nidas4core16SampleOutputBase12addParameterEPNS0_9ParameterE@Base 1.2+1640
 _ZN5nidas4core16SampleOutputBase12setDSMConfigEPKNS0_9DSMConfigE@Base 1.2+1640
 _ZN5nidas4core16SampleOutputBase12setIOChannelEPNS0_9IOChannelE@Base 1.2+1640
 _ZN5nidas4core16SampleOutputBase14createNextFileEx@Base 1.2+1640
 _ZN5nidas4core16SampleOutputBase14fromDOMElementEPKN11xercesc_3_210DOMElementE@Base 1.2+1640
 _ZN5nidas4core16SampleOutputBase15setHeaderSourceEPNS0_12HeaderSourceE@Base 1.2+1640
 _ZN5nidas4core16SampleOutputBase17requestConnectionEPNS0_25SampleConnectionRequesterE@Base 1.2+1640
 _ZN5nidas4core16SampleOutputBase18addSourceSampleTagEPKNS0_9SampleTagE@Base 1.2+1640
 _ZN5nidas4core16SampleOutputBase19addSourceSampleTagsERKNSt7__cxx114listIPKNS0_9SampleTagESaIS6_EEE@Base 1.2+1640
 _ZN5nidas4core16SampleOutputBase21addRequestedSampleTagEPNS0_9SampleTagE@Base 1.2+1640
 _ZN5nidas4core16SampleOutputBase21setReconnectDelaySecsEi@Base 1.2+1640
 _ZN5nidas4core16SampleOutputBase5closeEv@Base 1.2+1640
 _ZN5nidas4core16SampleOutputBase5writeEPKvj@Base 1.2+1640
 _ZN5nidas4core16SampleOutputBase7setNameERKNSt7__cxx1112basic_stringIcSt11char_traitsIcESaIcEEE@Base 1.2+1640
 _ZN5nidas4core16SampleOutputBase9connectedEPNS0_9IOChannelE@Base 1.2+1640
 _ZN5nidas4core16SampleOutputBaseC1EPNS0_9IOChannelEPNS0_25SampleConnectionRequesterE@Base 1.2+1640
 _ZN5nidas4core16SampleOutputBaseC1ERS1_PNS0_9IOChannelE@Base 1.2+1640
 _ZN5nidas4core16SampleOutputBaseC1Ev@Base 1.2+1640
 _ZN5nidas4core16SampleOutputBaseC2EPNS0_9IOChannelEPNS0_25SampleConnectionRequesterE@Base 1.2+1640
 _ZN5nidas4core16SampleOutputBaseC2ERS1_PNS0_9IOChannelE@Base 1.2+1640
 _ZN5nidas4core16SampleOutputBaseC2Ev@Base 1.2+1640
 _ZN5nidas4core16SampleOutputBaseD0Ev@Base 1.2+1640
 _ZN5nidas4core16SampleOutputBaseD1Ev@Base 1.2+1640
 _ZN5nidas4core16SampleOutputBaseD2Ev@Base 1.2+1640
 _ZN5nidas4core16VariableIterator7hasNextEv@Base 1.2+1640
 _ZN5nidas4core16VariableIteratorC1EPKNS0_12SampleSourceE@Base 1.2+1640
 _ZN5nidas4core16VariableIteratorC1EPKNS0_4SiteE@Base 1.2+1640
 _ZN5nidas4core16VariableIteratorC1EPKNS0_7ProjectE@Base 1.2+1640
 _ZN5nidas4core16VariableIteratorC1EPKNS0_9DSMConfigE@Base 1.2+1640
 _ZN5nidas4core16VariableIteratorC1EPKNS0_9SampleTagE@Base 1.2+1640
 _ZN5nidas4core16VariableIteratorC2EPKNS0_12SampleSourceE@Base 1.2+1640
 _ZN5nidas4core16VariableIteratorC2EPKNS0_4SiteE@Base 1.2+1640
 _ZN5nidas4core16VariableIteratorC2EPKNS0_7ProjectE@Base 1.2+1640
 _ZN5nidas4core16VariableIteratorC2EPKNS0_9DSMConfigE@Base 1.2+1640
 _ZN5nidas4core16VariableIteratorC2EPKNS0_9SampleTagE@Base 1.2+1640
 _ZN5nidas4core16XMLCachingParser11getInstanceEv@Base 1.2+1640
 _ZN5nidas4core16XMLCachingParser13_instanceLockE@Base 1.2+1640
 _ZN5nidas4core16XMLCachingParser14getFileModTimeERKNSt7__cxx1112basic_stringIcSt11char_traitsIcESaIcEEE@Base 1.2+1640
 _ZN5nidas4core16XMLCachingParser15destroyInstanceEv@Base 1.2+1640
 _ZN5nidas4core16XMLCachingParser5parseERKNSt7__cxx1112basic_stringIcSt11char_traitsIcESaIcEEE@Base 1.2+1640
 _ZN5nidas4core16XMLCachingParser9_instanceE@Base 1.2+1640
 _ZN5nidas4core16XMLCachingParserC1Ev@Base 1.2+1640
 _ZN5nidas4core16XMLCachingParserC2Ev@Base 1.2+1640
 _ZN5nidas4core16XMLCachingParserD0Ev@Base 1.2+1640
 _ZN5nidas4core16XMLCachingParserD1Ev@Base 1.2+1640
 _ZN5nidas4core16XMLCachingParserD2Ev@Base 1.2+1640
 _ZN5nidas4core16XMLFdInputSourceD0Ev@Base 1.2+1640
 _ZN5nidas4core16XMLFdInputSourceD1Ev@Base 1.2+1640
 _ZN5nidas4core16XMLFdInputSourceD2Ev@Base 1.2+1640
 _ZN5nidas4core16requestXMLConfigEbRKNS_4util18Inet4SocketAddressEP10__sigset_t@Base 1.2+1640
 _ZN5nidas4core17DSMConfigIterator7hasNextEv@Base 1.2+1640
 _ZN5nidas4core17DSMConfigIteratorC1EPKNS0_4SiteE@Base 1.2+1640
 _ZN5nidas4core17DSMConfigIteratorC1EPKNS0_7ProjectE@Base 1.2+1640
 _ZN5nidas4core17DSMConfigIteratorC1Ev@Base 1.2+1640
 _ZN5nidas4core17DSMConfigIteratorC2EPKNS0_4SiteE@Base 1.2+1640
 _ZN5nidas4core17DSMConfigIteratorC2EPKNS0_7ProjectE@Base 1.2+1640
 _ZN5nidas4core17DSMConfigIteratorC2Ev@Base 1.2+1640
 _ZN5nidas4core17DSMServerIterator7hasNextEv@Base 1.2+1640
 _ZN5nidas4core17DSMServerIteratorC1EPKNS0_4SiteE@Base 1.2+1640
 _ZN5nidas4core17DSMServerIteratorC1EPKNS0_7ProjectE@Base 1.2+1640
 _ZN5nidas4core17DSMServerIteratorC1Ev@Base 1.2+1640
 _ZN5nidas4core17DSMServerIteratorC2EPKNS0_4SiteE@Base 1.2+1640
 _ZN5nidas4core17DSMServerIteratorC2EPKNS0_7ProjectE@Base 1.2+1640
 _ZN5nidas4core17DSMServerIteratorC2Ev@Base 1.2+1640
 _ZN5nidas4core17DerivedDataReader11getInstanceEv@Base 1.2+1640
 _ZN5nidas4core17DerivedDataReader12parseIWGADTSEPKc@Base 1.2+1640
 _ZN5nidas4core17DerivedDataReader12removeClientEPNS0_17DerivedDataClientE@Base 1.2+1640
 _ZN5nidas4core17DerivedDataReader13notifyClientsEv@Base 1.2+1640
 _ZN5nidas4core17DerivedDataReader14_instanceMutexE@Base 1.2+1640
 _ZN5nidas4core17DerivedDataReader14createInstanceERKNS_4util13SocketAddressE@Base 1.2+1640
 _ZN5nidas4core17DerivedDataReader14deleteInstanceEv@Base 1.2+1640
 _ZN5nidas4core17DerivedDataReader3runEv@Base 1.2+1640
 _ZN5nidas4core17DerivedDataReader9_instanceE@Base 1.2+1640
 _ZN5nidas4core17DerivedDataReader9addClientEPNS0_17DerivedDataClientE@Base 1.2+1640
 _ZN5nidas4core17DerivedDataReader9interruptEv@Base 1.2+1640
 _ZN5nidas4core17DerivedDataReaderC1ERKNS_4util13SocketAddressE@Base 1.2+1640
 _ZN5nidas4core17DerivedDataReaderC2ERKNS_4util13SocketAddressE@Base 1.2+1640
 _ZN5nidas4core17DerivedDataReaderD0Ev@Base 1.2+1640
 _ZN5nidas4core17DerivedDataReaderD1Ev@Base 1.2+1640
 _ZN5nidas4core17DerivedDataReaderD2Ev@Base 1.2+1640
 _ZN5nidas4core17NidasAppExceptionD0Ev@Base 1.2+1640
 _ZN5nidas4core17NidasAppExceptionD1Ev@Base 1.2+1640
 _ZN5nidas4core17NidasAppExceptionD2Ev@Base 1.2+1640
 _ZN5nidas4core17ProcessorIterator7hasNextEv@Base 1.2+1640
 _ZN5nidas4core17ProcessorIteratorC1EPKNS0_10DSMServiceE@Base 1.2+1640
 _ZN5nidas4core17ProcessorIteratorC1EPKNS0_4SiteE@Base 1.2+1640
 _ZN5nidas4core17ProcessorIteratorC1EPKNS0_7ProjectE@Base 1.2+1640
 _ZN5nidas4core17ProcessorIteratorC1EPKNS0_9DSMConfigE@Base 1.2+1640
 _ZN5nidas4core17ProcessorIteratorC1EPKNS0_9DSMServerE@Base 1.2+1640
 _ZN5nidas4core17ProcessorIteratorC1Ev@Base 1.2+1640
 _ZN5nidas4core17ProcessorIteratorC2EPKNS0_10DSMServiceE@Base 1.2+1640
 _ZN5nidas4core17ProcessorIteratorC2EPKNS0_4SiteE@Base 1.2+1640
 _ZN5nidas4core17ProcessorIteratorC2EPKNS0_7ProjectE@Base 1.2+1640
 _ZN5nidas4core17ProcessorIteratorC2EPKNS0_9DSMConfigE@Base 1.2+1640
 _ZN5nidas4core17ProcessorIteratorC2EPKNS0_9DSMServerE@Base 1.2+1640
 _ZN5nidas4core17ProcessorIteratorC2Ev@Base 1.2+1640
 _ZN5nidas4core17SampleIOProcessor10setServiceEPKNS0_10DSMServiceE@Base 1.2+1640
 _ZN5nidas4core17SampleIOProcessor11printStatusERSofRi@Base 1.2+1640
 _ZN5nidas4core17SampleIOProcessor11setOptionalEb@Base 1.2+1640
 _ZN5nidas4core17SampleIOProcessor12addParameterEPNS0_9ParameterE@Base 1.2+1640
 _ZN5nidas4core17SampleIOProcessor12addSampleTagEPKNS0_9SampleTagE@Base 1.2+1640
 _ZN5nidas4core17SampleIOProcessor12setDSMConfigEPKNS0_9DSMConfigE@Base 1.2+1640
 _ZN5nidas4core17SampleIOProcessor14fromDOMElementEPKN11xercesc_3_210DOMElementE@Base 1.2+1640
 _ZN5nidas4core17SampleIOProcessor15addSampleClientEPNS0_12SampleClientE@Base 1.2+1640
 _ZN5nidas4core17SampleIOProcessor15removeSampleTagEPKNS0_9SampleTagE@Base 1.2+1640
 _ZN5nidas4core17SampleIOProcessor18getRawSampleSourceEv@Base 1.2+1640
 _ZN5nidas4core17SampleIOProcessor18removeSampleClientEPNS0_12SampleClientE@Base 1.2+1640
 _ZN5nidas4core17SampleIOProcessor21addRequestedSampleTagEPNS0_9SampleTagE@Base 1.2+1640
 _ZN5nidas4core17SampleIOProcessor21addSampleClientForTagEPNS0_12SampleClientEPKNS0_9SampleTagE@Base 1.2+1640
 _ZN5nidas4core17SampleIOProcessor24getProcessedSampleSourceEv@Base 1.2+1640
 _ZN5nidas4core17SampleIOProcessor24removeRequestedSampleTagEPNS0_9SampleTagE@Base 1.2+1640
 _ZN5nidas4core17SampleIOProcessor24removeSampleClientForTagEPNS0_12SampleClientEPKNS0_9SampleTagE@Base 1.2+1640
 _ZN5nidas4core17SampleIOProcessor4initEx@Base 1.2+1640
 _ZN5nidas4core17SampleIOProcessor7setNameERKNSt7__cxx1112basic_stringIcSt11char_traitsIcESaIcEEE@Base 1.2+1640
 _ZN5nidas4core17SampleIOProcessor9addOutputEPNS0_12SampleOutputE@Base 1.2+1640
 _ZN5nidas4core17SampleIOProcessorC1Eb@Base 1.2+1640
 _ZN5nidas4core17SampleIOProcessorC2Eb@Base 1.2+1640
 _ZN5nidas4core17SampleIOProcessorD0Ev@Base 1.2+1640
 _ZN5nidas4core17SampleIOProcessorD1Ev@Base 1.2+1640
 _ZN5nidas4core17SampleIOProcessorD2Ev@Base 1.2+1640
 _ZN5nidas4core17SampleInputHeader10parseMagicEPNS0_8IOStreamE@Base 1.2+1640
 _ZN5nidas4core17SampleInputHeader10parseValueEPNS0_8IOStreamE@Base 1.2+1640
 _ZN5nidas4core17SampleInputHeader12magicStringsE@Base 1.2+1640
 _ZN5nidas4core17SampleInputHeader13setConfigNameERKNSt7__cxx1112basic_stringIcSt11char_traitsIcESaIcEEE@Base 1.2+1640
 _ZN5nidas4core17SampleInputHeader13setSystemNameERKNSt7__cxx1112basic_stringIcSt11char_traitsIcESaIcEEE@Base 1.2+1640
 _ZN5nidas4core17SampleInputHeader14HEADER_BUF_LENE@Base 1.2+1640
 _ZN5nidas4core17SampleInputHeader14setDummyStringERKNSt7__cxx1112basic_stringIcSt11char_traitsIcESaIcEEE@Base 1.2+1640
 _ZN5nidas4core17SampleInputHeader14setProjectNameERKNSt7__cxx1112basic_stringIcSt11char_traitsIcESaIcEEE@Base 1.2+1640
 _ZN5nidas4core17SampleInputHeader16setConfigVersionERKNSt7__cxx1112basic_stringIcSt11char_traitsIcESaIcEEE@Base 1.2+1640
 _ZN5nidas4core17SampleInputHeader17setArchiveVersionERKNSt7__cxx1112basic_stringIcSt11char_traitsIcESaIcEEE@Base 1.2+1640
 _ZN5nidas4core17SampleInputHeader18setSoftwareVersionERKNSt7__cxx1112basic_stringIcSt11char_traitsIcESaIcEEE@Base 1.2+1640
 _ZN5nidas4core17SampleInputHeader4readEPNS0_8IOStreamE@Base 1.2+1640
 _ZN5nidas4core17SampleInputHeader5parseEPNS0_8IOStreamE@Base 1.2+1640
 _ZN5nidas4core17SampleInputHeader6_ntagsE@Base 1.2+1640
 _ZN5nidas4core17SampleInputHeader7_nmagicE@Base 1.2+1640
 _ZN5nidas4core17SampleInputHeader7headersE@Base 1.2+1640
 _ZN5nidas4core17SampleInputHeader8parseTagEPNS0_8IOStreamE@Base 1.2+1640
 _ZN5nidas4core17SampleInputHeaderC1ERKS1_@Base 1.2+1640
 _ZN5nidas4core17SampleInputHeaderC1Ev@Base 1.2+1640
 _ZN5nidas4core17SampleInputHeaderC2ERKS1_@Base 1.2+1640
 _ZN5nidas4core17SampleInputHeaderC2Ev@Base 1.2+1640
 _ZN5nidas4core17SampleInputHeaderD1Ev@Base 1.2+1640
 _ZN5nidas4core17SampleInputHeaderD2Ev@Base 1.2+1640
 _ZN5nidas4core17SampleInputHeaderaSERKS1_@Base 1.2+1640
 _ZN5nidas4core17SampleTagIterator7hasNextEv@Base 1.2+1640
 _ZN5nidas4core17SampleTagIteratorC1EPKNS0_12SampleSourceE@Base 1.2+1640
 _ZN5nidas4core17SampleTagIteratorC1EPKNS0_4SiteE@Base 1.2+1640
 _ZN5nidas4core17SampleTagIteratorC1EPKNS0_7ProjectE@Base 1.2+1640
 _ZN5nidas4core17SampleTagIteratorC1EPKNS0_9DSMConfigE@Base 1.2+1640
 _ZN5nidas4core17SampleTagIteratorC1EPKNS0_9DSMServerE@Base 1.2+1640
 _ZN5nidas4core17SampleTagIteratorC1Ev@Base 1.2+1640
 _ZN5nidas4core17SampleTagIteratorC2EPKNS0_12SampleSourceE@Base 1.2+1640
 _ZN5nidas4core17SampleTagIteratorC2EPKNS0_4SiteE@Base 1.2+1640
 _ZN5nidas4core17SampleTagIteratorC2EPKNS0_7ProjectE@Base 1.2+1640
 _ZN5nidas4core17SampleTagIteratorC2EPKNS0_9DSMConfigE@Base 1.2+1640
 _ZN5nidas4core17SampleTagIteratorC2EPKNS0_9DSMServerE@Base 1.2+1640
 _ZN5nidas4core17SampleTagIteratorC2Ev@Base 1.2+1640
 _ZN5nidas4core17TCPSocketIODevice4openEi@Base 1.2+1640
 _ZN5nidas4core17TCPSocketIODevice4readEPvj@Base 1.2+1640
 _ZN5nidas4core17TCPSocketIODevice4readEPvji@Base 1.2+1640
 _ZN5nidas4core17TCPSocketIODevice5closeEv@Base 1.2+1640
 _ZN5nidas4core17TCPSocketIODevice5writeEPKvj@Base 1.2+1640
 _ZN5nidas4core17TCPSocketIODeviceC1Ev@Base 1.2+1640
 _ZN5nidas4core17TCPSocketIODeviceC2Ev@Base 1.2+1640
 _ZN5nidas4core17TCPSocketIODeviceD0Ev@Base 1.2+1640
 _ZN5nidas4core17TCPSocketIODeviceD1Ev@Base 1.2+1640
 _ZN5nidas4core17TCPSocketIODeviceD2Ev@Base 1.2+1640
 _ZN5nidas4core17UDPSocketIODevice4openEi@Base 1.2+1640
 _ZN5nidas4core17UDPSocketIODevice4readEPvj@Base 1.2+1640
 _ZN5nidas4core17UDPSocketIODevice4readEPvji@Base 1.2+1640
 _ZN5nidas4core17UDPSocketIODevice5closeEv@Base 1.2+1640
 _ZN5nidas4core17UDPSocketIODevice5writeEPKvj@Base 1.2+1640
 _ZN5nidas4core17UDPSocketIODeviceC1Ev@Base 1.2+1640
 _ZN5nidas4core17UDPSocketIODeviceC2Ev@Base 1.2+1640
 _ZN5nidas4core17UDPSocketIODeviceD0Ev@Base 1.2+1640
 _ZN5nidas4core17UDPSocketIODeviceD1Ev@Base 1.2+1640
 _ZN5nidas4core17UDPSocketIODeviceD2Ev@Base 1.2+1640
 _ZN5nidas4core17VariableConverter10fromStringERKNSt7__cxx1112basic_stringIcSt11char_traitsIcESaIcEEE@Base 1.2+1640
 _ZN5nidas4core17VariableConverter10setCalFileEPNS0_7CalFileE@Base 1.2+1640
 _ZN5nidas4core17VariableConverter11readCalFileEx@Base 1.2+1640
 _ZN5nidas4core17VariableConverter12abortCalFileERKNSt7__cxx1112basic_stringIcSt11char_traitsIcESaIcEEE@Base 1.2+1640
 _ZN5nidas4core17VariableConverter12addParameterEPNS0_9ParameterE@Base 1.2+1640
 _ZN5nidas4core17VariableConverter14fromDOMElementEPKN11xercesc_3_210DOMElementE@Base 1.2+1640
 _ZN5nidas4core17VariableConverter16createFromStringERKNSt7__cxx1112basic_stringIcSt11char_traitsIcESaIcEEE@Base 1.2+1640
 _ZN5nidas4core17VariableConverter17setCalFileHandlerEPNS0_14CalFileHandlerE@Base 1.2+1640
 _ZN5nidas4core17VariableConverter23createVariableConverterERNS0_11XDOMElementE@Base 1.2+1640
 _ZN5nidas4core17VariableConverterC1ERKS1_@Base 1.2+1640
 _ZN5nidas4core17VariableConverterC1Ev@Base 1.2+1640
 _ZN5nidas4core17VariableConverterC2ERKS1_@Base 1.2+1640
 _ZN5nidas4core17VariableConverterC2Ev@Base 1.2+1640
 _ZN5nidas4core17VariableConverterD0Ev@Base 1.2+1640
 _ZN5nidas4core17VariableConverterD1Ev@Base 1.2+1640
 _ZN5nidas4core17VariableConverterD2Ev@Base 1.2+1640
 _ZN5nidas4core17VariableConverteraSERKS1_@Base 1.2+1640
 _ZN5nidas4core17XMLFdFormatTarget10writeCharsEPKhjPN11xercesc_3_212XMLFormatterE@Base 1.2+1640
 _ZN5nidas4core17XMLFdFormatTarget14insureCapacityEj@Base 1.2+1640
 _ZN5nidas4core17XMLFdFormatTarget5flushEv@Base 1.2+1640
 _ZN5nidas4core17XMLFdFormatTargetC1ERKNSt7__cxx1112basic_stringIcSt11char_traitsIcESaIcEEEi@Base 1.2+1640
 _ZN5nidas4core17XMLFdFormatTargetC2ERKNSt7__cxx1112basic_stringIcSt11char_traitsIcESaIcEEEi@Base 1.2+1640
 _ZN5nidas4core17XMLFdFormatTargetD0Ev@Base 1.2+1640
 _ZN5nidas4core17XMLFdFormatTargetD1Ev@Base 1.2+1640
 _ZN5nidas4core17XMLFdFormatTargetD2Ev@Base 1.2+1640
 _ZN5nidas4core17XMLImplementation17getImplementationEv@Base 1.2+1640
 _ZN5nidas4core17XMLImplementation5_implE@Base 1.2+1640
 _ZN5nidas4core17XMLImplementation5_lockE@Base 1.2+1640
 _ZN5nidas4core17XMLImplementation9terminateEv@Base 1.2+1640
 _ZN5nidas4core17printChronyHeaderERSo@Base 1.2+1640
 _ZN5nidas4core18AsciiSscanfAdapter10LexerInputEPci@Base 1.2+1640
 _ZN5nidas4core18AsciiSscanfAdapter5yylexEv@Base 1.2+1640
 _ZN5nidas4core18AsciiSscanfAdapterD0Ev@Base 1.2+1640
 _ZN5nidas4core18AsciiSscanfAdapterD1Ev@Base 1.2+1640
 _ZN5nidas4core18AsciiSscanfAdapterD2Ev@Base 1.2+1640
 _ZN5nidas4core18BadSampleFilterArg5parseERKSt6vectorINSt7__cxx1112basic_stringIcSt11char_traitsIcESaIcEEESaIS8_EEPi@Base 1.2+1640
 _ZN5nidas4core18BadSampleFilterArgC1Ev@Base 1.2+1640
 _ZN5nidas4core18BadSampleFilterArgC2Ev@Base 1.2+1640
 _ZN5nidas4core18BadSampleFilterArgD0Ev@Base 1.2+1640
 _ZN5nidas4core18BadSampleFilterArgD1Ev@Base 1.2+1640
 _ZN5nidas4core18BadSampleFilterArgD2Ev@Base 1.2+1640
 _ZN5nidas4core18DSMServiceIterator7hasNextEv@Base 1.2+1640
 _ZN5nidas4core18DSMServiceIteratorC1EPKNS0_4SiteE@Base 1.2+1640
 _ZN5nidas4core18DSMServiceIteratorC1EPKNS0_7ProjectE@Base 1.2+1640
 _ZN5nidas4core18DSMServiceIteratorC1EPKNS0_9DSMServerE@Base 1.2+1640
 _ZN5nidas4core18DSMServiceIteratorC1Ev@Base 1.2+1640
 _ZN5nidas4core18DSMServiceIteratorC2EPKNS0_4SiteE@Base 1.2+1640
 _ZN5nidas4core18DSMServiceIteratorC2EPKNS0_7ProjectE@Base 1.2+1640
 _ZN5nidas4core18DSMServiceIteratorC2EPKNS0_9DSMServerE@Base 1.2+1640
 _ZN5nidas4core18DSMServiceIteratorC2Ev@Base 1.2+1640
 _ZN5nidas4core18MultipleUDPSockets12removeClientEPNS_4util14DatagramSocketE@Base 1.2+1640
 _ZN5nidas4core18MultipleUDPSockets12removeClientERKNS_4util18Inet4SocketAddressE@Base 1.2+1640
 _ZN5nidas4core18MultipleUDPSockets14fromDOMElementEPKN11xercesc_3_210DOMElementE@Base 1.2+1640
 _ZN5nidas4core18MultipleUDPSockets20handleChangedSocketsEv@Base 1.2+1640
 _ZN5nidas4core18MultipleUDPSockets4readEPvj@Base 1.2+1640
 _ZN5nidas4core18MultipleUDPSockets5closeEv@Base 1.2+1640
 _ZN5nidas4core18MultipleUDPSockets5writeEPK5ioveci@Base 1.2+1640
 _ZN5nidas4core18MultipleUDPSockets5writeEPKvj@Base 1.2+1640
 _ZN5nidas4core18MultipleUDPSockets7connectEv@Base 1.2+1640
 _ZN5nidas4core18MultipleUDPSockets9addClientERKNS0_14ConnectionInfoE@Base 1.2+1640
 _ZN5nidas4core18MultipleUDPSockets9connectedEPNS_4util14DatagramSocketERKNS2_16Inet4PacketInfoXE@Base 1.2+1640
 _ZN5nidas4core18MultipleUDPSocketsC1ERKS1_@Base 1.2+1640
 _ZN5nidas4core18MultipleUDPSocketsC1Ev@Base 1.2+1640
 _ZN5nidas4core18MultipleUDPSocketsC2ERKS1_@Base 1.2+1640
 _ZN5nidas4core18MultipleUDPSocketsC2Ev@Base 1.2+1640
 _ZN5nidas4core18MultipleUDPSocketsD0Ev@Base 1.2+1640
 _ZN5nidas4core18MultipleUDPSocketsD1Ev@Base 1.2+1640
 _ZN5nidas4core18MultipleUDPSocketsD2Ev@Base 1.2+1640
 _ZN5nidas4core18SerialPortIODevice4openEi@Base 1.2+1640
 _ZN5nidas4core18SerialPortIODevice5writeEPKvj@Base 1.2+1640
 _ZN5nidas4core18SerialPortIODevice9setRTS485Ei@Base 1.2+1640
 _ZN5nidas4core18SerialPortIODeviceD0Ev@Base 1.2+1640
 _ZN5nidas4core18SerialPortIODeviceD1Ev@Base 1.2+1640
 _ZN5nidas4core18SerialPortIODeviceD2Ev@Base 1.2+1640
 _ZN5nidas4core18XMLStringConverterC1EPKDs@Base 1.2+1640
 _ZN5nidas4core18XMLStringConverterC2EPKDs@Base 1.2+1640
 _ZN5nidas4core18XMLStringConverterD1Ev@Base 1.2+1640
 _ZN5nidas4core18XMLStringConverterD2Ev@Base 1.2+1640
 _ZN5nidas4core18parseXMLConfigFileERKNSt7__cxx1112basic_stringIcSt11char_traitsIcESaIcEEE@Base 1.2+1640
 _ZN5nidas4core18printChronyTrailerERSo@Base 1.2+1640
 _ZN5nidas4core19DriverSampleScanner10nextSampleEPNS0_9DSMSensorE@Base 1.2+1640
 _ZN5nidas4core19DriverSampleScanner20setMessageParametersEjRKNSt7__cxx1112basic_stringIcSt11char_traitsIcESaIcEEEb@Base 1.2+1640
 _ZN5nidas4core19DriverSampleScannerC1Ei@Base 1.2+1640
 _ZN5nidas4core19DriverSampleScannerC2Ei@Base 1.2+1640
 _ZN5nidas4core19DriverSampleScannerD0Ev@Base 1.2+1640
 _ZN5nidas4core19DriverSampleScannerD1Ev@Base 1.2+1640
 _ZN5nidas4core19DriverSampleScannerD2Ev@Base 1.2+1640
 _ZN5nidas4core19FsMountWorkerThread3runEv@Base 1.2+1640
 _ZN5nidas4core19FsMountWorkerThreadC1EPNS0_7FsMountE@Base 1.2+1640
 _ZN5nidas4core19FsMountWorkerThreadC2EPNS0_7FsMountE@Base 1.2+1640
 _ZN5nidas4core19FsMountWorkerThreadD0Ev@Base 1.2+1640
 _ZN5nidas4core19FsMountWorkerThreadD1Ev@Base 1.2+1640
 _ZN5nidas4core19FsMountWorkerThreadD2Ev@Base 1.2+1640
 _ZN5nidas4core19SampleSourceSupport10distributeEPKNS0_6SampleE@Base 1.2+1640
 _ZN5nidas4core19SampleSourceSupport10distributeERKNSt7__cxx114listIPKNS0_6SampleESaIS6_EEE@Base 1.2+1640
 _ZN5nidas4core19SampleSourceSupport12addSampleTagEPKNS0_9SampleTagE@Base 1.2+1640
 _ZN5nidas4core19SampleSourceSupport15addSampleClientEPNS0_12SampleClientE@Base 1.2+1640
 _ZN5nidas4core19SampleSourceSupport15removeSampleTagEPKNS0_9SampleTagE@Base 1.2+1640
 _ZN5nidas4core19SampleSourceSupport18getRawSampleSourceEv@Base 1.2+1640
 _ZN5nidas4core19SampleSourceSupport18removeSampleClientEPNS0_12SampleClientE@Base 1.2+1640
 _ZN5nidas4core19SampleSourceSupport21addSampleClientForTagEPNS0_12SampleClientEPKNS0_9SampleTagE@Base 1.2+1640
 _ZN5nidas4core19SampleSourceSupport24getProcessedSampleSourceEv@Base 1.2+1640
 _ZN5nidas4core19SampleSourceSupport24removeSampleClientForTagEPNS0_12SampleClientEPKNS0_9SampleTagE@Base 1.2+1640
 _ZN5nidas4core19SampleSourceSupport5flushEv@Base 1.2+1640
 _ZN5nidas4core19SampleSourceSupportC1ERKS1_@Base 1.2+1640
 _ZN5nidas4core19SampleSourceSupportC1Eb@Base 1.2+1640
 _ZN5nidas4core19SampleSourceSupportC2ERKS1_@Base 1.2+1640
 _ZN5nidas4core19SampleSourceSupportC2Eb@Base 1.2+1640
 _ZN5nidas4core19SampleSourceSupportD0Ev@Base 1.2+1640
 _ZN5nidas4core19SampleSourceSupportD1Ev@Base 1.2+1640
 _ZN5nidas4core19SampleSourceSupportD2Ev@Base 1.2+1640
 _ZN5nidas4core19XMLFdBinInputStream9readBytesEPhj@Base 1.2+1640
 _ZN5nidas4core19XMLFdBinInputStreamD0Ev@Base 1.2+1640
 _ZN5nidas4core19XMLFdBinInputStreamD1Ev@Base 1.2+1640
 _ZN5nidas4core19XMLFdBinInputStreamD2Ev@Base 1.2+1640
 _ZN5nidas4core20MessageSampleScanner20setMessageParametersEjRKNSt7__cxx1112basic_stringIcSt11char_traitsIcESaIcEEEb@Base 1.2+1640
 _ZN5nidas4core20MessageSampleScannerC1Ei@Base 1.2+1640
 _ZN5nidas4core20MessageSampleScannerC2Ei@Base 1.2+1640
 _ZN5nidas4core20MessageSampleScannerD0Ev@Base 1.2+1640
 _ZN5nidas4core20MessageSampleScannerD1Ev@Base 1.2+1640
 _ZN5nidas4core20MessageSampleScannerD2Ev@Base 1.2+1640
 _ZN5nidas4core20MessageStreamScanner10nextSampleEPNS0_9DSMSensorE@Base 1.2+1640
 _ZN5nidas4core20MessageStreamScanner10readBufferEPNS0_9DSMSensorERb@Base 1.2+1640
 _ZN5nidas4core20MessageStreamScanner10readBufferEPNS0_9DSMSensorERbi@Base 1.2+1640
 _ZN5nidas4core20MessageStreamScanner16nextSampleSepBOMEPNS0_9DSMSensorE@Base 1.2+1640
 _ZN5nidas4core20MessageStreamScanner16nextSampleSepEOMEPNS0_9DSMSensorE@Base 1.2+1640
 _ZN5nidas4core20MessageStreamScanner18nextSampleByLengthEPNS0_9DSMSensorE@Base 1.2+1640
 _ZN5nidas4core20MessageStreamScanner18warnNonIncrTimeTagEPKNS0_9DSMSensorExxj@Base 1.2+1640
 _ZN5nidas4core20MessageStreamScanner19requestBiggerSampleEj@Base 1.2+1640
 _ZN5nidas4core20MessageStreamScanner20setMessageParametersEjRKNSt7__cxx1112basic_stringIcSt11char_traitsIcESaIcEEEb@Base 1.2+1640
 _ZN5nidas4core20MessageStreamScanner24warnBackwardsStepTimeTagEPKNS0_9DSMSensorExj@Base 1.2+1640
 _ZN5nidas4core20MessageStreamScannerC1Ei@Base 1.2+1640
 _ZN5nidas4core20MessageStreamScannerC2Ei@Base 1.2+1640
 _ZN5nidas4core20MessageStreamScannerD0Ev@Base 1.2+1640
 _ZN5nidas4core20MessageStreamScannerD1Ev@Base 1.2+1640
 _ZN5nidas4core20MessageStreamScannerD2Ev@Base 1.2+1640
 _ZN5nidas4core20RemoteSerialListener16handlePollEventsEj@Base 1.2+1640
 _ZN5nidas4core20RemoteSerialListener5closeEv@Base 1.2+1640
 _ZN5nidas4core20RemoteSerialListenerC1EtPNS0_13SensorHandlerE@Base 1.2+1640
 _ZN5nidas4core20RemoteSerialListenerC2EtPNS0_13SensorHandlerE@Base 1.2+1640
 _ZN5nidas4core20RemoteSerialListenerD0Ev@Base 1.2+1640
 _ZN5nidas4core20RemoteSerialListenerD1Ev@Base 1.2+1640
 _ZN5nidas4core20RemoteSerialListenerD2Ev@Base 1.2+1640
 _ZN5nidas4core20ServerSocketIODevice17closeServerSocketEv@Base 1.2+1640
 _ZN5nidas4core20ServerSocketIODevice4openEi@Base 1.2+1640
 _ZN5nidas4core20ServerSocketIODevice4readEPvj@Base 1.2+1640
 _ZN5nidas4core20ServerSocketIODevice4readEPvji@Base 1.2+1640
 _ZN5nidas4core20ServerSocketIODevice5closeEv@Base 1.2+1640
 _ZN5nidas4core20ServerSocketIODevice5ioctlEiPvj@Base 1.2+1640
 _ZN5nidas4core20ServerSocketIODevice5writeEPKvj@Base 1.2+1640
 _ZN5nidas4core20ServerSocketIODeviceC1Ev@Base 1.2+1640
 _ZN5nidas4core20ServerSocketIODeviceC2Ev@Base 1.2+1640
 _ZN5nidas4core20ServerSocketIODeviceD0Ev@Base 1.2+1640
 _ZN5nidas4core20ServerSocketIODeviceD1Ev@Base 1.2+1640
 _ZN5nidas4core20ServerSocketIODeviceD2Ev@Base 1.2+1640
 _ZN5nidas4core21DatagramSampleScanner10nextSampleEPNS0_9DSMSensorE@Base 1.2+1640
 _ZN5nidas4core21DatagramSampleScanner10readBufferEPNS0_9DSMSensorERb@Base 1.2+1640
 _ZN5nidas4core21DatagramSampleScanner20setMessageParametersEjRKNSt7__cxx1112basic_stringIcSt11char_traitsIcESaIcEEEb@Base 1.2+1640
 _ZN5nidas4core21DatagramSampleScannerC1Ei@Base 1.2+1640
 _ZN5nidas4core21DatagramSampleScannerC2Ei@Base 1.2+1640
 _ZN5nidas4core21DatagramSampleScannerD0Ev@Base 1.2+1640
 _ZN5nidas4core21DatagramSampleScannerD1Ev@Base 1.2+1640
 _ZN5nidas4core21DatagramSampleScannerD2Ev@Base 1.2+1640
 _ZN5nidas4core21NidasAppInputFilesArg11updateUsageEv@Base 1.2+1640
 _ZN5nidas4core21NidasAppInputFilesArgD0Ev@Base 1.2+1640
 _ZN5nidas4core21NidasAppInputFilesArgD1Ev@Base 1.2+1640
 _ZN5nidas4core21NidasAppInputFilesArgD2Ev@Base 1.2+1640
 _ZN5nidas4core21SampleLengthExceptionC1ERKNSt7__cxx1112basic_stringIcSt11char_traitsIcESaIcEEEjj@Base 1.2+1640
 _ZN5nidas4core21SampleLengthExceptionC2ERKNSt7__cxx1112basic_stringIcSt11char_traitsIcESaIcEEEjj@Base 1.2+1640
 _ZN5nidas4core21SampleLengthExceptionD0Ev@Base 1.2+1640
 _ZN5nidas4core21SampleLengthExceptionD1Ev@Base 1.2+1640
 _ZN5nidas4core21SampleLengthExceptionD2Ev@Base 1.2+1640
 _ZN5nidas4core21XMLConfigWriterFilter13setWhatToShowEm@Base 1.2+1640
 _ZN5nidas4core21XMLConfigWriterFilterC1EPKNS0_9DSMConfigE@Base 1.2+1640
 _ZN5nidas4core21XMLConfigWriterFilterC2EPKNS0_9DSMConfigE@Base 1.2+1640
 _ZN5nidas4core21XMLConfigWriterFilterD0Ev@Base 1.2+1640
 _ZN5nidas4core21XMLConfigWriterFilterD1Ev@Base 1.2+1640
 _ZN5nidas4core21XMLConfigWriterFilterD2Ev@Base 1.2+1640
 _ZN5nidas4core22NearestResamplerAtRate10ctorCommonERKSt6vectorIPKNS0_8VariableESaIS5_EEb@Base 1.2+1640
 _ZN5nidas4core22NearestResamplerAtRate10disconnectEPNS0_12SampleSourceE@Base 1.2+1640
 _ZN5nidas4core22NearestResamplerAtRate10sendSampleEx@Base 1.2+1640
 _ZN5nidas4core22NearestResamplerAtRate12addSampleTagEPKNS0_9SampleTagE@Base 1.2+1640
 _ZN5nidas4core22NearestResamplerAtRate15addSampleClientEPNS0_12SampleClientE@Base 1.2+1640
 _ZN5nidas4core22NearestResamplerAtRate15removeSampleTagEPKNS0_9SampleTagE@Base 1.2+1640
 _ZN5nidas4core22NearestResamplerAtRate18getRawSampleSourceEv@Base 1.2+1640
 _ZN5nidas4core22NearestResamplerAtRate18removeSampleClientEPNS0_12SampleClientE@Base 1.2+1640
 _ZN5nidas4core22NearestResamplerAtRate21addSampleClientForTagEPNS0_12SampleClientEPKNS0_9SampleTagE@Base 1.2+1640
 _ZN5nidas4core22NearestResamplerAtRate24getProcessedSampleSourceEv@Base 1.2+1640
 _ZN5nidas4core22NearestResamplerAtRate24removeSampleClientForTagEPNS0_12SampleClientEPKNS0_9SampleTagE@Base 1.2+1640
 _ZN5nidas4core22NearestResamplerAtRate5flushEv@Base 1.2+1640
 _ZN5nidas4core22NearestResamplerAtRate7connectEPNS0_12SampleSourceE@Base 1.2+1640
 _ZN5nidas4core22NearestResamplerAtRate7receiveEPKNS0_6SampleE@Base 1.2+1640
 _ZN5nidas4core22NearestResamplerAtRate7setRateEd@Base 1.2+1640
 _ZN5nidas4core22NearestResamplerAtRateC1ERKSt6vectorIPKNS0_8VariableESaIS5_EEb@Base 1.2+1640
 _ZN5nidas4core22NearestResamplerAtRateC1ERKSt6vectorIPNS0_8VariableESaIS4_EEb@Base 1.2+1640
 _ZN5nidas4core22NearestResamplerAtRateC2ERKSt6vectorIPKNS0_8VariableESaIS5_EEb@Base 1.2+1640
 _ZN5nidas4core22NearestResamplerAtRateC2ERKSt6vectorIPNS0_8VariableESaIS4_EEb@Base 1.2+1640
 _ZN5nidas4core22NearestResamplerAtRateD0Ev@Base 1.2+1640
 _ZN5nidas4core22NearestResamplerAtRateD1Ev@Base 1.2+1640
 _ZN5nidas4core22NearestResamplerAtRateD2Ev@Base 1.2+1640
 _ZN5nidas4core22RemoteSerialConnection14readSensorNameEv@Base 1.2+1640
 _ZN5nidas4core22RemoteSerialConnection14sensorNotFoundEv@Base 1.2+1640
 _ZN5nidas4core22RemoteSerialConnection16handlePollEventsEj@Base 1.2+1640
 _ZN5nidas4core22RemoteSerialConnection5closeEv@Base 1.2+1640
 _ZN5nidas4core22RemoteSerialConnection5flushEv@Base 1.2+1640
 _ZN5nidas4core22RemoteSerialConnection7receiveEPKNS0_6SampleE@Base 1.2+1640
 _ZN5nidas4core22RemoteSerialConnection8nlTocrnlERNSt7__cxx1112basic_stringIcSt11char_traitsIcESaIcEEE@Base 1.2+1640
 _ZN5nidas4core22RemoteSerialConnection9doEscCmdsERKNSt7__cxx1112basic_stringIcSt11char_traitsIcESaIcEEE@Base 1.2+1640
 _ZN5nidas4core22RemoteSerialConnection9setSensorEPNS0_15CharacterSensorE@Base 1.2+1640
 _ZN5nidas4core22RemoteSerialConnectionC1EPNS_4util6SocketEPNS0_13SensorHandlerE@Base 1.2+1640
 _ZN5nidas4core22RemoteSerialConnectionC2EPNS_4util6SocketEPNS0_13SensorHandlerE@Base 1.2+1640
 _ZN5nidas4core22RemoteSerialConnectionD0Ev@Base 1.2+1640
 _ZN5nidas4core22RemoteSerialConnectionD1Ev@Base 1.2+1640
 _ZN5nidas4core22RemoteSerialConnectionD2Ev@Base 1.2+1640
 _ZN5nidas4core25SampleOutputRequestThread11getInstanceEv@Base 1.2+1640
 _ZN5nidas4core25SampleOutputRequestThread13_instanceLockE@Base 1.2+1640
 _ZN5nidas4core25SampleOutputRequestThread15destroyInstanceEv@Base 1.2+1640
 _ZN5nidas4core25SampleOutputRequestThread16addDeleteRequestEPNS0_12SampleOutputE@Base 1.2+1640
 _ZN5nidas4core25SampleOutputRequestThread17addConnectRequestEPNS0_12SampleOutputEPNS0_25SampleConnectionRequesterEi@Base 1.2+1640
 _ZN5nidas4core25SampleOutputRequestThread3runEv@Base 1.2+1640
 _ZN5nidas4core25SampleOutputRequestThread5clearEv@Base 1.2+1640
 _ZN5nidas4core25SampleOutputRequestThread9_instanceE@Base 1.2+1640
 _ZN5nidas4core25SampleOutputRequestThread9interruptEv@Base 1.2+1640
 _ZN5nidas4core25SampleOutputRequestThreadC1Ev@Base 1.2+1640
 _ZN5nidas4core25SampleOutputRequestThreadC2Ev@Base 1.2+1640
 _ZN5nidas4core25SampleOutputRequestThreadD0Ev@Base 1.2+1640
 _ZN5nidas4core25SampleOutputRequestThreadD1Ev@Base 1.2+1640
 _ZN5nidas4core25SampleOutputRequestThreadD2Ev@Base 1.2+1640
 _ZN5nidas4core29BluetoothRFCommSocketIODevice4openEi@Base 1.2+1640
 _ZN5nidas4core29BluetoothRFCommSocketIODevice4readEPvj@Base 1.2+1640
 _ZN5nidas4core29BluetoothRFCommSocketIODevice4readEPvji@Base 1.2+1640
 _ZN5nidas4core29BluetoothRFCommSocketIODevice5closeEv@Base 1.2+1640
 _ZN5nidas4core29BluetoothRFCommSocketIODevice5writeEPKvj@Base 1.2+1640
 _ZN5nidas4core29BluetoothRFCommSocketIODeviceC1Ev@Base 1.2+1640
 _ZN5nidas4core29BluetoothRFCommSocketIODeviceC2Ev@Base 1.2+1640
 _ZN5nidas4core29BluetoothRFCommSocketIODeviceD0Ev@Base 1.2+1640
 _ZN5nidas4core29BluetoothRFCommSocketIODeviceD1Ev@Base 1.2+1640
 _ZN5nidas4core29BluetoothRFCommSocketIODeviceD2Ev@Base 1.2+1640
 _ZN5nidas4core4Site11initSensorsEPNS0_9DSMConfigE@Base 1.2+1640
 _ZN5nidas4core4Site11initSensorsEv@Base 1.2+1640
 _ZN5nidas4core4Site12MyDictionaryD0Ev@Base 1.2+1640
 _ZN5nidas4core4Site12MyDictionaryD1Ev@Base 1.2+1640
 _ZN5nidas4core4Site12MyDictionaryD2Ev@Base 1.2+1640
 _ZN5nidas4core4Site12addParameterEPNS0_9ParameterE@Base 1.2+1640
 _ZN5nidas4core4Site14fromDOMElementEPKN11xercesc_3_210DOMElementE@Base 1.2+1640
 _ZN5nidas4core4Site8validateEv@Base 1.2+1640
 _ZN5nidas4core4SiteC1Ev@Base 1.2+1640
 _ZN5nidas4core4SiteC2Ev@Base 1.2+1640
 _ZN5nidas4core4SiteD0Ev@Base 1.2+1640
 _ZN5nidas4core4SiteD1Ev@Base 1.2+1640
 _ZN5nidas4core4SiteD2Ev@Base 1.2+1640
 _ZN5nidas4core6Linear10fromStringERKNSt7__cxx1112basic_stringIcSt11char_traitsIcESaIcEEE@Base 1.2+1640
 _ZN5nidas4core6Linear11parseFieldsEPNS0_7CalFileE@Base 1.2+1640
 _ZN5nidas4core6Linear14fromDOMElementEPKN11xercesc_3_210DOMElementE@Base 1.2+1640
 _ZN5nidas4core6Linear5resetEv@Base 1.2+1640
 _ZN5nidas4core6Linear7convertExd@Base 1.2+1640
 _ZN5nidas4core6LinearC1Ev@Base 1.2+1640
 _ZN5nidas4core6LinearC2Ev@Base 1.2+1640
 _ZN5nidas4core6LinearD0Ev@Base 1.2+1640
 _ZN5nidas4core6LinearD1Ev@Base 1.2+1640
 _ZN5nidas4core6LinearD2Ev@Base 1.2+1640
 _ZN5nidas4core6Looper12removeClientEPNS0_12LooperClientE@Base 1.2+1640
 _ZN5nidas4core6Looper15setupClientMapsEv@Base 1.2+1640
 _ZN5nidas4core6Looper3gcdEjj@Base 1.2+1640
 _ZN5nidas4core6Looper3runEv@Base 1.2+1640
 _ZN5nidas4core6Looper9addClientEPNS0_12LooperClientEjj@Base 1.2+1640
 _ZN5nidas4core6LooperC1Ev@Base 1.2+1640
 _ZN5nidas4core6LooperC2Ev@Base 1.2+1640
 _ZN5nidas4core6LooperD0Ev@Base 1.2+1640
 _ZN5nidas4core6LooperD1Ev@Base 1.2+1640
 _ZN5nidas4core6LooperD2Ev@Base 1.2+1640
 _ZN5nidas4core6Sample7_nsampsE@Base 1.2+1640
 _ZN5nidas4core6Socket12createSocketEPKN11xercesc_3_210DOMElementE@Base 1.2+1640
 _ZN5nidas4core6Socket14fromDOMElementEPKN11xercesc_3_210DOMElementE@Base 1.2+1640
 _ZN5nidas4core6Socket14setNonBlockingEb@Base 1.2+1640
 _ZN5nidas4core6Socket14setRequestTypeENS0_15McSocketRequestE@Base 1.2+1640
 _ZN5nidas4core6Socket16ConnectionThread3runEv@Base 1.2+1640
 _ZN5nidas4core6Socket16ConnectionThread9interruptEv@Base 1.2+1640
 _ZN5nidas4core6Socket16ConnectionThreadC1EPS1_@Base 1.2+1640
 _ZN5nidas4core6Socket16ConnectionThreadC2EPS1_@Base 1.2+1640
 _ZN5nidas4core6Socket16ConnectionThreadD0Ev@Base 1.2+1640
 _ZN5nidas4core6Socket16ConnectionThreadD1Ev@Base 1.2+1640
 _ZN5nidas4core6Socket16ConnectionThreadD2Ev@Base 1.2+1640
 _ZN5nidas4core6Socket17requestConnectionEPNS0_18IOChannelRequesterE@Base 1.2+1640
 _ZN5nidas4core6Socket17setRemoteHostPortERKNSt7__cxx1112basic_stringIcSt11char_traitsIcESaIcEEEt@Base 1.2+1640
 _ZN5nidas4core6Socket17setRemoteUnixPathERKNSt7__cxx1112basic_stringIcSt11char_traitsIcESaIcEEE@Base 1.2+1640
 _ZN5nidas4core6Socket21getRemoteInet4AddressEv@Base 1.2+1640
 _ZN5nidas4core6Socket22getRemoteSocketAddressEv@Base 1.2+1640
 _ZN5nidas4core6Socket22setRemoteSocketAddressERKNS_4util13SocketAddressE@Base 1.2+1640
 _ZN5nidas4core6Socket4readEPvj@Base 1.2+1640
 _ZN5nidas4core6Socket5closeEv@Base 1.2+1640
 _ZN5nidas4core6Socket5writeEPK5ioveci@Base 1.2+1640
 _ZN5nidas4core6Socket5writeEPKvj@Base 1.2+1640
 _ZN5nidas4core6Socket7connectEv@Base 1.2+1640
 _ZN5nidas4core6Socket7setNameERKNSt7__cxx1112basic_stringIcSt11char_traitsIcESaIcEEE@Base 1.2+1640
 _ZN5nidas4core6SocketC1EPNS_4util6SocketE@Base 1.2+1640
 _ZN5nidas4core6SocketC1ERKS1_@Base 1.2+1640
 _ZN5nidas4core6SocketC1Ev@Base 1.2+1640
 _ZN5nidas4core6SocketC2EPNS_4util6SocketE@Base 1.2+1640
 _ZN5nidas4core6SocketC2ERKS1_@Base 1.2+1640
 _ZN5nidas4core6SocketC2Ev@Base 1.2+1640
 _ZN5nidas4core6SocketD0Ev@Base 1.2+1640
 _ZN5nidas4core6SocketD1Ev@Base 1.2+1640
 _ZN5nidas4core6SocketD2Ev@Base 1.2+1640
 _ZN5nidas4core7CalFile10compileREsEv@Base 1.2+1640
 _ZN5nidas4core7CalFile11_reCompiledE@Base 1.2+1640
 _ZN5nidas4core7CalFile11openIncludeERKNSt7__cxx1112basic_stringIcSt11char_traitsIcESaIcEEE@Base 1.2+1640
 _ZN5nidas4core7CalFile11setTimeZoneERKNSt7__cxx1112basic_stringIcSt11char_traitsIcESaIcEEE@Base 1.2+1640
 _ZN5nidas4core7CalFile12_includePregE@Base 1.2+1640
 _ZN5nidas4core7CalFile12_staticMutexE@Base 1.2+1640
 _ZN5nidas4core7CalFile12parseIncludeEv@Base 1.2+1640
 _ZN5nidas4core7CalFile12readCFNoLockERNS_4util5UTimeEPfiPSt6vectorINSt7__cxx1112basic_stringIcSt11char_traitsIcESaIcEEESaISC_EE@Base 1.2+1640
 _ZN5nidas4core7CalFile12setDSMSensorEPKNS0_9DSMSensorE@Base 1.2+1640
 _ZN5nidas4core7CalFile13_timeZonePregE@Base 1.2+1640
 _ZN5nidas4core7CalFile13getFloatFieldEiPKSt6vectorINSt7__cxx1112basic_stringIcSt11char_traitsIcESaIcEEESaIS8_EE@Base 1.2+1640
 _ZN5nidas4core7CalFile13readCFIncludeERNS_4util5UTimeEPfiPSt6vectorINSt7__cxx1112basic_stringIcSt11char_traitsIcESaIcEEESaISC_EE@Base 1.2+1640
 _ZN5nidas4core7CalFile14fromDOMElementEPKN11xercesc_3_210DOMElementE@Base 1.2+1640
 _ZN5nidas4core7CalFile15_dateFormatPregE@Base 1.2+1640
 _ZN5nidas4core7CalFile16getCurrentFieldsB5cxx11EPNS_4util5UTimeE@Base 1.2+1640
 _ZN5nidas4core7CalFile17parseTimeCommentsEv@Base 1.2+1640
 _ZN5nidas4core7CalFile17setDateTimeFormatERKNSt7__cxx1112basic_stringIcSt11char_traitsIcESaIcEEE@Base 1.2+1640
 _ZN5nidas4core7CalFile4openEv@Base 1.2+1640
 _ZN5nidas4core7CalFile5closeEv@Base 1.2+1640
 _ZN5nidas4core7CalFile6readCFERNS_4util5UTimeEPfiPSt6vectorINSt7__cxx1112basic_stringIcSt11char_traitsIcESaIcEEESaISC_EE@Base 1.2+1640
 _ZN5nidas4core7CalFile6searchERKNS_4util5UTimeE@Base 1.2+1640
 _ZN5nidas4core7CalFile7freeREsEv@Base 1.2+1640
 _ZN5nidas4core7CalFile7setFileERKNSt7__cxx1112basic_stringIcSt11char_traitsIcESaIcEEE@Base 1.2+1640
 _ZN5nidas4core7CalFile7setPathERKNSt7__cxx1112basic_stringIcSt11char_traitsIcESaIcEEE@Base 1.2+1640
 _ZN5nidas4core7CalFile8_reUsersE@Base 1.2+1640
 _ZN5nidas4core7CalFile8readLineEv@Base 1.2+1640
 _ZN5nidas4core7CalFile8readTimeEv@Base 1.2+1640
 _ZN5nidas4core7CalFile9_allPathsB5cxx11E@Base 1.2+1640
 _ZN5nidas4core7CalFile9getFieldsEiiPfPKSt6vectorINSt7__cxx1112basic_stringIcSt11char_traitsIcESaIcEEESaIS9_EE@Base 1.2+1640
 _ZN5nidas4core7CalFile9parseTimeEv@Base 1.2+1640
 _ZN5nidas4core7CalFileC1ERKS1_@Base 1.2+1640
 _ZN5nidas4core7CalFileC1Ev@Base 1.2+1640
 _ZN5nidas4core7CalFileC2ERKS1_@Base 1.2+1640
 _ZN5nidas4core7CalFileC2Ev@Base 1.2+1640
 _ZN5nidas4core7CalFileD0Ev@Base 1.2+1640
 _ZN5nidas4core7CalFileD1Ev@Base 1.2+1640
 _ZN5nidas4core7CalFileD2Ev@Base 1.2+1640
 _ZN5nidas4core7CalFileaSERKS1_@Base 1.2+1640
 _ZN5nidas4core7DOMable12namespaceURIE@Base 1.2+1640
 _ZN5nidas4core7Dataset14fromDOMElementEPKN11xercesc_3_210DOMElementE@Base 1.2+1640
 _ZN5nidas4core7Dataset22addEnvironmentVariableERKNSt7__cxx1112basic_stringIcSt11char_traitsIcESaIcEEES9_@Base 1.2+1640
 _ZN5nidas4core7DatasetC1Ev@Base 1.2+1640
 _ZN5nidas4core7DatasetC2Ev@Base 1.2+1640
 _ZN5nidas4core7FileSet10createFileExb@Base 1.2+1640
 _ZN5nidas4core7FileSet10getFileSetERKNSt7__cxx114listINS2_12basic_stringIcSt11char_traitsIcESaIcEEESaIS8_EEE@Base 1.2+1640
 _ZN5nidas4core7FileSet11setFileNameERKNSt7__cxx1112basic_stringIcSt11char_traitsIcESaIcEEE@Base 1.2+1640
 _ZN5nidas4core7FileSet14fromDOMElementEPKN11xercesc_3_210DOMElementE@Base 1.2+1640
 _ZN5nidas4core7FileSet14setNonBlockingEb@Base 1.2+1640
 _ZN5nidas4core7FileSet17requestConnectionEPNS0_18IOChannelRequesterE@Base 1.2+1640
 _ZN5nidas4core7FileSet4readEPvj@Base 1.2+1640
 _ZN5nidas4core7FileSet5closeEv@Base 1.2+1640
 _ZN5nidas4core7FileSet5writeEPK5ioveci@Base 1.2+1640
 _ZN5nidas4core7FileSet5writeEPKvj@Base 1.2+1640
 _ZN5nidas4core7FileSet6setDirERKNSt7__cxx1112basic_stringIcSt11char_traitsIcESaIcEEE@Base 1.2+1640
 _ZN5nidas4core7FileSet7connectEv@Base 1.2+1640
 _ZN5nidas4core7FileSet7mountedEv@Base 1.2+1640
 _ZN5nidas4core7FileSet7setNameERKNSt7__cxx1112basic_stringIcSt11char_traitsIcESaIcEEE@Base 1.2+1640
 _ZN5nidas4core7FileSetC1EPNS_4util7FileSetE@Base 1.2+1640
 _ZN5nidas4core7FileSetC1ERKS1_@Base 1.2+1640
 _ZN5nidas4core7FileSetC1Ev@Base 1.2+1640
 _ZN5nidas4core7FileSetC2EPNS_4util7FileSetE@Base 1.2+1640
 _ZN5nidas4core7FileSetC2ERKS1_@Base 1.2+1640
 _ZN5nidas4core7FileSetC2Ev@Base 1.2+1640
 _ZN5nidas4core7FileSetD0Ev@Base 1.2+1640
 _ZN5nidas4core7FileSetD1Ev@Base 1.2+1640
 _ZN5nidas4core7FileSetD2Ev@Base 1.2+1640
 _ZN5nidas4core7FsMount14fromDOMElementEPKN11xercesc_3_210DOMElementE@Base 1.2+1640
 _ZN5nidas4core7FsMount5mountEPNS0_7FileSetE@Base 1.2+1640
 _ZN5nidas4core7FsMount5mountEv@Base 1.2+1640
 _ZN5nidas4core7FsMount6cancelEv@Base 1.2+1640
 _ZN5nidas4core7FsMount6setDirERKNSt7__cxx1112basic_stringIcSt11char_traitsIcESaIcEEE@Base 1.2+1640
 _ZN5nidas4core7FsMount7unmountEv@Base 1.2+1640
 _ZN5nidas4core7FsMount8finishedEv@Base 1.2+1640
 _ZN5nidas4core7FsMount9autoMountEv@Base 1.2+1640
 _ZN5nidas4core7FsMount9isMountedEv@Base 1.2+1640
 _ZN5nidas4core7FsMount9setDeviceERKNSt7__cxx1112basic_stringIcSt11char_traitsIcESaIcEEE@Base 1.2+1640
 _ZN5nidas4core7FsMountC1ERKS1_@Base 1.2+1640
 _ZN5nidas4core7FsMountC1Ev@Base 1.2+1640
 _ZN5nidas4core7FsMountC2ERKS1_@Base 1.2+1640
 _ZN5nidas4core7FsMountC2Ev@Base 1.2+1640
 _ZN5nidas4core7FsMountD0Ev@Base 1.2+1640
 _ZN5nidas4core7FsMountD1Ev@Base 1.2+1640
 _ZN5nidas4core7FsMountD2Ev@Base 1.2+1640
 _ZN5nidas4core7FsMountaSERKS1_@Base 1.2+1640
 _ZN5nidas4core7Project11getInstanceEv@Base 1.2+1640
 _ZN5nidas4core7Project11initSensorsEPNS0_4SiteE@Base 1.2+1640
 _ZN5nidas4core7Project11initSensorsEPNS0_9DSMConfigE@Base 1.2+1640
 _ZN5nidas4core7Project11initSensorsEv@Base 1.2+1640
 _ZN5nidas4core7Project12MyDictionaryD0Ev@Base 1.2+1640
 _ZN5nidas4core7Project12MyDictionaryD1Ev@Base 1.2+1640
 _ZN5nidas4core7Project12MyDictionaryD2Ev@Base 1.2+1640
 _ZN5nidas4core7Project14fromDOMElementEPKN11xercesc_3_210DOMElementE@Base 1.2+1640
 _ZN5nidas4core7Project15destroyInstanceEv@Base 1.2+1640
 _ZN5nidas4core7Project16removeAutoConfigEPN11xercesc_3_27DOMNodeEb@Base 1.2+1640
 _ZN5nidas4core7Project17getUniqueSampleIdEj@Base 1.2+1640
 _ZN5nidas4core7Project18parseXMLConfigFileERKNSt7__cxx1112basic_stringIcSt11char_traitsIcESaIcEEE@Base 1.2+1640
 _ZN5nidas4core7Project19findDSMFromHostnameERKNSt7__cxx1112basic_stringIcSt11char_traitsIcESaIcEEE@Base 1.2+1640
 _ZN5nidas4core7Project7addSiteEPNS0_4SiteE@Base 1.2+1640
 _ZN5nidas4core7Project9_instanceE@Base 1.2+1640
 _ZN5nidas4core7ProjectC1Ev@Base 1.2+1640
 _ZN5nidas4core7ProjectC2Ev@Base 1.2+1640
 _ZN5nidas4core7ProjectD0Ev@Base 1.2+1640
 _ZN5nidas4core7ProjectD1Ev@Base 1.2+1640
 _ZN5nidas4core7ProjectD2Ev@Base 1.2+1640
 _ZN5nidas4core7SampleTIcE12allocateDataEj@Base 1.2+1640
 _ZN5nidas4core7SampleTIcE12setDataValueEjd@Base 1.2+1640
 _ZN5nidas4core7SampleTIcE12setDataValueEjf@Base 1.2+1640
 _ZN5nidas4core7SampleTIcE13setDataLengthEj@Base 1.2+1640
 _ZN5nidas4core7SampleTIcE14getVoidDataPtrEv@Base 1.2+1640
 _ZN5nidas4core7SampleTIcE14reallocateDataEj@Base 1.2+1640
 _ZN5nidas4core7SampleTIcED0Ev@Base 1.2+1640
 _ZN5nidas4core7SampleTIcED1Ev@Base 1.2+1640
 _ZN5nidas4core7SampleTIcED2Ev@Base 1.2+1640
 _ZN5nidas4core7SampleTIdE12allocateDataEj@Base 1.2+1640
 _ZN5nidas4core7SampleTIdE12setDataValueEjd@Base 1.2+1640
 _ZN5nidas4core7SampleTIdE12setDataValueEjf@Base 1.2+1640
 _ZN5nidas4core7SampleTIdE13setDataLengthEj@Base 1.2+1640
 _ZN5nidas4core7SampleTIdE14getVoidDataPtrEv@Base 1.2+1640
 _ZN5nidas4core7SampleTIdE14reallocateDataEj@Base 1.2+1640
 _ZN5nidas4core7SampleTIdED0Ev@Base 1.2+1640
 _ZN5nidas4core7SampleTIdED1Ev@Base 1.2+1640
 _ZN5nidas4core7SampleTIdED2Ev@Base 1.2+1640
 _ZN5nidas4core7SampleTIfE12allocateDataEj@Base 1.2+1640
 _ZN5nidas4core7SampleTIfE12setDataValueEjd@Base 1.2+1640
 _ZN5nidas4core7SampleTIfE12setDataValueEjf@Base 1.2+1640
 _ZN5nidas4core7SampleTIfE13setDataLengthEj@Base 1.2+1640
 _ZN5nidas4core7SampleTIfE14getVoidDataPtrEv@Base 1.2+1640
 _ZN5nidas4core7SampleTIfE14reallocateDataEj@Base 1.2+1640
 _ZN5nidas4core7SampleTIfED0Ev@Base 1.2+1640
 _ZN5nidas4core7SampleTIfED1Ev@Base 1.2+1640
 _ZN5nidas4core7SampleTIfED2Ev@Base 1.2+1640
 _ZN5nidas4core7SampleTIhE12allocateDataEj@Base 1.2+1640
 _ZN5nidas4core7SampleTIhE12setDataValueEjd@Base 1.2+1640
 _ZN5nidas4core7SampleTIhE12setDataValueEjf@Base 1.2+1640
 _ZN5nidas4core7SampleTIhE13setDataLengthEj@Base 1.2+1640
 _ZN5nidas4core7SampleTIhE14getVoidDataPtrEv@Base 1.2+1640
 _ZN5nidas4core7SampleTIhE14reallocateDataEj@Base 1.2+1640
 _ZN5nidas4core7SampleTIhED0Ev@Base 1.2+1640
 _ZN5nidas4core7SampleTIhED1Ev@Base 1.2+1640
 _ZN5nidas4core7SampleTIhED2Ev@Base 1.2+1640
 _ZN5nidas4core7SampleTIiE12allocateDataEj@Base 1.2+1640
 _ZN5nidas4core7SampleTIiE12setDataValueEjd@Base 1.2+1640
 _ZN5nidas4core7SampleTIiE12setDataValueEjf@Base 1.2+1640
 _ZN5nidas4core7SampleTIiE13setDataLengthEj@Base 1.2+1640
 _ZN5nidas4core7SampleTIiE14getVoidDataPtrEv@Base 1.2+1640
 _ZN5nidas4core7SampleTIiE14reallocateDataEj@Base 1.2+1640
 _ZN5nidas4core7SampleTIiED0Ev@Base 1.2+1640
 _ZN5nidas4core7SampleTIiED1Ev@Base 1.2+1640
 _ZN5nidas4core7SampleTIiED2Ev@Base 1.2+1640
 _ZN5nidas4core7SampleTIjE12allocateDataEj@Base 1.2+1640
 _ZN5nidas4core7SampleTIjE12setDataValueEjd@Base 1.2+1640
 _ZN5nidas4core7SampleTIjE12setDataValueEjf@Base 1.2+1640
 _ZN5nidas4core7SampleTIjE13setDataLengthEj@Base 1.2+1640
 _ZN5nidas4core7SampleTIjE14getVoidDataPtrEv@Base 1.2+1640
 _ZN5nidas4core7SampleTIjE14reallocateDataEj@Base 1.2+1640
 _ZN5nidas4core7SampleTIjED0Ev@Base 1.2+1640
 _ZN5nidas4core7SampleTIjED1Ev@Base 1.2+1640
 _ZN5nidas4core7SampleTIjED2Ev@Base 1.2+1640
 _ZN5nidas4core7SampleTIsE12allocateDataEj@Base 1.2+1640
 _ZN5nidas4core7SampleTIsE12setDataValueEjd@Base 1.2+1640
 _ZN5nidas4core7SampleTIsE12setDataValueEjf@Base 1.2+1640
 _ZN5nidas4core7SampleTIsE13setDataLengthEj@Base 1.2+1640
 _ZN5nidas4core7SampleTIsE14getVoidDataPtrEv@Base 1.2+1640
 _ZN5nidas4core7SampleTIsE14reallocateDataEj@Base 1.2+1640
 _ZN5nidas4core7SampleTIsED0Ev@Base 1.2+1640
 _ZN5nidas4core7SampleTIsED1Ev@Base 1.2+1640
 _ZN5nidas4core7SampleTIsED2Ev@Base 1.2+1640
 _ZN5nidas4core7SampleTItE12allocateDataEj@Base 1.2+1640
 _ZN5nidas4core7SampleTItE12setDataValueEjd@Base 1.2+1640
 _ZN5nidas4core7SampleTItE12setDataValueEjf@Base 1.2+1640
 _ZN5nidas4core7SampleTItE13setDataLengthEj@Base 1.2+1640
 _ZN5nidas4core7SampleTItE14getVoidDataPtrEv@Base 1.2+1640
 _ZN5nidas4core7SampleTItE14reallocateDataEj@Base 1.2+1640
 _ZN5nidas4core7SampleTItED0Ev@Base 1.2+1640
 _ZN5nidas4core7SampleTItED1Ev@Base 1.2+1640
 _ZN5nidas4core7SampleTItED2Ev@Base 1.2+1640
 _ZN5nidas4core7SampleTIxE12allocateDataEj@Base 1.2+1640
 _ZN5nidas4core7SampleTIxE12setDataValueEjd@Base 1.2+1640
 _ZN5nidas4core7SampleTIxE12setDataValueEjf@Base 1.2+1640
 _ZN5nidas4core7SampleTIxE13setDataLengthEj@Base 1.2+1640
 _ZN5nidas4core7SampleTIxE14getVoidDataPtrEv@Base 1.2+1640
 _ZN5nidas4core7SampleTIxE14reallocateDataEj@Base 1.2+1640
 _ZN5nidas4core7SampleTIxED0Ev@Base 1.2+1640
 _ZN5nidas4core7SampleTIxED1Ev@Base 1.2+1640
 _ZN5nidas4core7SampleTIxED2Ev@Base 1.2+1640
 _ZN5nidas4core7Version8_versionE@Base 1.2+1640
 _ZN5nidas4core8Datasets10addDatasetERKNS0_7DatasetE@Base 1.2+1640
 _ZN5nidas4core8Datasets13removeDatasetERKNS0_7DatasetE@Base 1.2+1640
 _ZN5nidas4core8Datasets14fromDOMElementEPKN11xercesc_3_210DOMElementE@Base 1.2+1640
 _ZN5nidas4core8Datasets8parseXMLERKNSt7__cxx1112basic_stringIcSt11char_traitsIcESaIcEEEb@Base 1.2+1640
 _ZN5nidas4core8Datasets8writeXMLERKNSt7__cxx1112basic_stringIcSt11char_traitsIcESaIcEEE@Base 1.2+1640
 _ZN5nidas4core8DatasetsC1Ev@Base 1.2+1640
 _ZN5nidas4core8DatasetsC2Ev@Base 1.2+1640
 _ZN5nidas4core8IODevice7setNameERKNSt7__cxx1112basic_stringIcSt11char_traitsIcESaIcEEE@Base 1.2+1640
 _ZN5nidas4core8IOStream16reallocateBufferEj@Base 1.2+1640
 _ZN5nidas4core8IOStream4readEPvj@Base 1.2+1640
 _ZN5nidas4core8IOStream4readEv@Base 1.2+1640
 _ZN5nidas4core8IOStream4skipEj@Base 1.2+1640
 _ZN5nidas4core8IOStream5flushEv@Base 1.2+1640
 _ZN5nidas4core8IOStream5writeEPK5iovecib@Base 1.2+1640
 _ZN5nidas4core8IOStream5writeEPKvjb@Base 1.2+1640
 _ZN5nidas4core8IOStream6backupEj@Base 1.2+1640
 _ZN5nidas4core8IOStream6backupEv@Base 1.2+1640
 _ZN5nidas4core8IOStream9readUntilEPvjc@Base 1.2+1640
 _ZN5nidas4core8IOStreamC1ERNS0_9IOChannelEj@Base 1.2+1640
 _ZN5nidas4core8IOStreamC2ERNS0_9IOChannelEj@Base 1.2+1640
 _ZN5nidas4core8IOStreamD0Ev@Base 1.2+1640
 _ZN5nidas4core8IOStreamD1Ev@Base 1.2+1640
 _ZN5nidas4core8IOStreamD2Ev@Base 1.2+1640
 _ZN5nidas4core8McSocket10MyMcSocket9connectedEPNS_4util6SocketERKNS3_16Inet4PacketInfoXE@Base 1.2+1640
 _ZN5nidas4core8McSocket10MyMcSocketD0Ev@Base 1.2+1640
 _ZN5nidas4core8McSocket10MyMcSocketD1Ev@Base 1.2+1640
 _ZN5nidas4core8McSocket10MyMcSocketD2Ev@Base 1.2+1640
 _ZN5nidas4core8McSocket14fromDOMElementEPKN11xercesc_3_210DOMElementE@Base 1.2+1640
 _ZN5nidas4core8McSocket14setNonBlockingEb@Base 1.2+1640
 _ZN5nidas4core8McSocket14setRequestTypeENS0_15McSocketRequestE@Base 1.2+1640
 _ZN5nidas4core8McSocket17requestConnectionEPNS0_18IOChannelRequesterE@Base 1.2+1640
 _ZN5nidas4core8McSocket4readEPvj@Base 1.2+1640
 _ZN5nidas4core8McSocket5closeEv@Base 1.2+1640
 _ZN5nidas4core8McSocket5writeEPK5ioveci@Base 1.2+1640
 _ZN5nidas4core8McSocket5writeEPKvj@Base 1.2+1640
 _ZN5nidas4core8McSocket7connectEv@Base 1.2+1640
 _ZN5nidas4core8McSocket7setNameERKNSt7__cxx1112basic_stringIcSt11char_traitsIcESaIcEEE@Base 1.2+1640
 _ZN5nidas4core8McSocket9connectedEPNS_4util6SocketERKNS2_16Inet4PacketInfoXE@Base 1.2+1640
 _ZN5nidas4core8McSocketC1ERKS1_@Base 1.2+1640
 _ZN5nidas4core8McSocketC1Ev@Base 1.2+1640
 _ZN5nidas4core8McSocketC2ERKS1_@Base 1.2+1640
 _ZN5nidas4core8McSocketC2Ev@Base 1.2+1640
 _ZN5nidas4core8McSocketD0Ev@Base 1.2+1640
 _ZN5nidas4core8McSocketD1Ev@Base 1.2+1640
 _ZN5nidas4core8McSocketD2Ev@Base 1.2+1640
 _ZN5nidas4core8NidasApp10getDatasetERKNSt7__cxx1112basic_stringIcSt11char_traitsIcESaIcEEE@Base 1.2+1640
 _ZN5nidas4core8NidasApp10getProjectEv@Base 1.2+1640
 _ZN5nidas4core8NidasApp10lockMemoryEv@Base 1.2+1640
 _ZN5nidas4core8NidasApp11getHostNameB5cxx11Ev@Base 1.2+1640
 _ZN5nidas4core8NidasApp11interruptedEb@Base 1.2+1640
 _ZN5nidas4core8NidasApp11loggingArgsEv@Base 1.2+1640
 _ZN5nidas4core8NidasApp11parseInputsERKSt6vectorINSt7__cxx1112basic_stringIcSt11char_traitsIcESaIcEEESaIS8_EES8_i@Base 1.2+1640
 _ZN5nidas4core8NidasApp11parseOutputERKNSt7__cxx1112basic_stringIcSt11char_traitsIcESaIcEEE@Base 1.2+1640
 _ZN5nidas4core8NidasApp11setIdFormatENS1_8IdFormatE@Base 1.2+1640
 _ZN5nidas4core8NidasApp11setupDaemonEb@Base 1.2+1640
 _ZN5nidas4core8NidasApp11setupDaemonEv@Base 1.2+1640
 _ZN5nidas4core8NidasApp12checkPidFileEv@Base 1.2+1640
 _ZN5nidas4core8NidasApp12getArgumentsEv@Base 1.2+1640
 _ZN5nidas4core8NidasApp12getExceptionEv@Base 1.2+1640
 _ZN5nidas4core8NidasApp12hasExceptionEv@Base 1.2+1640
 _ZN5nidas4core8NidasApp12resetLoggingEv@Base 1.2+1640
 _ZN5nidas4core8NidasApp12setExceptionERKNS_4util9ExceptionE@Base 1.2+1640
 _ZN5nidas4core8NidasApp12setupProcessEv@Base 1.2+1640
 _ZN5nidas4core8NidasApp12setupSignalsEPFviE@Base 1.2+1640
 _ZN5nidas4core8NidasApp12unparsedArgsB5cxx11Ev@Base 1.2+1640
 _ZN5nidas4core8NidasApp13getConfigsXMLB5cxx11Ev@Base 1.2+1640
 _ZN5nidas4core8NidasApp13parseUsernameERKNSt7__cxx1112basic_stringIcSt11char_traitsIcESaIcEEE@Base 1.2+1640
 _ZN5nidas4core8NidasApp14formatSampleIdERSoNS1_8IdFormatEj@Base 1.2+1640
 _ZN5nidas4core8NidasApp14formatSampleIdERSoj@Base 1.2+1640
 _ZN5nidas4core8NidasApp14getProcessNameB5cxx11Ev@Base 1.2+1640
 _ZN5nidas4core8NidasApp14parseLogConfigERKNSt7__cxx1112basic_stringIcSt11char_traitsIcESaIcEEE@Base 1.2+1640
 _ZN5nidas4core8NidasApp14setInterruptedEb@Base 1.2+1640
 _ZN5nidas4core8NidasApp14setProcessNameERKNSt7__cxx1112basic_stringIcSt11char_traitsIcESaIcEEE@Base 1.2+1640
 _ZN5nidas4core8NidasApp14setupLogSchemeEv@Base 1.2+1640
 _ZN5nidas4core8NidasApp15enableArgumentsERKSt6vectorIPNS0_11NidasAppArgESaIS4_EE@Base 1.2+1640
 _ZN5nidas4core8NidasApp16getShortHostNameB5cxx11Ev@Base 1.2+1640
 _ZN5nidas4core8NidasApp16requireArgumentsERKSt6vectorIPNS0_11NidasAppArgESaIS4_EE@Base 1.2+1640
 _ZN5nidas4core8NidasApp17allowUnrecognizedEb@Base 1.2+1640
 _ZN5nidas4core8NidasApp17allowUnrecognizedEv@Base 1.2+1640
 _ZN5nidas4core8NidasApp18setupDaemonLoggingEb@Base 1.2+1640
 _ZN5nidas4core8NidasApp18setupDaemonLoggingEv@Base 1.2+1640
 _ZN5nidas4core8NidasApp20application_instanceE@Base 1.2+1640
 _ZN5nidas4core8NidasApp22checkRequiredArgumentsEv@Base 1.2+1640
 _ZN5nidas4core8NidasApp22getApplicationInstanceEv@Base 1.2+1640
 _ZN5nidas4core8NidasApp22setApplicationInstanceEv@Base 1.2+1640
 _ZN5nidas4core8NidasApp5usageERKNSt7__cxx1112basic_stringIcSt11char_traitsIcESaIcEEE@Base 1.2+1640
 _ZN5nidas4core8NidasApp7nextArgERNSt7__cxx1112basic_stringIcSt11char_traitsIcESaIcEEE@Base 1.2+1640
 _ZN5nidas4core8NidasApp8formatIdB5cxx11Ej@Base 1.2+1640
 _ZN5nidas4core8NidasApp8logLevelEv@Base 1.2+1640
 _ZN5nidas4core8NidasApp9addSignalEiPFviEb@Base 1.2+1640
 _ZN5nidas4core8NidasApp9parseArgsB5cxx11EiPKPKc@Base 1.2+1640
 _ZN5nidas4core8NidasApp9parseArgsERKSt6vectorINSt7__cxx1112basic_stringIcSt11char_traitsIcESaIcEEESaIS8_EE@Base 1.2+1640
 _ZN5nidas4core8NidasApp9parseNextEv@Base 1.2+1640
 _ZN5nidas4core8NidasApp9parseTimeERKNSt7__cxx1112basic_stringIcSt11char_traitsIcESaIcEEE@Base 1.2+1640
 _ZN5nidas4core8NidasApp9startArgsERKSt6vectorINSt7__cxx1112basic_stringIcSt11char_traitsIcESaIcEEESaIS8_EE@Base 1.2+1640
 _ZN5nidas4core8NidasApp9startArgsEiPKPKc@Base 1.2+1640
 _ZN5nidas4core8NidasAppC1ERKNSt7__cxx1112basic_stringIcSt11char_traitsIcESaIcEEE@Base 1.2+1640
 _ZN5nidas4core8NidasAppC2ERKNSt7__cxx1112basic_stringIcSt11char_traitsIcESaIcEEE@Base 1.2+1640
 _ZN5nidas4core8NidasAppD1Ev@Base 1.2+1640
 _ZN5nidas4core8NidasAppD2Ev@Base 1.2+1640
 _ZN5nidas4core8Variable12setSampleTagEPKNS0_9SampleTagE@Base 1.2+1640
 _ZN5nidas4core8Variable13setSiteSuffixERKNSt7__cxx1112basic_stringIcSt11char_traitsIcESaIcEEE@Base 1.2+1640
 _ZN5nidas4core8Variable14fromDOMElementEPKN11xercesc_3_210DOMElementE@Base 1.2+1640
 _ZN5nidas4core8Variable7convertExPfiS2_@Base 1.2+1640
 _ZN5nidas4core8VariableC1ERKS1_@Base 1.2+1640
 _ZN5nidas4core8VariableC1Ev@Base 1.2+1640
 _ZN5nidas4core8VariableC2ERKS1_@Base 1.2+1640
 _ZN5nidas4core8VariableC2Ev@Base 1.2+1640
 _ZN5nidas4core8VariableD0Ev@Base 1.2+1640
 _ZN5nidas4core8VariableD1Ev@Base 1.2+1640
 _ZN5nidas4core8VariableD2Ev@Base 1.2+1640
 _ZN5nidas4core8VariableaSERKS1_@Base 1.2+1640
 _ZN5nidas4core8XDOMAttrD1Ev@Base 1.2+1640
 _ZN5nidas4core8XDOMAttrD2Ev@Base 1.2+1640
 _ZN5nidas4core8floatNANE@Base 1.2+1640
 _ZN5nidas4core9DSMConfig11initSensorsEv@Base 1.2+1640
 _ZN5nidas4core9DSMConfig11openSensorsEPNS0_13SensorHandlerE@Base 1.2+1640
 _ZN5nidas4core9DSMConfig12MyDictionaryD0Ev@Base 1.2+1640
 _ZN5nidas4core9DSMConfig12MyDictionaryD1Ev@Base 1.2+1640
 _ZN5nidas4core9DSMConfig12MyDictionaryD2Ev@Base 1.2+1640
 _ZN5nidas4core9DSMConfig12addProcessorEPNS0_17SampleIOProcessorE@Base 1.2+1640
 _ZN5nidas4core9DSMConfig12removeSensorEPNS0_9DSMSensorE@Base 1.2+1640
 _ZN5nidas4core9DSMConfig14fromDOMElementEPKN11xercesc_3_210DOMElementE@Base 1.2+1640
 _ZN5nidas4core9DSMConfig20sensorFromDOMElementEPKN11xercesc_3_210DOMElementE@Base 1.2+1640
 _ZN5nidas4core9DSMConfig26validateSensorAndSampleIdsEv@Base 1.2+1640
 _ZN5nidas4core9DSMConfig8validateEv@Base 1.2+1640
 _ZN5nidas4core9DSMConfig9addSensorEPNS0_9DSMSensorE@Base 1.2+1640
 _ZN5nidas4core9DSMConfigC1Ev@Base 1.2+1640
 _ZN5nidas4core9DSMConfigC2Ev@Base 1.2+1640
 _ZN5nidas4core9DSMConfigD0Ev@Base 1.2+1640
 _ZN5nidas4core9DSMConfigD1Ev@Base 1.2+1640
 _ZN5nidas4core9DSMConfigD2Ev@Base 1.2+1640
 _ZN5nidas4core9DSMEngine10disconnectEPNS0_12SampleOutputE@Base 1.2+1640
 _ZN5nidas4core9DSMEngine10initLoggerEv@Base 1.2+1640
 _ZN5nidas4core9DSMEngine10initializeEPN11xercesc_3_211DOMDocumentE@Base 1.2+1640
 _ZN5nidas4core9DSMEngine11initProcessEv@Base 1.2+1640
 _ZN5nidas4core9DSMEngine11openSensorsEv@Base 1.2+1640
 _ZN5nidas4core9DSMEngine12closeOutputsEv@Base 1.2+1640
 _ZN5nidas4core9DSMEngine12setupSignalsEv@Base 1.2+1640
 _ZN5nidas4core9DSMEngine13waitForSignalEi@Base 1.2+1640
 _ZN5nidas4core9DSMEngine14connectOutputsEv@Base 1.2+1640
 _ZN5nidas4core9DSMEngine14parseRunstringEiPPc@Base 1.2+1640
 _ZN5nidas4core9DSMEngine15joinDataThreadsEv@Base 1.2+1640
 _ZN5nidas4core9DSMEngine16killXmlRpcThreadEv@Base 1.2+1640
 _ZN5nidas4core9DSMEngine17connectProcessorsEv@Base 1.2+1640
 _ZN5nidas4core9DSMEngine17deleteDataThreadsEv@Base 1.2+1640
 _ZN5nidas4core9DSMEngine17startXmlRpcThreadEv@Base 1.2+1640
 _ZN5nidas4core9DSMEngine20disconnectProcessorsEv@Base 1.2+1640
 _ZN5nidas4core9DSMEngine24registerSensorWithXmlRpcERKNSt7__cxx1112basic_stringIcSt11char_traitsIcESaIcEEEPNS0_9DSMSensorE@Base 1.2+1640
 _ZN5nidas4core9DSMEngine3runEv@Base 1.2+1640
 _ZN5nidas4core9DSMEngine4mainEiPPc@Base 1.2+1640
 _ZN5nidas4core9DSMEngine4quitEv@Base 1.2+1640
 _ZN5nidas4core9DSMEngine4stopEv@Base 1.2+1640
 _ZN5nidas4core9DSMEngine5startEv@Base 1.2+1640
 _ZN5nidas4core9DSMEngine5usageEv@Base 1.2+1640
 _ZN5nidas4core9DSMEngine6rebootEv@Base 1.2+1640
 _ZN5nidas4core9DSMEngine7connectEPNS0_12SampleOutputE@Base 1.2+1640
 _ZN5nidas4core9DSMEngine7restartEv@Base 1.2+1640
 _ZN5nidas4core9DSMEngine8shutdownEv@Base 1.2+1640
 _ZN5nidas4core9DSMEngine9_instanceE@Base 1.2+1640
 _ZN5nidas4core9DSMEngine9interruptEv@Base 1.2+1640
 _ZN5nidas4core9DSMEngineC1Ev@Base 1.2+1640
 _ZN5nidas4core9DSMEngineC2Ev@Base 1.2+1640
 _ZN5nidas4core9DSMEngineD0Ev@Base 1.2+1640
 _ZN5nidas4core9DSMEngineD1Ev@Base 1.2+1640
 _ZN5nidas4core9DSMEngineD2Ev@Base 1.2+1640
 _ZN5nidas4core9DSMSensor10addCalFileEPNS0_7CalFileE@Base 1.2+1640
 _ZN5nidas4core9DSMSensor10getCalFileERKNSt7__cxx1112basic_stringIcSt11char_traitsIcESaIcEEE@Base 1.2+1640
 _ZN5nidas4core9DSMSensor10nextSampleEv@Base 1.2+1640
 _ZN5nidas4core9DSMSensor10readSampleEv@Base 1.2+1640
 _ZN5nidas4core9DSMSensor10setLagSecsEd@Base 1.2+1640
 _ZN5nidas4core9DSMSensor10setLatencyEf@Base 1.2+1640
 _ZN5nidas4core9DSMSensor10setStationEi@Base 1.2+1640
 _ZN5nidas4core9DSMSensor11printStatusERSo@Base 1.2+1640
 _ZN5nidas4core9DSMSensor11readSamplesEv@Base 1.2+1640
 _ZN5nidas4core9DSMSensor11setTypeNameERKNSt7__cxx1112basic_stringIcSt11char_traitsIcESaIcEEE@Base 1.2+1640
 _ZN5nidas4core9DSMSensor12MyDictionaryD0Ev@Base 1.2+1640
 _ZN5nidas4core9DSMSensor12MyDictionaryD1Ev@Base 1.2+1640
 _ZN5nidas4core9DSMSensor12MyDictionaryD2Ev@Base 1.2+1640
 _ZN5nidas4core9DSMSensor12_looperMutexE@Base 1.2+1640
 _ZN5nidas4core9DSMSensor12addParameterEPNS0_9ParameterE@Base 1.2+1640
 _ZN5nidas4core9DSMSensor12addSampleTagEPKNS0_9SampleTagE@Base 1.2+1640
 _ZN5nidas4core9DSMSensor12addSampleTagEPNS0_9SampleTagE@Base 1.2+1640
 _ZN5nidas4core9DSMSensor12deleteLooperEv@Base 1.2+1640
 _ZN5nidas4core9DSMSensor12getClassNameB5cxx11EPKN11xercesc_3_210DOMElementEPKNS0_7ProjectE@Base 1.2+1640
 _ZN5nidas4core9DSMSensor12setClassNameERKNSt7__cxx1112basic_stringIcSt11char_traitsIcESaIcEEE@Base 1.2+1640
 _ZN5nidas4core9DSMSensor12setDSMConfigEPKNS0_9DSMConfigE@Base 1.2+1640
 _ZN5nidas4core9DSMSensor12trimUnparsedEPNS0_9SampleTagEPNS0_7SampleTIfEEi@Base 1.2+1640
 _ZN5nidas4core9DSMSensor13executeXmlRpcERN6XmlRpc11XmlRpcValueES4_@Base 1.2+1640
 _ZN5nidas4core9DSMSensor13setDeviceNameERKNSt7__cxx1112basic_stringIcSt11char_traitsIcESaIcEEE@Base 1.2+1640
 _ZN5nidas4core9DSMSensor14fromDOMElementEPKN11xercesc_3_210DOMElementE@Base 1.2+1640
 _ZN5nidas4core9DSMSensor14removeCalFilesEv@Base 1.2+1640
 _ZN5nidas4core9DSMSensor14setCatalogNameERKNSt7__cxx1112basic_stringIcSt11char_traitsIcESaIcEEE@Base 1.2+1640
 _ZN5nidas4core9DSMSensor14setDefaultModeEi@Base 1.2+1640
 _ZN5nidas4core9DSMSensor15addSampleClientEPNS0_12SampleClientE@Base 1.2+1640
 _ZN5nidas4core9DSMSensor15removeSampleTagEPKNS0_9SampleTagE@Base 1.2+1640
 _ZN5nidas4core9DSMSensor15removeSampleTagEPNS0_9SampleTagE@Base 1.2+1640
 _ZN5nidas4core9DSMSensor15setTimeoutMsecsEi@Base 1.2+1640
 _ZN5nidas4core9DSMSensor16applyConversionsEPNS0_9SampleTagEPNS0_7SampleTIfEEPf@Base 1.2+1640
 _ZN5nidas4core9DSMSensor17findVariableIndexERKNSt7__cxx1112basic_stringIcSt11char_traitsIcESaIcEEE@Base 1.2+1640
 _ZN5nidas4core9DSMSensor17printStatusHeaderERSo@Base 1.2+1640
 _ZN5nidas4core9DSMSensor18getRawSampleSourceEv@Base 1.2+1640
 _ZN5nidas4core9DSMSensor18printStatusTrailerERSo@Base 1.2+1640
 _ZN5nidas4core9DSMSensor18removeSampleClientEPNS0_12SampleClientE@Base 1.2+1640
 _ZN5nidas4core9DSMSensor21addSampleClientForTagEPNS0_12SampleClientEPKNS0_9SampleTagE@Base 1.2+1640
 _ZN5nidas4core9DSMSensor21getNonConstSampleTagsB5cxx11Ev@Base 1.2+1640
 _ZN5nidas4core9DSMSensor21setDriverTimeTagUsecsEi@Base 1.2+1640
 _ZN5nidas4core9DSMSensor24getProcessedSampleSourceEv@Base 1.2+1640
 _ZN5nidas4core9DSMSensor24removeSampleClientForTagEPNS0_12SampleClientEPKNS0_9SampleTagE@Base 1.2+1640
 _ZN5nidas4core9DSMSensor27setApplyVariableConversionsEb@Base 1.2+1640
 _ZN5nidas4core9DSMSensor4initEv@Base 1.2+1640
 _ZN5nidas4core9DSMSensor4openEi@Base 1.2+1640
 _ZN5nidas4core9DSMSensor4readEPvj@Base 1.2+1640
 _ZN5nidas4core9DSMSensor4readEPvji@Base 1.2+1640
 _ZN5nidas4core9DSMSensor5closeEv@Base 1.2+1640
 _ZN5nidas4core9DSMSensor5flushEv@Base 1.2+1640
 _ZN5nidas4core9DSMSensor5ioctlEiPvj@Base 1.2+1640
 _ZN5nidas4core9DSMSensor5writeEPKvj@Base 1.2+1640
 _ZN5nidas4core9DSMSensor5zebraE@Base 1.2+1640
 _ZN5nidas4core9DSMSensor7_looperE@Base 1.2+1640
 _ZN5nidas4core9DSMSensor7receiveEPKNS0_6SampleE@Base 1.2+1640
 _ZN5nidas4core9DSMSensor8setDepthERKNSt7__cxx1112basic_stringIcSt11char_traitsIcESaIcEEE@Base 1.2+1640
 _ZN5nidas4core9DSMSensor8setDepthEf@Base 1.2+1640
 _ZN5nidas4core9DSMSensor8validateEv@Base 1.2+1640
 _ZN5nidas4core9DSMSensor9getLooperEv@Base 1.2+1640
 _ZN5nidas4core9DSMSensor9setHeightERKNSt7__cxx1112basic_stringIcSt11char_traitsIcESaIcEEE@Base 1.2+1640
 _ZN5nidas4core9DSMSensor9setHeightEf@Base 1.2+1640
 _ZN5nidas4core9DSMSensor9setSuffixERKNSt7__cxx1112basic_stringIcSt11char_traitsIcESaIcEEE@Base 1.2+1640
 _ZN5nidas4core9DSMSensorC1Ev@Base 1.2+1640
 _ZN5nidas4core9DSMSensorC2Ev@Base 1.2+1640
 _ZN5nidas4core9DSMSensorD0Ev@Base 1.2+1640
 _ZN5nidas4core9DSMSensorD1Ev@Base 1.2+1640
 _ZN5nidas4core9DSMSensorD2Ev@Base 1.2+1640
 _ZN5nidas4core9DSMServer12joinServicesEv@Base 1.2+1640
 _ZN5nidas4core9DSMServer14fromDOMElementEPKN11xercesc_3_210DOMElementE@Base 1.2+1640
 _ZN5nidas4core9DSMServer16scheduleServicesEb@Base 1.2+1640
 _ZN5nidas4core9DSMServer17interruptServicesEv@Base 1.2+1640
 _ZN5nidas4core9DSMServerC1Ev@Base 1.2+1640
 _ZN5nidas4core9DSMServerC2Ev@Base 1.2+1640
 _ZN5nidas4core9DSMServerD0Ev@Base 1.2+1640
 _ZN5nidas4core9DSMServerD1Ev@Base 1.2+1640
 _ZN5nidas4core9DSMServerD2Ev@Base 1.2+1640
 _ZN5nidas4core9GetClocks4helpB5cxx11Ev@Base 1.2+1640
 _ZN5nidas4core9GetClocks7executeERN6XmlRpc11XmlRpcValueES4_@Base 1.2+1640
 _ZN5nidas4core9GetClocksD0Ev@Base 1.2+1640
 _ZN5nidas4core9GetClocksD1Ev@Base 1.2+1640
 _ZN5nidas4core9GetClocksD2Ev@Base 1.2+1640
 _ZN5nidas4core9GetStatus4helpB5cxx11Ev@Base 1.2+1640
 _ZN5nidas4core9GetStatus7executeERN6XmlRpc11XmlRpcValueES4_@Base 1.2+1640
 _ZN5nidas4core9GetStatusD0Ev@Base 1.2+1640
 _ZN5nidas4core9GetStatusD1Ev@Base 1.2+1640
 _ZN5nidas4core9GetStatusD2Ev@Base 1.2+1640
 _ZN5nidas4core9IOChannel10createFileExb@Base 1.2+1640
 _ZN5nidas4core9IOChannel12setDSMConfigEPKNS0_9DSMConfigE@Base 1.2+1640
 _ZN5nidas4core9IOChannel14setRequestTypeENS0_15McSocketRequestE@Base 1.2+1640
 _ZN5nidas4core9IOChannel15createIOChannelEPKN11xercesc_3_210DOMElementE@Base 1.2+1640
 _ZN5nidas4core9IOChannel17setConnectionInfoERKNS0_14ConnectionInfoE@Base 1.2+1640
 _ZN5nidas4core9IOChannel5flushEv@Base 1.2+1640
 _ZN5nidas4core9IOChannelC1Ev@Base 1.2+1640
 _ZN5nidas4core9IOChannelC2Ev@Base 1.2+1640
 _ZN5nidas4core9Parameter15createParameterEPKN11xercesc_3_210DOMElementEPKNS0_10DictionaryE@Base 1.2+1640
 _ZN5nidas4core9SampleTag10setStationEi@Base 1.2+1640
 _ZN5nidas4core9SampleTag11addVariableEPNS0_8VariableE@Base 1.2+1640
 _ZN5nidas4core9SampleTag12addParameterEPNS0_9ParameterE@Base 1.2+1640
 _ZN5nidas4core9SampleTag12setDSMSensorEPKNS0_9DSMSensorE@Base 1.2+1640
 _ZN5nidas4core9SampleTag14fromDOMElementEPKN11xercesc_3_210DOMElementE@Base 1.2+1640
 _ZN5nidas4core9SampleTag14removeVariableEPKNS0_8VariableE@Base 1.2+1640
 _ZN5nidas4core9SampleTag7setRateEd@Base 1.2+1640
 _ZN5nidas4core9SampleTag9setPeriodEd@Base 1.2+1640
 _ZN5nidas4core9SampleTag9setSuffixERKNSt7__cxx1112basic_stringIcSt11char_traitsIcESaIcEEE@Base 1.2+1640
 _ZN5nidas4core9SampleTagC1EPKNS0_9DSMSensorE@Base 1.2+1640
 _ZN5nidas4core9SampleTagC1ERKS1_@Base 1.2+1640
 _ZN5nidas4core9SampleTagC1Ev@Base 1.2+1640
 _ZN5nidas4core9SampleTagC2EPKNS0_9DSMSensorE@Base 1.2+1640
 _ZN5nidas4core9SampleTagC2ERKS1_@Base 1.2+1640
 _ZN5nidas4core9SampleTagC2Ev@Base 1.2+1640
 _ZN5nidas4core9SampleTagD0Ev@Base 1.2+1640
 _ZN5nidas4core9SampleTagD1Ev@Base 1.2+1640
 _ZN5nidas4core9SampleTagD2Ev@Base 1.2+1640
 _ZN5nidas4core9SampleTagaSERKS1_@Base 1.2+1640
 _ZN5nidas4core9XMLParser15setXercesSchemaEb@Base 1.2+1640
 _ZN5nidas4core9XMLParser16setDOMNamespacesEb@Base 1.2+1640
 _ZN5nidas4core9XMLParser16setDOMValidationEb@Base 1.2+1640
 _ZN5nidas4core9XMLParser19setXercesDoXIncludeEb@Base 1.2+1640
 _ZN5nidas4core9XMLParser22setDOMValidateIfSchemaEb@Base 1.2+1640
 _ZN5nidas4core9XMLParser27setDOMDatatypeNormalizationEb@Base 1.2+1640
 _ZN5nidas4core9XMLParser27setXercesSchemaFullCheckingEb@Base 1.2+1640
 _ZN5nidas4core9XMLParser30setXercesHandleMultipleImportsEb@Base 1.2+1640
 _ZN5nidas4core9XMLParser30setXercesUserAdoptsDOMDocumentEb@Base 1.2+1640
 _ZN5nidas4core9XMLParser5parseERKNSt7__cxx1112basic_stringIcSt11char_traitsIcESaIcEEEb@Base 1.2+1640
 _ZN5nidas4core9XMLParser5parseERN11xercesc_3_211InputSourceE@Base 1.2+1640
 _ZN5nidas4core9XMLParserC1Ev@Base 1.2+1640
 _ZN5nidas4core9XMLParserC2Ev@Base 1.2+1640
 _ZN5nidas4core9XMLParserD0Ev@Base 1.2+1640
 _ZN5nidas4core9XMLParserD1Ev@Base 1.2+1640
 _ZN5nidas4core9XMLParserD2Ev@Base 1.2+1640
 _ZN5nidas4core9XMLWriter11setEntitiesEb@Base 1.2+1640
 _ZN5nidas4core9XMLWriter13setValidationEb@Base 1.2+1640
 _ZN5nidas4core9XMLWriter14setPrettyPrintEb@Base 1.2+1640
 _ZN5nidas4core9XMLWriter16setCanonicalFormEb@Base 1.2+1640
 _ZN5nidas4core9XMLWriter21setSplitCDATASectionsEb@Base 1.2+1640
 _ZN5nidas4core9XMLWriter22setNormalizeCharactersEb@Base 1.2+1640
 _ZN5nidas4core9XMLWriter22setWhitespaceInElementEb@Base 1.2+1640
 _ZN5nidas4core9XMLWriter24setDiscardDefaultContentEb@Base 1.2+1640
 _ZN5nidas4core9XMLWriter5writeEPN11xercesc_3_211DOMDocumentERKNSt7__cxx1112basic_stringIcSt11char_traitsIcESaIcEEE@Base 1.2+1640
 _ZN5nidas4core9XMLWriter9setFilterEPN11xercesc_3_221DOMLSSerializerFilterE@Base 1.2+1640
 _ZN5nidas4core9XMLWriter9writeNodeEPN11xercesc_3_211DOMLSOutputERKNS2_7DOMNodeE@Base 1.2+1640
 _ZN5nidas4core9XMLWriterC1Ev@Base 1.2+1640
 _ZN5nidas4core9XMLWriterC2Ev@Base 1.2+1640
 _ZN5nidas4core9XMLWriterD0Ev@Base 1.2+1640
 _ZN5nidas4core9XMLWriterD1Ev@Base 1.2+1640
 _ZN5nidas4core9XMLWriterD2Ev@Base 1.2+1640
 _ZN5nidas4core9doubleNANE@Base 1.2+1640
 _ZN5nidas4core9getSampleENS0_10sampleTypeEj@Base 1.2+1640
 _ZN5nidas4corelsERSoRKNS0_15BadSampleFilterE@Base 1.2+1640
 _ZN5nidas4coreorESt6vectorIPNS0_11NidasAppArgESaIS3_EES5_@Base 1.2+1640
 _ZN5nidas4util10LogMessage3logEv@Base 1.2+1640
 _ZN5nidas4util10LogMessageC1ERKNSt7__cxx1112basic_stringIcSt11char_traitsIcESaIcEEE@Base 1.2+1640
 _ZN5nidas4util10LogMessageC2ERKNSt7__cxx1112basic_stringIcSt11char_traitsIcESaIcEEE@Base 1.2+1640
 _ZN5nidas4util10LogMessageD1Ev@Base 1.2+1640
 _ZN5nidas4util10LogMessageD2Ev@Base 1.2+1640
 _ZN5nidas4util11IOExceptionC1ERKNSt7__cxx1112basic_stringIcSt11char_traitsIcESaIcEEES9_@Base 1.2+1640
 _ZN5nidas4util11IOExceptionC1ERKNSt7__cxx1112basic_stringIcSt11char_traitsIcESaIcEEES9_S9_@Base 1.2+1640
 _ZN5nidas4util11IOExceptionC1ERKNSt7__cxx1112basic_stringIcSt11char_traitsIcESaIcEEES9_i@Base 1.2+1640
 _ZN5nidas4util11IOExceptionC2ERKNSt7__cxx1112basic_stringIcSt11char_traitsIcESaIcEEES9_@Base 1.2+1640
 _ZN5nidas4util11IOExceptionC2ERKNSt7__cxx1112basic_stringIcSt11char_traitsIcESaIcEEES9_S9_@Base 1.2+1640
 _ZN5nidas4util11IOExceptionC2ERKNSt7__cxx1112basic_stringIcSt11char_traitsIcESaIcEEES9_i@Base 1.2+1640
 _ZN5nidas4util11IOExceptionD0Ev@Base 1.2+1640
 _ZN5nidas4util11IOExceptionD1Ev@Base 1.2+1640
 _ZN5nidas4util11IOExceptionD2Ev@Base 1.2+1640
 _ZN5nidas4util12EOFExceptionC1ERKNSt7__cxx1112basic_stringIcSt11char_traitsIcESaIcEEES9_@Base 1.2+1640
 _ZN5nidas4util12EOFExceptionC2ERKNSt7__cxx1112basic_stringIcSt11char_traitsIcESaIcEEES9_@Base 1.2+1640
 _ZN5nidas4util12EOFExceptionD0Ev@Base 1.2+1640
 _ZN5nidas4util12EOFExceptionD1Ev@Base 1.2+1640
 _ZN5nidas4util12EOFExceptionD2Ev@Base 1.2+1640
 _ZN5nidas4util12SynchronizedD1Ev@Base 1.2+1640
 _ZN5nidas4util12SynchronizedD2Ev@Base 1.2+1640
 _ZN5nidas4util14DatagramPacketD0Ev@Base 1.2+1640
 _ZN5nidas4util14DatagramPacketD1Ev@Base 1.2+1640
 _ZN5nidas4util14DatagramPacketD2Ev@Base 1.2+1640
 _ZN5nidas4util14DatagramSocketD0Ev@Base 1.2+1640
 _ZN5nidas4util14DatagramSocketD1Ev@Base 1.2+1640
 _ZN5nidas4util14DatagramSocketD2Ev@Base 1.2+1640
 _ZN5nidas4util14ParseExceptionC1ERKNSt7__cxx1112basic_stringIcSt11char_traitsIcESaIcEEES9_@Base 1.2+1640
 _ZN5nidas4util14ParseExceptionC1ERKNSt7__cxx1112basic_stringIcSt11char_traitsIcESaIcEEES9_i@Base 1.2+1640
 _ZN5nidas4util14ParseExceptionC2ERKNSt7__cxx1112basic_stringIcSt11char_traitsIcESaIcEEES9_@Base 1.2+1640
 _ZN5nidas4util14ParseExceptionC2ERKNSt7__cxx1112basic_stringIcSt11char_traitsIcESaIcEEES9_i@Base 1.2+1640
 _ZN5nidas4util14ParseExceptionD0Ev@Base 1.2+1640
 _ZN5nidas4util14ParseExceptionD1Ev@Base 1.2+1640
 _ZN5nidas4util14ParseExceptionD2Ev@Base 1.2+1640
 _ZN5nidas4util15DatagramPacketTIcE14getDataVoidPtrEv@Base 1.2+1640
 _ZN5nidas4util15Inet4PacketInfo12setInterfaceERKNS0_21Inet4NetworkInterfaceE@Base 1.2+1640
 _ZN5nidas4util15Inet4PacketInfo15setLocalAddressERKNS0_12Inet4AddressE@Base 1.2+1640
 _ZN5nidas4util15Inet4PacketInfo21setDestinationAddressERKNS0_12Inet4AddressE@Base 1.2+1640
 _ZN5nidas4util15Inet4PacketInfo8setFlagsEi@Base 1.2+1640
 _ZN5nidas4util15Inet4PacketInfoD0Ev@Base 1.2+1640
 _ZN5nidas4util15Inet4PacketInfoD1Ev@Base 1.2+1640
 _ZN5nidas4util15Inet4PacketInfoD2Ev@Base 1.2+1640
 _ZN5nidas4util15MulticastSocketD0Ev@Base 1.2+1640
 _ZN5nidas4util15MulticastSocketD1Ev@Base 1.2+1640
 _ZN5nidas4util15MulticastSocketD2Ev@Base 1.2+1640
 _ZN5nidas4util16Inet4PacketInfoXD0Ev@Base 1.2+1640
 _ZN5nidas4util16Inet4PacketInfoXD1Ev@Base 1.2+1640
 _ZN5nidas4util16Inet4PacketInfoXD2Ev@Base 1.2+1640
 _ZN5nidas4util18DatagramPacketBase9setLengthEi@Base 1.2+1640
 _ZN5nidas4util18IOTimeoutExceptionC1ERKNSt7__cxx1112basic_stringIcSt11char_traitsIcESaIcEEES9_@Base 1.2+1640
 _ZN5nidas4util18IOTimeoutExceptionC2ERKNSt7__cxx1112basic_stringIcSt11char_traitsIcESaIcEEES9_@Base 1.2+1640
 _ZN5nidas4util18IOTimeoutExceptionD0Ev@Base 1.2+1640
 _ZN5nidas4util18IOTimeoutExceptionD1Ev@Base 1.2+1640
 _ZN5nidas4util18IOTimeoutExceptionD2Ev@Base 1.2+1640
 _ZN5nidas4util19McSocketMulticasterINS0_14DatagramSocketEE3runEv@Base 1.2+1640
 _ZN5nidas4util19McSocketMulticasterINS0_14DatagramSocketEE9interruptEv@Base 1.2+1640
 _ZN5nidas4util19McSocketMulticasterINS0_14DatagramSocketEEC1EPNS0_8McSocketIS2_EE@Base 1.2+1640
 _ZN5nidas4util19McSocketMulticasterINS0_14DatagramSocketEEC2EPNS0_8McSocketIS2_EE@Base 1.2+1640
 _ZN5nidas4util19McSocketMulticasterINS0_14DatagramSocketEED0Ev@Base 1.2+1640
 _ZN5nidas4util19McSocketMulticasterINS0_14DatagramSocketEED1Ev@Base 1.2+1640
 _ZN5nidas4util19McSocketMulticasterINS0_14DatagramSocketEED2Ev@Base 1.2+1640
 _ZN5nidas4util19McSocketMulticasterINS0_6SocketEE3runEv@Base 1.2+1640
 _ZN5nidas4util19McSocketMulticasterINS0_6SocketEE9interruptEv@Base 1.2+1640
 _ZN5nidas4util19McSocketMulticasterINS0_6SocketEEC1EPNS0_8McSocketIS2_EE@Base 1.2+1640
 _ZN5nidas4util19McSocketMulticasterINS0_6SocketEEC2EPNS0_8McSocketIS2_EE@Base 1.2+1640
 _ZN5nidas4util19McSocketMulticasterINS0_6SocketEED0Ev@Base 1.2+1640
 _ZN5nidas4util19McSocketMulticasterINS0_6SocketEED1Ev@Base 1.2+1640
 _ZN5nidas4util19McSocketMulticasterINS0_6SocketEED2Ev@Base 1.2+1640
 _ZN5nidas4util25InvalidParameterExceptionC1ERKNSt7__cxx1112basic_stringIcSt11char_traitsIcESaIcEEES9_S9_@Base 1.2+1640
 _ZN5nidas4util25InvalidParameterExceptionC2ERKNSt7__cxx1112basic_stringIcSt11char_traitsIcESaIcEEES9_S9_@Base 1.2+1640
 _ZN5nidas4util25InvalidParameterExceptionD0Ev@Base 1.2+1640
 _ZN5nidas4util25InvalidParameterExceptionD1Ev@Base 1.2+1640
 _ZN5nidas4util25InvalidParameterExceptionD2Ev@Base 1.2+1640
 _ZN5nidas4util5Mutex4lockEv@Base 1.2+1640
 _ZN5nidas4util5Mutex6unlockEv@Base 1.2+1640
 _ZN5nidas4util6Thread13signalHandlerEiP9siginfo_t@Base 1.2+1640
 _ZN5nidas4util7FileSet11addFileNameERKNSt7__cxx1112basic_stringIcSt11char_traitsIcESaIcEEE@Base 1.2+1640
 _ZN5nidas4util7FileSet7getPathB5cxx11Ev@Base 1.2+1640
 _ZN5nidas4util8AutolockD1Ev@Base 1.2+1640
 _ZN5nidas4util8AutolockD2Ev@Base 1.2+1640
 _ZN5nidas4util8McSocketINS0_14DatagramSocketEE15joinMulticasterEv@Base 1.2+1640
 _ZN5nidas4util8McSocketINS0_14DatagramSocketEE5closeEv@Base 1.2+1640
 _ZN5nidas4util8McSocketINS0_14DatagramSocketEE5offerEPS2_RKNS0_16Inet4PacketInfoXE@Base 1.2+1640
 _ZN5nidas4util8McSocketINS0_14DatagramSocketEE5offerEi@Base 1.2+1640
 _ZN5nidas4util8McSocketINS0_14DatagramSocketEE6acceptERNS0_16Inet4PacketInfoXE@Base 1.2+1640
 _ZN5nidas4util8McSocketINS0_14DatagramSocketEE6listenEv@Base 1.2+1640
 _ZN5nidas4util8McSocketINS0_14DatagramSocketEE7connectERNS0_16Inet4PacketInfoXE@Base 1.2+1640
 _ZN5nidas4util8McSocketINS0_14DatagramSocketEE7requestEv@Base 1.2+1640
 _ZN5nidas4util8McSocketINS0_14DatagramSocketEE9connectedEPS2_RKNS0_16Inet4PacketInfoXE@Base 1.2+1640
 _ZN5nidas4util8McSocketINS0_14DatagramSocketEEC1Ev@Base 1.2+1640
 _ZN5nidas4util8McSocketINS0_14DatagramSocketEEC2Ev@Base 1.2+1640
 _ZN5nidas4util8McSocketINS0_14DatagramSocketEED0Ev@Base 1.2+1640
 _ZN5nidas4util8McSocketINS0_14DatagramSocketEED1Ev@Base 1.2+1640
 _ZN5nidas4util8McSocketINS0_14DatagramSocketEED2Ev@Base 1.2+1640
 _ZN5nidas4util8McSocketINS0_6SocketEE15joinMulticasterEv@Base 1.2+1640
 _ZN5nidas4util8McSocketINS0_6SocketEE5closeEv@Base 1.2+1640
 _ZN5nidas4util8McSocketINS0_6SocketEE5offerEPS2_RKNS0_16Inet4PacketInfoXE@Base 1.2+1640
 _ZN5nidas4util8McSocketINS0_6SocketEE5offerEi@Base 1.2+1640
 _ZN5nidas4util8McSocketINS0_6SocketEE6acceptERNS0_16Inet4PacketInfoXE@Base 1.2+1640
 _ZN5nidas4util8McSocketINS0_6SocketEE6listenEv@Base 1.2+1640
 _ZN5nidas4util8McSocketINS0_6SocketEE7connectERNS0_16Inet4PacketInfoXE@Base 1.2+1640
 _ZN5nidas4util8McSocketINS0_6SocketEE7requestEv@Base 1.2+1640
 _ZN5nidas4util8McSocketINS0_6SocketEE9connectedEPS2_RKNS0_16Inet4PacketInfoXE@Base 1.2+1640
 _ZN5nidas4util8McSocketINS0_6SocketEEC1Ev@Base 1.2+1640
 _ZN5nidas4util8McSocketINS0_6SocketEEC2Ev@Base 1.2+1640
 _ZN5nidas4util8McSocketINS0_6SocketEED0Ev@Base 1.2+1640
 _ZN5nidas4util8McSocketINS0_6SocketEED1Ev@Base 1.2+1640
 _ZN5nidas4util8McSocketINS0_6SocketEED2Ev@Base 1.2+1640
 _ZN5nidas4util9ExceptionC1ERKNSt7__cxx1112basic_stringIcSt11char_traitsIcESaIcEEE@Base 1.2+1640
 _ZN5nidas4util9ExceptionC1ERKNSt7__cxx1112basic_stringIcSt11char_traitsIcESaIcEEEi@Base 1.2+1640
 _ZN5nidas4util9ExceptionC1ERKS1_@Base 1.2+1640
 _ZN5nidas4util9ExceptionC2ERKNSt7__cxx1112basic_stringIcSt11char_traitsIcESaIcEEE@Base 1.2+1640
 _ZN5nidas4util9ExceptionC2ERKNSt7__cxx1112basic_stringIcSt11char_traitsIcESaIcEEEi@Base 1.2+1640
 _ZN5nidas4util9ExceptionC2ERKS1_@Base 1.2+1640
 _ZN5nidas4util9ExceptionD0Ev@Base 1.2+1640
 _ZN5nidas4util9ExceptionD1Ev@Base 1.2+1640
 _ZN5nidas4util9ExceptionD2Ev@Base 1.2+1640
 _ZN5nidas4util9LogConfigD1Ev@Base 1.2+1640
 _ZN5nidas4util9LogConfigD2Ev@Base 1.2+1640
 _ZN5nidas4util9LogScheme13getParameterTIiEET_RKNSt7__cxx1112basic_stringIcSt11char_traitsIcESaIcEEERKS3_@Base 1.2+1640
 _ZN5nidas4util9LogSchemeD1Ev@Base 1.2+1640
 _ZN5nidas4util9LogSchemeD2Ev@Base 1.2+1640
 _ZNK11xercesc_3_211InputSource11getEncodingEv@Base 1.2+1640
 _ZNK11xercesc_3_211InputSource11getPublicIdEv@Base 1.2+1640
 _ZNK11xercesc_3_211InputSource11getSystemIdEv@Base 1.2+1640
 _ZNK11xercesc_3_211InputSource28getIssueFatalErrorIfNotFoundEv@Base 1.2+1640
 _ZNK11xercesc_3_212SAXException10getMessageEv@Base 1.2+1640
 _ZNK5nidas4core10DSMCatalog4findERKNSt7__cxx1112basic_stringIcSt11char_traitsIcESaIcEEE@Base 1.2+1640
 _ZNK5nidas4core10DSMService12getDSMServerEv@Base 1.2+1640
 _ZNK5nidas4core10DSMService13getProcessorsB5cxx11Ev@Base 1.2+1640
 _ZNK5nidas4core10DSMService20getProcessorIteratorEv@Base 1.2+1640
 _ZNK5nidas4core10Dictionary12expandStringERKNSt7__cxx1112basic_stringIcSt11char_traitsIcESaIcEEE@Base 1.2+1640
 _ZNK5nidas4core10ParameterTINSt7__cxx1112basic_stringIcSt11char_traitsIcESaIcEEEE5cloneEv@Base 1.2+1640
 _ZNK5nidas4core10ParameterTINSt7__cxx1112basic_stringIcSt11char_traitsIcESaIcEEEE9getLengthEv@Base 1.2+1640
 _ZNK5nidas4core10ParameterTIbE5cloneEv@Base 1.2+1640
 _ZNK5nidas4core10ParameterTIbE9getLengthEv@Base 1.2+1640
 _ZNK5nidas4core10ParameterTIfE5cloneEv@Base 1.2+1640
 _ZNK5nidas4core10ParameterTIfE9getLengthEv@Base 1.2+1640
 _ZNK5nidas4core10ParameterTIiE5cloneEv@Base 1.2+1640
 _ZNK5nidas4core10ParameterTIiE9getLengthEv@Base 1.2+1640
 _ZNK5nidas4core10Polynomial5cloneEv@Base 1.2+1640
 _ZNK5nidas4core10Polynomial8toStringB5cxx11Ev@Base 1.2+1640
 _ZNK5nidas4core10SamplePoolINS0_7SampleTIcEEE14getNSamplesOutEv@Base 1.2+1640
 _ZNK5nidas4core10SamplePoolINS0_7SampleTIcEEE16getNSamplesAllocEv@Base 1.2+1640
 _ZNK5nidas4core10SamplePoolINS0_7SampleTIcEEE18getNLargeSamplesInEv@Base 1.2+1640
 _ZNK5nidas4core10SamplePoolINS0_7SampleTIcEEE18getNSmallSamplesInEv@Base 1.2+1640
 _ZNK5nidas4core10SamplePoolINS0_7SampleTIcEEE19getNMediumSamplesInEv@Base 1.2+1640
 _ZNK5nidas4core10SamplePoolINS0_7SampleTIdEEE14getNSamplesOutEv@Base 1.2+1640
 _ZNK5nidas4core10SamplePoolINS0_7SampleTIdEEE16getNSamplesAllocEv@Base 1.2+1640
 _ZNK5nidas4core10SamplePoolINS0_7SampleTIdEEE18getNLargeSamplesInEv@Base 1.2+1640
 _ZNK5nidas4core10SamplePoolINS0_7SampleTIdEEE18getNSmallSamplesInEv@Base 1.2+1640
 _ZNK5nidas4core10SamplePoolINS0_7SampleTIdEEE19getNMediumSamplesInEv@Base 1.2+1640
 _ZNK5nidas4core10SamplePoolINS0_7SampleTIfEEE14getNSamplesOutEv@Base 1.2+1640
 _ZNK5nidas4core10SamplePoolINS0_7SampleTIfEEE16getNSamplesAllocEv@Base 1.2+1640
 _ZNK5nidas4core10SamplePoolINS0_7SampleTIfEEE18getNLargeSamplesInEv@Base 1.2+1640
 _ZNK5nidas4core10SamplePoolINS0_7SampleTIfEEE18getNSmallSamplesInEv@Base 1.2+1640
 _ZNK5nidas4core10SamplePoolINS0_7SampleTIfEEE19getNMediumSamplesInEv@Base 1.2+1640
 _ZNK5nidas4core10SamplePoolINS0_7SampleTIhEEE14getNSamplesOutEv@Base 1.2+1640
 _ZNK5nidas4core10SamplePoolINS0_7SampleTIhEEE16getNSamplesAllocEv@Base 1.2+1640
 _ZNK5nidas4core10SamplePoolINS0_7SampleTIhEEE18getNLargeSamplesInEv@Base 1.2+1640
 _ZNK5nidas4core10SamplePoolINS0_7SampleTIhEEE18getNSmallSamplesInEv@Base 1.2+1640
 _ZNK5nidas4core10SamplePoolINS0_7SampleTIhEEE19getNMediumSamplesInEv@Base 1.2+1640
 _ZNK5nidas4core10SamplePoolINS0_7SampleTIiEEE14getNSamplesOutEv@Base 1.2+1640
 _ZNK5nidas4core10SamplePoolINS0_7SampleTIiEEE16getNSamplesAllocEv@Base 1.2+1640
 _ZNK5nidas4core10SamplePoolINS0_7SampleTIiEEE18getNLargeSamplesInEv@Base 1.2+1640
 _ZNK5nidas4core10SamplePoolINS0_7SampleTIiEEE18getNSmallSamplesInEv@Base 1.2+1640
 _ZNK5nidas4core10SamplePoolINS0_7SampleTIiEEE19getNMediumSamplesInEv@Base 1.2+1640
 _ZNK5nidas4core10SamplePoolINS0_7SampleTIjEEE14getNSamplesOutEv@Base 1.2+1640
 _ZNK5nidas4core10SamplePoolINS0_7SampleTIjEEE16getNSamplesAllocEv@Base 1.2+1640
 _ZNK5nidas4core10SamplePoolINS0_7SampleTIjEEE18getNLargeSamplesInEv@Base 1.2+1640
 _ZNK5nidas4core10SamplePoolINS0_7SampleTIjEEE18getNSmallSamplesInEv@Base 1.2+1640
 _ZNK5nidas4core10SamplePoolINS0_7SampleTIjEEE19getNMediumSamplesInEv@Base 1.2+1640
 _ZNK5nidas4core10SamplePoolINS0_7SampleTIsEEE14getNSamplesOutEv@Base 1.2+1640
 _ZNK5nidas4core10SamplePoolINS0_7SampleTIsEEE16getNSamplesAllocEv@Base 1.2+1640
 _ZNK5nidas4core10SamplePoolINS0_7SampleTIsEEE18getNLargeSamplesInEv@Base 1.2+1640
 _ZNK5nidas4core10SamplePoolINS0_7SampleTIsEEE18getNSmallSamplesInEv@Base 1.2+1640
 _ZNK5nidas4core10SamplePoolINS0_7SampleTIsEEE19getNMediumSamplesInEv@Base 1.2+1640
 _ZNK5nidas4core10SamplePoolINS0_7SampleTItEEE14getNSamplesOutEv@Base 1.2+1640
 _ZNK5nidas4core10SamplePoolINS0_7SampleTItEEE16getNSamplesAllocEv@Base 1.2+1640
 _ZNK5nidas4core10SamplePoolINS0_7SampleTItEEE18getNLargeSamplesInEv@Base 1.2+1640
 _ZNK5nidas4core10SamplePoolINS0_7SampleTItEEE18getNSmallSamplesInEv@Base 1.2+1640
 _ZNK5nidas4core10SamplePoolINS0_7SampleTItEEE19getNMediumSamplesInEv@Base 1.2+1640
 _ZNK5nidas4core10SamplePoolINS0_7SampleTIxEEE14getNSamplesOutEv@Base 1.2+1640
 _ZNK5nidas4core10SamplePoolINS0_7SampleTIxEEE16getNSamplesAllocEv@Base 1.2+1640
 _ZNK5nidas4core10SamplePoolINS0_7SampleTIxEEE18getNLargeSamplesInEv@Base 1.2+1640
 _ZNK5nidas4core10SamplePoolINS0_7SampleTIxEEE18getNSmallSamplesInEv@Base 1.2+1640
 _ZNK5nidas4core10SamplePoolINS0_7SampleTIxEEE19getNMediumSamplesInEv@Base 1.2+1640
 _ZNK5nidas4core11McSocketUDP10isNewInputEv@Base 1.2+1640
 _ZNK5nidas4core11McSocketUDP13isNonBlockingEv@Base 1.2+1640
 _ZNK5nidas4core11McSocketUDP14getRequestTypeEv@Base 1.2+1640
 _ZNK5nidas4core11McSocketUDP5cloneEv@Base 1.2+1640
 _ZNK5nidas4core11McSocketUDP5getFdEv@Base 1.2+1640
 _ZNK5nidas4core11McSocketUDP7getNameB5cxx11Ev@Base 1.2+1640
 _ZNK5nidas4core11SamplePools8getPoolsB5cxx11Ev@Base 1.2+1640
 _ZNK5nidas4core12Bzip2FileSet5cloneEv@Base 1.2+1640
 _ZNK5nidas4core12SampleBuffer10getHeapMaxEv@Base 1.2+1640
 _ZNK5nidas4core12SampleBuffer10sizeNoLockEv@Base 1.2+1640
 _ZNK5nidas4core12SampleBuffer11emptyNoLockEv@Base 1.2+1640
 _ZNK5nidas4core12SampleBuffer11getHeapSizeEv@Base 1.2+1640
 _ZNK5nidas4core12SampleBuffer11getRealTimeEv@Base 1.2+1640
 _ZNK5nidas4core12SampleBuffer12getHeapBlockEv@Base 1.2+1640
 _ZNK5nidas4core12SampleBuffer12getKeepStatsEv@Base 1.2+1640
 _ZNK5nidas4core12SampleBuffer13getLengthSecsEv@Base 1.2+1640
 _ZNK5nidas4core12SampleBuffer13getSampleTagsB5cxx11Ev@Base 1.2+1640
 _ZNK5nidas4core12SampleBuffer14getClientCountEv@Base 1.2+1640
 _ZNK5nidas4core12SampleBuffer14getSampleStatsEv@Base 1.2+1640
 _ZNK5nidas4core12SampleBuffer19getNumFutureSamplesEv@Base 1.2+1640
 _ZNK5nidas4core12SampleBuffer20getSampleTagIteratorEv@Base 1.2+1640
 _ZNK5nidas4core12SampleBuffer22getLateSampleCacheSizeEv@Base 1.2+1640
 _ZNK5nidas4core12SampleBuffer22getNumDiscardedSamplesEv@Base 1.2+1640
 _ZNK5nidas4core12SampleBuffer4sizeEv@Base 1.2+1640
 _ZNK5nidas4core12SampleSorter10getHeapMaxEv@Base 1.2+1640
 _ZNK5nidas4core12SampleSorter11getHeapSizeEv@Base 1.2+1640
 _ZNK5nidas4core12SampleSorter11getRealTimeEv@Base 1.2+1640
 _ZNK5nidas4core12SampleSorter12getHeapBlockEv@Base 1.2+1640
 _ZNK5nidas4core12SampleSorter12getKeepStatsEv@Base 1.2+1640
 _ZNK5nidas4core12SampleSorter13getLengthSecsEv@Base 1.2+1640
 _ZNK5nidas4core12SampleSorter13getSampleTagsB5cxx11Ev@Base 1.2+1640
 _ZNK5nidas4core12SampleSorter14getClientCountEv@Base 1.2+1640
 _ZNK5nidas4core12SampleSorter14getSampleStatsEv@Base 1.2+1640
 _ZNK5nidas4core12SampleSorter19getNumFutureSamplesEv@Base 1.2+1640
 _ZNK5nidas4core12SampleSorter20getSampleTagIteratorEv@Base 1.2+1640
 _ZNK5nidas4core12SampleSorter22getLateSampleCacheSizeEv@Base 1.2+1640
 _ZNK5nidas4core12SampleSorter22getNumDiscardedSamplesEv@Base 1.2+1640
 _ZNK5nidas4core12SampleSorter4sizeEv@Base 1.2+1640
 _ZNK5nidas4core12SerialSensor11isPromptingEv@Base 1.2+1640
 _ZNK5nidas4core12SerialSensor15getUsecsPerByteEv@Base 1.2+1640
 _ZNK5nidas4core12ServerSocket11toDOMParentEPN11xercesc_3_210DOMElementEb@Base 1.2+1640
 _ZNK5nidas4core12ServerSocket12toDOMElementEPN11xercesc_3_210DOMElementEb@Base 1.2+1640
 _ZNK5nidas4core12ServerSocket13isNonBlockingEv@Base 1.2+1640
 _ZNK5nidas4core12ServerSocket5cloneEv@Base 1.2+1640
 _ZNK5nidas4core12ServerSocket5getFdEv@Base 1.2+1640
 _ZNK5nidas4core12ServerSocket7getNameB5cxx11Ev@Base 1.2+1640
 _ZNK5nidas4core12UnixIODevice10getWriteFdEv@Base 1.2+1640
 _ZNK5nidas4core12UnixIODevice9getReadFdEv@Base 1.2+1640
 _ZNK5nidas4core12XMLException5cloneEv@Base 1.2+1640
 _ZNK5nidas4core13ProjectConfig11initProjectERNS0_7ProjectE@Base 1.2+1640
 _ZNK5nidas4core13ProjectConfig11toDOMParentEPN11xercesc_3_210DOMElementE@Base 1.2+1640
 _ZNK5nidas4core13ProjectConfig12toDOMElementEPN11xercesc_3_210DOMElementE@Base 1.2+1640
 _ZNK5nidas4core13ProjectConfig6putenvEv@Base 1.2+1640
 _ZNK5nidas4core13SampleScanner16getMessageLengthEv@Base 1.2+1640
 _ZNK5nidas4core13SampleScanner16getNullTerminateEv@Base 1.2+1640
 _ZNK5nidas4core13SampleScanner19getMessageSeparatorB5cxx11Ev@Base 1.2+1640
 _ZNK5nidas4core13SampleScanner19getObservedDataRateEv@Base 1.2+1640
 _ZNK5nidas4core13SampleScanner23getObservedSamplingRateEv@Base 1.2+1640
 _ZNK5nidas4core13SampleScanner24getMessageSeparatorAtEOMEv@Base 1.2+1640
 _ZNK5nidas4core13SampleScanner30getBackslashedMessageSeparatorB5cxx11Ev@Base 1.2+1640
 _ZNK5nidas4core13SensorCatalog4findERKNSt7__cxx1112basic_stringIcSt11char_traitsIcESaIcEEE@Base 1.2+1640
 _ZNK5nidas4core13SensorHandler13getAllSensorsB5cxx11Ev@Base 1.2+1640
 _ZNK5nidas4core13SensorHandler15PolledDSMSensor5getFdEv@Base 1.2+1640
 _ZNK5nidas4core13SensorHandler16getOpenedSensorsB5cxx11Ev@Base 1.2+1640
 _ZNK5nidas4core13UnixIOChannel10isNewInputEv@Base 1.2+1640
 _ZNK5nidas4core13UnixIOChannel13isNonBlockingEv@Base 1.2+1640
 _ZNK5nidas4core13UnixIOChannel5cloneEv@Base 1.2+1640
 _ZNK5nidas4core13UnixIOChannel5getFdEv@Base 1.2+1640
 _ZNK5nidas4core13UnixIOChannel7getNameB5cxx11Ev@Base 1.2+1640
 _ZNK5nidas4core14DatagramSocket10isNewInputEv@Base 1.2+1640
 _ZNK5nidas4core14DatagramSocket13getBufferSizeEv@Base 1.2+1640
 _ZNK5nidas4core14DatagramSocket13isNonBlockingEv@Base 1.2+1640
 _ZNK5nidas4core14DatagramSocket16writeNidasHeaderEv@Base 1.2+1640
 _ZNK5nidas4core14DatagramSocket5cloneEv@Base 1.2+1640
 _ZNK5nidas4core14DatagramSocket5getFdEv@Base 1.2+1640
 _ZNK5nidas4core14DatagramSocket7getNameB5cxx11Ev@Base 1.2+1640
 _ZNK5nidas4core14ProjectConfigs10getConfigsB5cxx11Ev@Base 1.2+1640
 _ZNK5nidas4core14ProjectConfigs11toDOMParentEPN11xercesc_3_210DOMElementE@Base 1.2+1640
 _ZNK5nidas4core14ProjectConfigs12toDOMElementEPN11xercesc_3_210DOMElementE@Base 1.2+1640
 _ZNK5nidas4core14ProjectConfigs9getConfigERKNS_4util5UTimeE@Base 1.2+1640
 _ZNK5nidas4core14ProjectConfigs9getConfigERKNSt7__cxx1112basic_stringIcSt11char_traitsIcESaIcEEE@Base 1.2+1640
 _ZNK5nidas4core14SampleAverager13getSampleTagsB5cxx11Ev@Base 1.2+1640
 _ZNK5nidas4core14SampleAverager14getClientCountEv@Base 1.2+1640
 _ZNK5nidas4core14SampleAverager14getSampleStatsEv@Base 1.2+1640
 _ZNK5nidas4core14SampleAverager20getSampleTagIteratorEv@Base 1.2+1640
 _ZNK5nidas4core14SamplePipeline13getSampleTagsB5cxx11Ev@Base 1.2+1640
 _ZNK5nidas4core14SamplePipeline14getClientCountEv@Base 1.2+1640
 _ZNK5nidas4core14SamplePipeline14getSampleStatsEv@Base 1.2+1640
 _ZNK5nidas4core14SamplePipeline20getSampleTagIteratorEv@Base 1.2+1640
 _ZNK5nidas4core14ServiceCatalog4findERKNSt7__cxx1112basic_stringIcSt11char_traitsIcESaIcEEE@Base 1.2+1640
 _ZNK5nidas4core15BadSampleFiltereqERKS1_@Base 1.2+1640
 _ZNK5nidas4core15CharacterSensor10isPromptedEv@Base 1.2+1640
 _ZNK5nidas4core15CharacterSensor11isPromptingEv@Base 1.2+1640
 _ZNK5nidas4core16NearestResampler13getSampleTagsB5cxx11Ev@Base 1.2+1640
 _ZNK5nidas4core16NearestResampler14getClientCountEv@Base 1.2+1640
 _ZNK5nidas4core16NearestResampler14getSampleStatsEv@Base 1.2+1640
 _ZNK5nidas4core16NearestResampler20getSampleTagIteratorEv@Base 1.2+1640
 _ZNK5nidas4core16SampleClientList5emptyEv@Base 1.2+1640
 _ZNK5nidas4core16SampleOutputBase10getLatencyEv@Base 1.2+1640
 _ZNK5nidas4core16SampleOutputBase11getOriginalEv@Base 1.2+1640
 _ZNK5nidas4core16SampleOutputBase12getDSMConfigEv@Base 1.2+1640
 _ZNK5nidas4core16SampleOutputBase12getIOChannelEv@Base 1.2+1640
 _ZNK5nidas4core16SampleOutputBase12getParameterERKNSt7__cxx1112basic_stringIcSt11char_traitsIcESaIcEEE@Base 1.2+1640
 _ZNK5nidas4core16SampleOutputBase19getSourceSampleTagsB5cxx11Ev@Base 1.2+1640
 _ZNK5nidas4core16SampleOutputBase21getReconnectDelaySecsEv@Base 1.2+1640
 _ZNK5nidas4core16SampleOutputBase22getRequestedSampleTagsB5cxx11Ev@Base 1.2+1640
 _ZNK5nidas4core16SampleOutputBase5getFdEv@Base 1.2+1640
 _ZNK5nidas4core16SampleOutputBase5isRawEv@Base 1.2+1640
 _ZNK5nidas4core16SampleOutputBase7getNameB5cxx11Ev@Base 1.2+1640
 _ZNK5nidas4core16XMLFdInputSource10makeStreamEv@Base 1.2+1640
 _ZNK5nidas4core17SampleIOProcessor10getOutputsB5cxx11Ev@Base 1.2+1640
 _ZNK5nidas4core17SampleIOProcessor10getServiceEv@Base 1.2+1640
 _ZNK5nidas4core17SampleIOProcessor10isOptionalEv@Base 1.2+1640
 _ZNK5nidas4core17SampleIOProcessor12getDSMConfigEv@Base 1.2+1640
 _ZNK5nidas4core17SampleIOProcessor13getSampleTagsB5cxx11Ev@Base 1.2+1640
 _ZNK5nidas4core17SampleIOProcessor14getClientCountEv@Base 1.2+1640
 _ZNK5nidas4core17SampleIOProcessor14getSampleStatsEv@Base 1.2+1640
 _ZNK5nidas4core17SampleIOProcessor20getSampleTagIteratorEv@Base 1.2+1640
 _ZNK5nidas4core17SampleIOProcessor22getRequestedSampleTagsB5cxx11Ev@Base 1.2+1640
 _ZNK5nidas4core17SampleIOProcessor7getNameB5cxx11Ev@Base 1.2+1640
 _ZNK5nidas4core17SampleInputHeader13getConfigNameB5cxx11Ev@Base 1.2+1640
 _ZNK5nidas4core17SampleInputHeader13getSystemNameB5cxx11Ev@Base 1.2+1640
 _ZNK5nidas4core17SampleInputHeader14getDummyStringB5cxx11Ev@Base 1.2+1640
 _ZNK5nidas4core17SampleInputHeader14getProjectNameB5cxx11Ev@Base 1.2+1640
 _ZNK5nidas4core17SampleInputHeader16getConfigVersionB5cxx11Ev@Base 1.2+1640
 _ZNK5nidas4core17SampleInputHeader17getArchiveVersionB5cxx11Ev@Base 1.2+1640
 _ZNK5nidas4core17SampleInputHeader18getSoftwareVersionB5cxx11Ev@Base 1.2+1640
 _ZNK5nidas4core17SampleInputHeader5writeEPNS0_12SampleOutputE@Base 1.2+1640
 _ZNK5nidas4core17SampleInputHeader5writeEPNS0_8IOStreamE@Base 1.2+1640
 _ZNK5nidas4core17SampleInputHeader8toStringB5cxx11Ev@Base 1.2+1640
 _ZNK5nidas4core17TCPSocketIODevice10getWriteFdEv@Base 1.2+1640
 _ZNK5nidas4core17TCPSocketIODevice9getReadFdEv@Base 1.2+1640
 _ZNK5nidas4core17UDPSocketIODevice10getWriteFdEv@Base 1.2+1640
 _ZNK5nidas4core17UDPSocketIODevice9getReadFdEv@Base 1.2+1640
 _ZNK5nidas4core17VariableConverter12getDSMConfigEv@Base 1.2+1640
 _ZNK5nidas4core17VariableConverter12getDSMSensorEv@Base 1.2+1640
 _ZNK5nidas4core17VariableConverter12getParameterERKNSt7__cxx1112basic_stringIcSt11char_traitsIcESaIcEEE@Base 1.2+1640
 _ZNK5nidas4core17VariableConverter8getUnitsB5cxx11Ev@Base 1.2+1640
 _ZNK5nidas4core18MultipleUDPSockets13getBufferSizeEv@Base 1.2+1640
 _ZNK5nidas4core18MultipleUDPSockets5cloneEv@Base 1.2+1640
 _ZNK5nidas4core18MultipleUDPSockets5getFdEv@Base 1.2+1640
 _ZNK5nidas4core18SerialPortIODevice15getUsecsPerByteEv@Base 1.2+1640
 _ZNK5nidas4core19SampleSourceSupport13getSampleTagsB5cxx11Ev@Base 1.2+1640
 _ZNK5nidas4core19SampleSourceSupport14getClientCountEv@Base 1.2+1640
 _ZNK5nidas4core19SampleSourceSupport14getSampleStatsEv@Base 1.2+1640
 _ZNK5nidas4core19SampleSourceSupport20getSampleTagIteratorEv@Base 1.2+1640
 _ZNK5nidas4core19XMLFdBinInputStream14getContentTypeEv@Base 1.2+1640
 _ZNK5nidas4core19XMLFdBinInputStream6curPosEv@Base 1.2+1640
 _ZNK5nidas4core20MessageSampleScanner16getMessageLengthEv@Base 1.2+1640
 _ZNK5nidas4core20MessageSampleScanner19getMessageSeparatorB5cxx11Ev@Base 1.2+1640
 _ZNK5nidas4core20MessageSampleScanner24getMessageSeparatorAtEOMEv@Base 1.2+1640
 _ZNK5nidas4core20MessageSampleScanner30getBackslashedMessageSeparatorB5cxx11Ev@Base 1.2+1640
 _ZNK5nidas4core20MessageStreamScanner16getMessageLengthEv@Base 1.2+1640
 _ZNK5nidas4core20MessageStreamScanner16getNullTerminateEv@Base 1.2+1640
 _ZNK5nidas4core20MessageStreamScanner19getMessageSeparatorB5cxx11Ev@Base 1.2+1640
 _ZNK5nidas4core20MessageStreamScanner24getMessageSeparatorAtEOMEv@Base 1.2+1640
 _ZNK5nidas4core20MessageStreamScanner30getBackslashedMessageSeparatorB5cxx11Ev@Base 1.2+1640
 _ZNK5nidas4core20RemoteSerialListener5getFdEv@Base 1.2+1640
 _ZNK5nidas4core20ServerSocketIODevice10getWriteFdEv@Base 1.2+1640
 _ZNK5nidas4core20ServerSocketIODevice9getReadFdEv@Base 1.2+1640
 _ZNK5nidas4core21DatagramSampleScanner16getNullTerminateEv@Base 1.2+1640
 _ZNK5nidas4core21SampleLengthException5cloneEv@Base 1.2+1640
 _ZNK5nidas4core21XMLConfigWriterFilter10acceptNodeEPKN11xercesc_3_27DOMNodeE@Base 1.2+1640
 _ZNK5nidas4core21XMLConfigWriterFilter13acceptDSMNodeEPKN11xercesc_3_27DOMNodeE@Base 1.2+1640
 _ZNK5nidas4core21XMLConfigWriterFilter13getWhatToShowEv@Base 1.2+1640
 _ZNK5nidas4core22NearestResamplerAtRate13getSampleTagsB5cxx11Ev@Base 1.2+1640
 _ZNK5nidas4core22NearestResamplerAtRate14getClientCountEv@Base 1.2+1640
 _ZNK5nidas4core22NearestResamplerAtRate14getSampleStatsEv@Base 1.2+1640
 _ZNK5nidas4core22NearestResamplerAtRate20getSampleTagIteratorEv@Base 1.2+1640
 _ZNK5nidas4core22RemoteSerialConnection5getFdEv@Base 1.2+1640
 _ZNK5nidas4core29BluetoothRFCommSocketIODevice10getWriteFdEv@Base 1.2+1640
 _ZNK5nidas4core29BluetoothRFCommSocketIODevice9getReadFdEv@Base 1.2+1640
 _ZNK5nidas4core4Site10findSensorEj@Base 1.2+1640
 _ZNK5nidas4core4Site10findServerERKNSt7__cxx1112basic_stringIcSt11char_traitsIcESaIcEEE@Base 1.2+1640
 _ZNK5nidas4core4Site11toDOMParentEPN11xercesc_3_210DOMElementEb@Base 1.2+1640
 _ZNK5nidas4core4Site12MyDictionary13getTokenValueERKNSt7__cxx1112basic_stringIcSt11char_traitsIcESaIcEEERS8_@Base 1.2+1640
 _ZNK5nidas4core4Site12getParameterERKNSt7__cxx1112basic_stringIcSt11char_traitsIcESaIcEEE@Base 1.2+1640
 _ZNK5nidas4core4Site12toDOMElementEPN11xercesc_3_210DOMElementEb@Base 1.2+1640
 _ZNK5nidas4core4Site13getParametersB5cxx11Ev@Base 1.2+1640
 _ZNK5nidas4core4Site17getSensorIteratorEv@Base 1.2+1640
 _ZNK5nidas4core4Site19getVariableIteratorEv@Base 1.2+1640
 _ZNK5nidas4core4Site20getDSMConfigIteratorEv@Base 1.2+1640
 _ZNK5nidas4core4Site20getDSMServerIteratorEv@Base 1.2+1640
 _ZNK5nidas4core4Site20getProcessorIteratorEv@Base 1.2+1640
 _ZNK5nidas4core4Site20getSampleTagIteratorEv@Base 1.2+1640
 _ZNK5nidas4core4Site21getDSMServiceIteratorEv@Base 1.2+1640
 _ZNK5nidas4core4Site27getApplyVariableConversionsEv@Base 1.2+1640
 _ZNK5nidas4core4Site7findDSMERKNS_4util12Inet4AddressE@Base 1.2+1640
 _ZNK5nidas4core4Site7findDSMERKNSt7__cxx1112basic_stringIcSt11char_traitsIcESaIcEEE@Base 1.2+1640
 _ZNK5nidas4core4Site7findDSMEj@Base 1.2+1640
 _ZNK5nidas4core6Linear5cloneEv@Base 1.2+1640
 _ZNK5nidas4core6Linear8toStringB5cxx11Ev@Base 1.2+1640
 _ZNK5nidas4core6Socket10isNewInputEv@Base 1.2+1640
 _ZNK5nidas4core6Socket13getBufferSizeEv@Base 1.2+1640
 _ZNK5nidas4core6Socket13isNonBlockingEv@Base 1.2+1640
 _ZNK5nidas4core6Socket14getRequestTypeEv@Base 1.2+1640
 _ZNK5nidas4core6Socket5cloneEv@Base 1.2+1640
 _ZNK5nidas4core6Socket5getFdEv@Base 1.2+1640
 _ZNK5nidas4core6Socket7getNameB5cxx11Ev@Base 1.2+1640
 _ZNK5nidas4core7CalFile12getDSMSensorEv@Base 1.2+1640
 _ZNK5nidas4core7CalFile7getFileB5cxx11Ev@Base 1.2+1640
 _ZNK5nidas4core7CalFile7getPathB5cxx11Ev@Base 1.2+1640
 _ZNK5nidas4core7DOMable11toDOMParentEPN11xercesc_3_210DOMElementEb@Base 1.2+1640
 _ZNK5nidas4core7DOMable12toDOMElementEPN11xercesc_3_210DOMElementEb@Base 1.2+1640
 _ZNK5nidas4core7Dataset11toDOMParentEPN11xercesc_3_210DOMElementE@Base 1.2+1640
 _ZNK5nidas4core7Dataset12toDOMElementEPN11xercesc_3_210DOMElementE@Base 1.2+1640
 _ZNK5nidas4core7Dataset6putenvEv@Base 1.2+1640
 _ZNK5nidas4core7FileSet10isNewInputEv@Base 1.2+1640
 _ZNK5nidas4core7FileSet13isNonBlockingEv@Base 1.2+1640
 _ZNK5nidas4core7FileSet21getReconnectDelaySecsEv@Base 1.2+1640
 _ZNK5nidas4core7FileSet5cloneEv@Base 1.2+1640
 _ZNK5nidas4core7FileSet5getFdEv@Base 1.2+1640
 _ZNK5nidas4core7FileSet7getNameB5cxx11Ev@Base 1.2+1640
 _ZNK5nidas4core7Project10findSensorEPKNS0_9SampleTagE@Base 1.2+1640
 _ZNK5nidas4core7Project10findSensorEj@Base 1.2+1640
 _ZNK5nidas4core7Project10findServerERKNS_4util12Inet4AddressE@Base 1.2+1640
 _ZNK5nidas4core7Project11findServersERKNSt7__cxx1112basic_stringIcSt11char_traitsIcESaIcEEE@Base 1.2+1640
 _ZNK5nidas4core7Project11toDOMParentEPN11xercesc_3_210DOMElementEb@Base 1.2+1640
 _ZNK5nidas4core7Project12MyDictionary13getTokenValueERKNSt7__cxx1112basic_stringIcSt11char_traitsIcESaIcEEERS8_@Base 1.2+1640
 _ZNK5nidas4core7Project12getParameterERKNSt7__cxx1112basic_stringIcSt11char_traitsIcESaIcEEE@Base 1.2+1640
 _ZNK5nidas4core7Project12toDOMElementEPN11xercesc_3_210DOMElementEb@Base 1.2+1640
 _ZNK5nidas4core7Project13getFlightNameB5cxx11Ev@Base 1.2+1640
 _ZNK5nidas4core7Project15getSiteIteratorEv@Base 1.2+1640
 _ZNK5nidas4core7Project17getSensorIteratorEv@Base 1.2+1640
 _ZNK5nidas4core7Project19getVariableIteratorEv@Base 1.2+1640
 _ZNK5nidas4core7Project20getDSMConfigIteratorEv@Base 1.2+1640
 _ZNK5nidas4core7Project20getDSMServerIteratorEv@Base 1.2+1640
 _ZNK5nidas4core7Project20getProcessorIteratorEv@Base 1.2+1640
 _ZNK5nidas4core7Project20getSampleTagIteratorEv@Base 1.2+1640
 _ZNK5nidas4core7Project21getDSMServiceIteratorEv@Base 1.2+1640
 _ZNK5nidas4core7Project30findSampleOutputStreamFileSetsB5cxx11Ev@Base 1.2+1640
 _ZNK5nidas4core7Project30findSampleOutputStreamFileSetsERKNSt7__cxx1112basic_stringIcSt11char_traitsIcESaIcEEE@Base 1.2+1640
 _ZNK5nidas4core7Project36findServerSampleOutputStreamFileSetsB5cxx11Ev@Base 1.2+1640
 _ZNK5nidas4core7Project36findServerSampleOutputStreamFileSetsERKNSt7__cxx1112basic_stringIcSt11char_traitsIcESaIcEEE@Base 1.2+1640
 _ZNK5nidas4core7Project7findDSMERKNS_4util12Inet4AddressE@Base 1.2+1640
 _ZNK5nidas4core7Project7findDSMERKNSt7__cxx1112basic_stringIcSt11char_traitsIcESaIcEEE@Base 1.2+1640
 _ZNK5nidas4core7Project7findDSMEj@Base 1.2+1640
 _ZNK5nidas4core7Project8findSiteERKNSt7__cxx1112basic_stringIcSt11char_traitsIcESaIcEEE@Base 1.2+1640
 _ZNK5nidas4core7Project8findSiteEi@Base 1.2+1640
 _ZNK5nidas4core7SampleTIcE12getDataValueEj@Base 1.2+1640
 _ZNK5nidas4core7SampleTIcE13freeReferenceEv@Base 1.2+1640
 _ZNK5nidas4core7SampleTIcE13getDataLengthEv@Base 1.2+1640
 _ZNK5nidas4core7SampleTIcE14getAllocLengthEv@Base 1.2+1640
 _ZNK5nidas4core7SampleTIcE18getAllocByteLengthEv@Base 1.2+1640
 _ZNK5nidas4core7SampleTIcE19getConstVoidDataPtrEv@Base 1.2+1640
 _ZNK5nidas4core7SampleTIcE7getTypeEv@Base 1.2+1640
 _ZNK5nidas4core7SampleTIdE12getDataValueEj@Base 1.2+1640
 _ZNK5nidas4core7SampleTIdE13freeReferenceEv@Base 1.2+1640
 _ZNK5nidas4core7SampleTIdE13getDataLengthEv@Base 1.2+1640
 _ZNK5nidas4core7SampleTIdE14getAllocLengthEv@Base 1.2+1640
 _ZNK5nidas4core7SampleTIdE18getAllocByteLengthEv@Base 1.2+1640
 _ZNK5nidas4core7SampleTIdE19getConstVoidDataPtrEv@Base 1.2+1640
 _ZNK5nidas4core7SampleTIdE7getTypeEv@Base 1.2+1640
 _ZNK5nidas4core7SampleTIfE12getDataValueEj@Base 1.2+1640
 _ZNK5nidas4core7SampleTIfE13freeReferenceEv@Base 1.2+1640
 _ZNK5nidas4core7SampleTIfE13getDataLengthEv@Base 1.2+1640
 _ZNK5nidas4core7SampleTIfE14getAllocLengthEv@Base 1.2+1640
 _ZNK5nidas4core7SampleTIfE18getAllocByteLengthEv@Base 1.2+1640
 _ZNK5nidas4core7SampleTIfE19getConstVoidDataPtrEv@Base 1.2+1640
 _ZNK5nidas4core7SampleTIfE7getTypeEv@Base 1.2+1640
 _ZNK5nidas4core7SampleTIhE12getDataValueEj@Base 1.2+1640
 _ZNK5nidas4core7SampleTIhE13freeReferenceEv@Base 1.2+1640
 _ZNK5nidas4core7SampleTIhE13getDataLengthEv@Base 1.2+1640
 _ZNK5nidas4core7SampleTIhE14getAllocLengthEv@Base 1.2+1640
 _ZNK5nidas4core7SampleTIhE18getAllocByteLengthEv@Base 1.2+1640
 _ZNK5nidas4core7SampleTIhE19getConstVoidDataPtrEv@Base 1.2+1640
 _ZNK5nidas4core7SampleTIhE7getTypeEv@Base 1.2+1640
 _ZNK5nidas4core7SampleTIiE12getDataValueEj@Base 1.2+1640
 _ZNK5nidas4core7SampleTIiE13freeReferenceEv@Base 1.2+1640
 _ZNK5nidas4core7SampleTIiE13getDataLengthEv@Base 1.2+1640
 _ZNK5nidas4core7SampleTIiE14getAllocLengthEv@Base 1.2+1640
 _ZNK5nidas4core7SampleTIiE18getAllocByteLengthEv@Base 1.2+1640
 _ZNK5nidas4core7SampleTIiE19getConstVoidDataPtrEv@Base 1.2+1640
 _ZNK5nidas4core7SampleTIiE7getTypeEv@Base 1.2+1640
 _ZNK5nidas4core7SampleTIjE12getDataValueEj@Base 1.2+1640
 _ZNK5nidas4core7SampleTIjE13freeReferenceEv@Base 1.2+1640
 _ZNK5nidas4core7SampleTIjE13getDataLengthEv@Base 1.2+1640
 _ZNK5nidas4core7SampleTIjE14getAllocLengthEv@Base 1.2+1640
 _ZNK5nidas4core7SampleTIjE18getAllocByteLengthEv@Base 1.2+1640
 _ZNK5nidas4core7SampleTIjE19getConstVoidDataPtrEv@Base 1.2+1640
 _ZNK5nidas4core7SampleTIjE7getTypeEv@Base 1.2+1640
 _ZNK5nidas4core7SampleTIsE12getDataValueEj@Base 1.2+1640
 _ZNK5nidas4core7SampleTIsE13freeReferenceEv@Base 1.2+1640
 _ZNK5nidas4core7SampleTIsE13getDataLengthEv@Base 1.2+1640
 _ZNK5nidas4core7SampleTIsE14getAllocLengthEv@Base 1.2+1640
 _ZNK5nidas4core7SampleTIsE18getAllocByteLengthEv@Base 1.2+1640
 _ZNK5nidas4core7SampleTIsE19getConstVoidDataPtrEv@Base 1.2+1640
 _ZNK5nidas4core7SampleTIsE7getTypeEv@Base 1.2+1640
 _ZNK5nidas4core7SampleTItE12getDataValueEj@Base 1.2+1640
 _ZNK5nidas4core7SampleTItE13freeReferenceEv@Base 1.2+1640
 _ZNK5nidas4core7SampleTItE13getDataLengthEv@Base 1.2+1640
 _ZNK5nidas4core7SampleTItE14getAllocLengthEv@Base 1.2+1640
 _ZNK5nidas4core7SampleTItE18getAllocByteLengthEv@Base 1.2+1640
 _ZNK5nidas4core7SampleTItE19getConstVoidDataPtrEv@Base 1.2+1640
 _ZNK5nidas4core7SampleTItE7getTypeEv@Base 1.2+1640
 _ZNK5nidas4core7SampleTIxE12getDataValueEj@Base 1.2+1640
 _ZNK5nidas4core7SampleTIxE13freeReferenceEv@Base 1.2+1640
 _ZNK5nidas4core7SampleTIxE13getDataLengthEv@Base 1.2+1640
 _ZNK5nidas4core7SampleTIxE14getAllocLengthEv@Base 1.2+1640
 _ZNK5nidas4core7SampleTIxE18getAllocByteLengthEv@Base 1.2+1640
 _ZNK5nidas4core7SampleTIxE19getConstVoidDataPtrEv@Base 1.2+1640
 _ZNK5nidas4core7SampleTIxE7getTypeEv@Base 1.2+1640
 _ZNK5nidas4core8Datasets10getDatasetERKNSt7__cxx1112basic_stringIcSt11char_traitsIcESaIcEEE@Base 1.2+1640
 _ZNK5nidas4core8Datasets11getDatasetsB5cxx11Ev@Base 1.2+1640
 _ZNK5nidas4core8Datasets11toDOMParentEPN11xercesc_3_210DOMElementE@Base 1.2+1640
 _ZNK5nidas4core8Datasets12toDOMElementEPN11xercesc_3_210DOMElementE@Base 1.2+1640
 _ZNK5nidas4core8IODevice17getBytesAvailableEv@Base 1.2+1640
 _ZNK5nidas4core8IODevice7getNameB5cxx11Ev@Base 1.2+1640
 _ZNK5nidas4core8McSocket10isNewInputEv@Base 1.2+1640
 _ZNK5nidas4core8McSocket13isNonBlockingEv@Base 1.2+1640
 _ZNK5nidas4core8McSocket14getRequestTypeEv@Base 1.2+1640
 _ZNK5nidas4core8McSocket5cloneEv@Base 1.2+1640
 _ZNK5nidas4core8McSocket5getFdEv@Base 1.2+1640
 _ZNK5nidas4core8McSocket7getNameB5cxx11Ev@Base 1.2+1640
 _ZNK5nidas4core8Variable10closeMatchERKS1_@Base 1.2+1640
 _ZNK5nidas4core8Variable11toDOMParentEPN11xercesc_3_210DOMElementEb@Base 1.2+1640
 _ZNK5nidas4core8Variable12getParameterERKNSt7__cxx1112basic_stringIcSt11char_traitsIcESaIcEEE@Base 1.2+1640
 _ZNK5nidas4core8Variable12toDOMElementEPN11xercesc_3_210DOMElementEb@Base 1.2+1640
 _ZNK5nidas4core8Variable13getSampleRateEv@Base 1.2+1640
 _ZNK5nidas4core8VariableeqERKS1_@Base 1.2+1640
 _ZNK5nidas4core8VariableltERKS1_@Base 1.2+1640
 _ZNK5nidas4core8VariableneERKS1_@Base 1.2+1640
 _ZNK5nidas4core9DSMConfig10getProjectEv@Base 1.2+1640
 _ZNK5nidas4core9DSMConfig11toDOMParentEPN11xercesc_3_210DOMElementEb@Base 1.2+1640
 _ZNK5nidas4core9DSMConfig12MyDictionary13getTokenValueERKNSt7__cxx1112basic_stringIcSt11char_traitsIcESaIcEEERS8_@Base 1.2+1640
 _ZNK5nidas4core9DSMConfig12toDOMElementEPN11xercesc_3_210DOMElementEb@Base 1.2+1640
 _ZNK5nidas4core9DSMConfig13getProcessorsB5cxx11Ev@Base 1.2+1640
 _ZNK5nidas4core9DSMConfig17getSensorIteratorEv@Base 1.2+1640
 _ZNK5nidas4core9DSMConfig19getVariableIteratorEv@Base 1.2+1640
 _ZNK5nidas4core9DSMConfig20getProcessorIteratorEv@Base 1.2+1640
 _ZNK5nidas4core9DSMConfig20getSampleTagIteratorEv@Base 1.2+1640
 _ZNK5nidas4core9DSMConfig30findSampleOutputStreamFileSetsB5cxx11Ev@Base 1.2+1640
 _ZNK5nidas4core9DSMSensor10getDSMNameB5cxx11Ev@Base 1.2+1640
 _ZNK5nidas4core9DSMSensor10getLagSecsEv@Base 1.2+1640
 _ZNK5nidas4core9DSMSensor10getLatencyEv@Base 1.2+1640
 _ZNK5nidas4core9DSMSensor10getWriteFdEv@Base 1.2+1640
 _ZNK5nidas4core9DSMSensor11getLagUsecsEv@Base 1.2+1640
 _ZNK5nidas4core9DSMSensor11getLocationB5cxx11Ev@Base 1.2+1640
 _ZNK5nidas4core9DSMSensor11getTypeNameB5cxx11Ev@Base 1.2+1640
 _ZNK5nidas4core9DSMSensor11toDOMParentEPN11xercesc_3_210DOMElementEb@Base 1.2+1640
 _ZNK5nidas4core9DSMSensor12MyDictionary13getTokenValueERKNSt7__cxx1112basic_stringIcSt11char_traitsIcESaIcEEERS8_@Base 1.2+1640
 _ZNK5nidas4core9DSMSensor12getClassNameB5cxx11Ev@Base 1.2+1640
 _ZNK5nidas4core9DSMSensor12getParameterERKNSt7__cxx1112basic_stringIcSt11char_traitsIcESaIcEEE@Base 1.2+1640
 _ZNK5nidas4core9DSMSensor12toDOMElementEPN11xercesc_3_210DOMElementEb@Base 1.2+1640
 _ZNK5nidas4core9DSMSensor13getDeviceNameB5cxx11Ev@Base 1.2+1640
 _ZNK5nidas4core9DSMSensor13getSampleTagsB5cxx11Ev@Base 1.2+1640
 _ZNK5nidas4core9DSMSensor14getCatalogNameB5cxx11Ev@Base 1.2+1640
 _ZNK5nidas4core9DSMSensor14getClientCountEv@Base 1.2+1640
 _ZNK5nidas4core9DSMSensor14getDefaultModeEv@Base 1.2+1640
 _ZNK5nidas4core9DSMSensor14getSampleStatsEv@Base 1.2+1640
 _ZNK5nidas4core9DSMSensor15getTimeoutMsecsEv@Base 1.2+1640
 _ZNK5nidas4core9DSMSensor17getBytesAvailableEv@Base 1.2+1640
 _ZNK5nidas4core9DSMSensor19getVariableIteratorEv@Base 1.2+1640
 _ZNK5nidas4core9DSMSensor19reopenOnIOExceptionEv@Base 1.2+1640
 _ZNK5nidas4core9DSMSensor20getSampleTagIteratorEv@Base 1.2+1640
 _ZNK5nidas4core9DSMSensor21getDriverTimeTagUsecsEv@Base 1.2+1640
 _ZNK5nidas4core9DSMSensor27getApplyVariableConversionsEv@Base 1.2+1640
 _ZNK5nidas4core9DSMSensor7getNameB5cxx11Ev@Base 1.2+1640
 _ZNK5nidas4core9DSMSensor7getSiteEv@Base 1.2+1640
 _ZNK5nidas4core9DSMSensor9getReadFdEv@Base 1.2+1640
 _ZNK5nidas4core9DSMServer17getSensorIteratorEv@Base 1.2+1640
 _ZNK5nidas4core9DSMServer20getProcessorIteratorEv@Base 1.2+1640
 _ZNK5nidas4core9DSMServer20getSampleTagIteratorEv@Base 1.2+1640
 _ZNK5nidas4core9DSMServer21getDSMServiceIteratorEv@Base 1.2+1640
 _ZNK5nidas4core9IOChannel10isNewInputEv@Base 1.2+1640
 _ZNK5nidas4core9IOChannel12getDSMConfigEv@Base 1.2+1640
 _ZNK5nidas4core9IOChannel13getBufferSizeEv@Base 1.2+1640
 _ZNK5nidas4core9IOChannel14getRequestTypeEv@Base 1.2+1640
 _ZNK5nidas4core9IOChannel16writeNidasHeaderEv@Base 1.2+1640
 _ZNK5nidas4core9IOChannel17getConnectionInfoEv@Base 1.2+1640
 _ZNK5nidas4core9IOChannel21getReconnectDelaySecsEv@Base 1.2+1640
 _ZNK5nidas4core9Parameter14getStringValueB5cxx11Ei@Base 1.2+1640
 _ZNK5nidas4core9Parameter15getNumericValueEi@Base 1.2+1640
 _ZNK5nidas4core9SampleTag11toDOMParentEPN11xercesc_3_210DOMElementEb@Base 1.2+1640
 _ZNK5nidas4core9SampleTag12getDataIndexEPKNS0_8VariableE@Base 1.2+1640
 _ZNK5nidas4core9SampleTag12getParameterERKNSt7__cxx1112basic_stringIcSt11char_traitsIcESaIcEEE@Base 1.2+1640
 _ZNK5nidas4core9SampleTag12getVariablesEv@Base 1.2+1640
 _ZNK5nidas4core9SampleTag12toDOMElementEPN11xercesc_3_210DOMElementEb@Base 1.2+1640
 _ZNK5nidas4core9SampleTag19getVariableIteratorEv@Base 1.2+1640
 _ZNK5nidas4core9SampleTag7getRateEv@Base 1.2+1640
 _ZNK5nidas4core9SampleTag7getSiteEv@Base 1.2+1640
 _ZNK5nidas4core9SampleTag9getPeriodEv@Base 1.2+1640
 _ZNK5nidas4util11IOException5cloneEv@Base 1.2+1640
 _ZNK5nidas4util14ParseException5cloneEv@Base 1.2+1640
 _ZNK5nidas4util15DatagramPacketTIcE19getConstDataVoidPtrEv@Base 1.2+1640
 _ZNK5nidas4util15Inet4PacketInfo12getInterfaceEv@Base 1.2+1640
 _ZNK5nidas4util15Inet4PacketInfo15getLocalAddressEv@Base 1.2+1640
 _ZNK5nidas4util15Inet4PacketInfo21getDestinationAddressEv@Base 1.2+1640
 _ZNK5nidas4util15Inet4PacketInfo8getFlagsEv@Base 1.2+1640
 _ZNK5nidas4util18DatagramPacketBase9getLengthEv@Base 1.2+1640
 _ZNK5nidas4util25InvalidParameterException5cloneEv@Base 1.2+1640
 _ZNK5nidas4util6Thread10isDetachedEv@Base 1.2+1640
 _ZNK5nidas4util6Thread13isInterruptedEv@Base 1.2+1640
 _ZNK5nidas4util6Thread8isJoinedEv@Base 1.2+1640
 _ZNK5nidas4util6Thread9isRunningEv@Base 1.2+1640
 _ZNK5nidas4util9Exception4whatEv@Base 1.2+1640
 _ZNK5nidas4util9Exception5cloneEv@Base 1.2+1640
 _ZNK5nidas4util9Exception8getErrnoEv@Base 1.2+1640
 _ZNK5nidas4util9Exception8toStringB5cxx11Ev@Base 1.2+1640
 _ZNKSt5ctypeIcE8do_widenEc@Base 1.2+1640
 _ZNSt13_Bvector_baseISaIbEE13_M_deallocateEv@Base 1.2+1640
 _ZNSt4pairIKNSt7__cxx1112basic_stringIcSt11char_traitsIcESaIcEEES6_ED1Ev@Base 1.2+1640
 _ZNSt4pairIKNSt7__cxx1112basic_stringIcSt11char_traitsIcESaIcEEES6_ED2Ev@Base 1.2+1640
 _ZNSt4pairINSt7__cxx1112basic_stringIcSt11char_traitsIcESaIcEEES5_ED1Ev@Base 1.2+1640
 _ZNSt4pairINSt7__cxx1112basic_stringIcSt11char_traitsIcESaIcEEES5_ED2Ev@Base 1.2+1640
 _ZNSt6vectorIN5nidas4core13SampleMatcher12RangeMatcherESaIS3_EE17_M_realloc_insertIJS3_EEEvN9__gnu_cxx17__normal_iteratorIPS3_S5_EEDpOT_@Base 1.2+1640
 _ZNSt6vectorIN5nidas4core17DerivedDataReader10IWG1_FieldESaIS3_EE12emplace_backIJS3_EEEvDpOT_@Base 1.2+1640
 _ZNSt6vectorIN5nidas4core17DerivedDataReader10IWG1_FieldESaIS3_EE17_M_realloc_insertIJS3_EEEvN9__gnu_cxx17__normal_iteratorIPS3_S5_EEDpOT_@Base 1.2+1640
 _ZNSt6vectorINSt7__cxx1112basic_stringIcSt11char_traitsIcESaIcEEESaIS5_EE12emplace_backIJS5_EEEvDpOT_@Base 1.2+1640
 _ZNSt6vectorINSt7__cxx1112basic_stringIcSt11char_traitsIcESaIcEEESaIS5_EE17_M_realloc_insertIJRKS5_EEEvN9__gnu_cxx17__normal_iteratorIPS5_S7_EEDpOT_@Base 1.2+1640
 _ZNSt6vectorINSt7__cxx1112basic_stringIcSt11char_traitsIcESaIcEEESaIS5_EE17_M_realloc_insertIJS5_EEEvN9__gnu_cxx17__normal_iteratorIPS5_S7_EEDpOT_@Base 1.2+1640
 _ZNSt6vectorINSt7__cxx1112basic_stringIcSt11char_traitsIcESaIcEEESaIS5_EE8_M_eraseEN9__gnu_cxx17__normal_iteratorIPS5_S7_EESB_@Base 1.2+1640
 _ZNSt6vectorINSt7__cxx1112basic_stringIcSt11char_traitsIcESaIcEEESaIS5_EED1Ev@Base 1.2+1640
 _ZNSt6vectorINSt7__cxx1112basic_stringIcSt11char_traitsIcESaIcEEESaIS5_EED2Ev@Base 1.2+1640
 _ZNSt6vectorINSt7__cxx1112basic_stringIcSt11char_traitsIcESaIcEEESaIS5_EEaSERKS7_@Base 1.2+1640
 _ZNSt6vectorIPKN5nidas4core8VariableESaIS4_EE17_M_realloc_insertIJS4_EEEvN9__gnu_cxx17__normal_iteratorIPS4_S6_EEDpOT_@Base 1.2+1640
 _ZNSt6vectorIPN5nidas4core11AsciiSscanf11FormatFieldESaIS4_EE17_M_realloc_insertIJRKS4_EEEvN9__gnu_cxx17__normal_iteratorIPS4_S6_EEDpOT_@Base 1.2+1640
 _ZNSt6vectorIPN5nidas4core11NidasAppArgESaIS3_EE17_M_realloc_insertIJS3_EEEvN9__gnu_cxx17__normal_iteratorIPS3_S5_EEDpOT_@Base 1.2+1640
 _ZNSt6vectorIPN5nidas4core8VariableESaIS3_EE17_M_realloc_insertIJRKS3_EEEvN9__gnu_cxx17__normal_iteratorIPS3_S5_EEDpOT_@Base 1.2+1640
 _ZNSt6vectorIbSaIbEE13_M_insert_auxESt13_Bit_iteratorb@Base 1.2+1640
 _ZNSt6vectorIfSaIfEE17_M_realloc_insertIJRKfEEEvN9__gnu_cxx17__normal_iteratorIPfS1_EEDpOT_@Base 1.2+1640
 _ZNSt6vectorIfSaIfEEaSERKS1_@Base 1.2+1640
 _ZNSt6vectorIiSaIiEEaSERKS1_@Base 1.2+1640
 _ZNSt6vectorIjSaIjEE17_M_realloc_insertIJRKjEEEvN9__gnu_cxx17__normal_iteratorIPjS1_EEDpOT_@Base 1.2+1640
 _ZNSt6vectorIjSaIjEEaSERKS1_@Base 1.2+1640
 _ZNSt7__cxx1110_List_baseIN5nidas4core7DatasetESaIS3_EE8_M_clearEv@Base 1.2+1640
 _ZNSt7__cxx1110_List_baseIN5nidas4util21Inet4NetworkInterfaceESaIS3_EE8_M_clearEv@Base 1.2+1640
 _ZNSt7__cxx1110_List_baseINS_12basic_stringIcSt11char_traitsIcESaIcEEESaIS5_EE8_M_clearEv@Base 1.2+1640
 _ZNSt7__cxx1115basic_stringbufIcSt11char_traitsIcESaIcEED0Ev@Base 1.2+1640
 _ZNSt7__cxx1115basic_stringbufIcSt11char_traitsIcESaIcEED1Ev@Base 1.2+1640
 _ZNSt7__cxx1115basic_stringbufIcSt11char_traitsIcESaIcEED2Ev@Base 1.2+1640
 _ZNSt7__cxx114listIPKN5nidas4core13ProjectConfigESaIS5_EE7emplaceIJS5_EEESt14_List_iteratorIS5_ESt20_List_const_iteratorIS5_EDpOT_@Base 1.2+1640
 _ZNSt7__cxx114listIPN5nidas4core12SampleClientESaIS4_EE18_M_assign_dispatchISt20_List_const_iteratorIS4_EEEvT_SA_St12__false_type@Base 1.2+1640
 _ZNSt7__cxx114listIPN5nidas4core13ProjectConfigESaIS4_EE6insertESt20_List_const_iteratorIS4_ERKS4_@Base 1.2+1640
 _ZNSt8_Rb_treeIN5nidas4core8VariableES2_St9_IdentityIS2_ESt4lessIS2_ESaIS2_EE16_M_insert_uniqueIRKS2_EESt4pairISt17_Rb_tree_iteratorIS2_EbEOT_@Base 1.2+1640
 _ZNSt8_Rb_treeIN5nidas4core8VariableES2_St9_IdentityIS2_ESt4lessIS2_ESaIS2_EE4findERKS2_@Base 1.2+1640
 _ZNSt8_Rb_treeIN5nidas4core8VariableES2_St9_IdentityIS2_ESt4lessIS2_ESaIS2_EE8_M_eraseEPSt13_Rb_tree_nodeIS2_E@Base 1.2+1640
 _ZNSt8_Rb_treeIN5nidas4util12Inet4AddressESt4pairIKS2_PNS1_14DatagramSocketEESt10_Select1stIS7_ESt4lessIS2_ESaIS7_EE24_M_get_insert_unique_posERS4_@Base 1.2+1640
 _ZNSt8_Rb_treeIN5nidas4util12Inet4AddressESt4pairIKS2_PNS1_14DatagramSocketEESt10_Select1stIS7_ESt4lessIS2_ESaIS7_EE5eraseERS4_@Base 1.2+1640
 _ZNSt8_Rb_treeIN5nidas4util12Inet4AddressESt4pairIKS2_PNS1_14DatagramSocketEESt10_Select1stIS7_ESt4lessIS2_ESaIS7_EE8_M_eraseEPSt13_Rb_tree_nodeIS7_E@Base 1.2+1640
 _ZNSt8_Rb_treeIN5nidas4util12Inet4AddressESt4pairIKS2_St3setINS1_18Inet4SocketAddressESt4lessIS6_ESaIS6_EEESt10_Select1stISB_ES7_IS2_ESaISB_EE24_M_get_insert_unique_posERS4_@Base 1.2+1640
 _ZNSt8_Rb_treeIN5nidas4util12Inet4AddressESt4pairIKS2_St3setINS1_18Inet4SocketAddressESt4lessIS6_ESaIS6_EEESt10_Select1stISB_ES7_IS2_ESaISB_EE8_M_eraseEPSt13_Rb_tree_nodeISB_E@Base 1.2+1640
 _ZNSt8_Rb_treeIN5nidas4util18Inet4SocketAddressES2_St9_IdentityIS2_ESt4lessIS2_ESaIS2_EE16_M_insert_uniqueIRKS2_EESt4pairISt17_Rb_tree_iteratorIS2_EbEOT_@Base 1.2+1640
 _ZNSt8_Rb_treeIN5nidas4util18Inet4SocketAddressES2_St9_IdentityIS2_ESt4lessIS2_ESaIS2_EE5eraseERKS2_@Base 1.2+1640
 _ZNSt8_Rb_treeIN5nidas4util18Inet4SocketAddressES2_St9_IdentityIS2_ESt4lessIS2_ESaIS2_EE7_M_copyINS8_11_Alloc_nodeEEEPSt13_Rb_tree_nodeIS2_EPKSC_PSt18_Rb_tree_node_baseRT_@Base 1.2+1640
 _ZNSt8_Rb_treeIN5nidas4util18Inet4SocketAddressES2_St9_IdentityIS2_ESt4lessIS2_ESaIS2_EE7_M_copyINS8_20_Reuse_or_alloc_nodeEEEPSt13_Rb_tree_nodeIS2_EPKSC_PSt18_Rb_tree_node_baseRT_@Base 1.2+1640
 _ZNSt8_Rb_treeIN5nidas4util18Inet4SocketAddressES2_St9_IdentityIS2_ESt4lessIS2_ESaIS2_EE8_M_eraseEPSt13_Rb_tree_nodeIS2_E@Base 1.2+1640
 _ZNSt8_Rb_treeIN5nidas4util18Inet4SocketAddressES2_St9_IdentityIS2_ESt4lessIS2_ESaIS2_EEaSERKS8_@Base 1.2+1640
 _ZNSt8_Rb_treeIN5nidas4util18Inet4SocketAddressESt4pairIKS2_NS1_12Inet4AddressEESt10_Select1stIS6_ESt4lessIS2_ESaIS6_EE22_M_emplace_hint_uniqueIJRKSt21piecewise_construct_tSt5tupleIJRS4_EESH_IJEEEEESt17_Rb_tree_iteratorIS6_ESt23_Rb_tree_const_iteratorIS6_EDpOT_@Base 1.2+1640
 _ZNSt8_Rb_treeIN5nidas4util18Inet4SocketAddressESt4pairIKS2_NS1_12Inet4AddressEESt10_Select1stIS6_ESt4lessIS2_ESaIS6_EE24_M_get_insert_unique_posERS4_@Base 1.2+1640
 _ZNSt8_Rb_treeIN5nidas4util18Inet4SocketAddressESt4pairIKS2_NS1_12Inet4AddressEESt10_Select1stIS6_ESt4lessIS2_ESaIS6_EE5eraseERS4_@Base 1.2+1640
 _ZNSt8_Rb_treeIN5nidas4util18Inet4SocketAddressESt4pairIKS2_NS1_12Inet4AddressEESt10_Select1stIS6_ESt4lessIS2_ESaIS6_EE8_M_eraseEPSt13_Rb_tree_nodeIS6_E@Base 1.2+1640
 _ZNSt8_Rb_treeIN5nidas4util18Inet4SocketAddressESt4pairIKS2_PNS1_14DatagramSocketEESt10_Select1stIS7_ESt4lessIS2_ESaIS7_EE22_M_emplace_hint_uniqueIJRKSt21piecewise_construct_tSt5tupleIJRS4_EESI_IJEEEEESt17_Rb_tree_iteratorIS7_ESt23_Rb_tree_const_iteratorIS7_EDpOT_@Base 1.2+1640
 _ZNSt8_Rb_treeIN5nidas4util18Inet4SocketAddressESt4pairIKS2_PNS1_14DatagramSocketEESt10_Select1stIS7_ESt4lessIS2_ESaIS7_EE24_M_get_insert_unique_posERS4_@Base 1.2+1640
 _ZNSt8_Rb_treeIN5nidas4util18Inet4SocketAddressESt4pairIKS2_PNS1_14DatagramSocketEESt10_Select1stIS7_ESt4lessIS2_ESaIS7_EE8_M_eraseEPSt13_Rb_tree_nodeIS7_E@Base 1.2+1640
 _ZNSt8_Rb_treeINSt7__cxx1112basic_stringIcSt11char_traitsIcESaIcEEES5_St9_IdentityIS5_ESt4lessIS5_ESaIS5_EE16_M_insert_uniqueIRKS5_EESt4pairISt17_Rb_tree_iteratorIS5_EbEOT_@Base 1.2+1640
 _ZNSt8_Rb_treeINSt7__cxx1112basic_stringIcSt11char_traitsIcESaIcEEES5_St9_IdentityIS5_ESt4lessIS5_ESaIS5_EE8_M_eraseEPSt13_Rb_tree_nodeIS5_E@Base 1.2+1640
 _ZNSt8_Rb_treeINSt7__cxx1112basic_stringIcSt11char_traitsIcESaIcEEESt4pairIKS5_N5nidas4core7DatasetEESt10_Select1stISB_ESt4lessIS5_ESaISB_EE24_M_get_insert_unique_posERS7_@Base 1.2+1640
 _ZNSt8_Rb_treeINSt7__cxx1112basic_stringIcSt11char_traitsIcESaIcEEESt4pairIKS5_N5nidas4core7DatasetEESt10_Select1stISB_ESt4lessIS5_ESaISB_EE8_M_eraseEPSt13_Rb_tree_nodeISB_E@Base 1.2+1640
 _ZNSt8_Rb_treeINSt7__cxx1112basic_stringIcSt11char_traitsIcESaIcEEESt4pairIKS5_N6XmlRpc11XmlRpcValueEESt10_Select1stISA_ESt4lessIS5_ESaISA_EE24_M_get_insert_unique_posERS7_@Base 1.2+1640
 _ZNSt8_Rb_treeINSt7__cxx1112basic_stringIcSt11char_traitsIcESaIcEEESt4pairIKS5_PN11xercesc_3_210DOMElementEESt10_Select1stISB_ESt4lessIS5_ESaISB_EE17_M_emplace_uniqueIJS6_IS5_SA_EEEES6_ISt17_Rb_tree_iteratorISB_EbEDpOT_@Base 1.2+1640
 _ZNSt8_Rb_treeINSt7__cxx1112basic_stringIcSt11char_traitsIcESaIcEEESt4pairIKS5_PN11xercesc_3_210DOMElementEESt10_Select1stISB_ESt4lessIS5_ESaISB_EE7_M_copyINSH_11_Alloc_nodeEEEPSt13_Rb_tree_nodeISB_EPKSL_PSt18_Rb_tree_node_baseRT_@Base 1.2+1640
 _ZNSt8_Rb_treeINSt7__cxx1112basic_stringIcSt11char_traitsIcESaIcEEESt4pairIKS5_PN11xercesc_3_210DOMElementEESt10_Select1stISB_ESt4lessIS5_ESaISB_EE7_M_copyINSH_20_Reuse_or_alloc_nodeEEEPSt13_Rb_tree_nodeISB_EPKSL_PSt18_Rb_tree_node_baseRT_@Base 1.2+1640
 _ZNSt8_Rb_treeINSt7__cxx1112basic_stringIcSt11char_traitsIcESaIcEEESt4pairIKS5_PN11xercesc_3_210DOMElementEESt10_Select1stISB_ESt4lessIS5_ESaISB_EE8_M_eraseEPSt13_Rb_tree_nodeISB_E@Base 1.2+1640
 _ZNSt8_Rb_treeINSt7__cxx1112basic_stringIcSt11char_traitsIcESaIcEEESt4pairIKS5_PN11xercesc_3_210DOMElementEESt10_Select1stISB_ESt4lessIS5_ESaISB_EEaSERKSH_@Base 1.2+1640
 _ZNSt8_Rb_treeINSt7__cxx1112basic_stringIcSt11char_traitsIcESaIcEEESt4pairIKS5_PN11xercesc_3_211DOMDocumentEESt10_Select1stISB_ESt4lessIS5_ESaISB_EE24_M_get_insert_unique_posERS7_@Base 1.2+1640
 _ZNSt8_Rb_treeINSt7__cxx1112basic_stringIcSt11char_traitsIcESaIcEEESt4pairIKS5_PN11xercesc_3_211DOMDocumentEESt10_Select1stISB_ESt4lessIS5_ESaISB_EE8_M_eraseEPSt13_Rb_tree_nodeISB_E@Base 1.2+1640
 _ZNSt8_Rb_treeINSt7__cxx1112basic_stringIcSt11char_traitsIcESaIcEEESt4pairIKS5_PN5nidas4core4SiteEESt10_Select1stISC_ESt4lessIS5_ESaISC_EE24_M_get_insert_unique_posERS7_@Base 1.2+1640
 _ZNSt8_Rb_treeINSt7__cxx1112basic_stringIcSt11char_traitsIcESaIcEEESt4pairIKS5_PN5nidas4core4SiteEESt10_Select1stISC_ESt4lessIS5_ESaISC_EE8_M_eraseEPSt13_Rb_tree_nodeISC_E@Base 1.2+1640
 _ZNSt8_Rb_treeINSt7__cxx1112basic_stringIcSt11char_traitsIcESaIcEEESt4pairIKS5_PN5nidas4core7CalFileEESt10_Select1stISC_ESt4lessIS5_ESaISC_EE24_M_get_insert_unique_posERS7_@Base 1.2+1640
 _ZNSt8_Rb_treeINSt7__cxx1112basic_stringIcSt11char_traitsIcESaIcEEESt4pairIKS5_PN5nidas4core7CalFileEESt10_Select1stISC_ESt4lessIS5_ESaISC_EE4findERS7_@Base 1.2+1640
 _ZNSt8_Rb_treeINSt7__cxx1112basic_stringIcSt11char_traitsIcESaIcEEESt4pairIKS5_PN5nidas4core7CalFileEESt10_Select1stISC_ESt4lessIS5_ESaISC_EE8_M_eraseEPSt13_Rb_tree_nodeISC_E@Base 1.2+1640
 _ZNSt8_Rb_treeINSt7__cxx1112basic_stringIcSt11char_traitsIcESaIcEEESt4pairIKS5_PN5nidas4core9DSMSensorEESt10_Select1stISC_ESt4lessIS5_ESaISC_EE24_M_get_insert_unique_posERS7_@Base 1.2+1640
 _ZNSt8_Rb_treeINSt7__cxx1112basic_stringIcSt11char_traitsIcESaIcEEESt4pairIKS5_PN5nidas4core9DSMSensorEESt10_Select1stISC_ESt4lessIS5_ESaISC_EE8_M_eraseEPSt13_Rb_tree_nodeISC_E@Base 1.2+1640
 _ZNSt8_Rb_treeINSt7__cxx1112basic_stringIcSt11char_traitsIcESaIcEEESt4pairIKS5_PN5nidas4core9ParameterEESt10_Select1stISC_ESt4lessIS5_ESaISC_EE17_M_emplace_uniqueIJS6_IS5_SB_EEEES6_ISt17_Rb_tree_iteratorISC_EbEDpOT_@Base 1.2+1640
 _ZNSt8_Rb_treeINSt7__cxx1112basic_stringIcSt11char_traitsIcESaIcEEESt4pairIKS5_PN5nidas4core9ParameterEESt10_Select1stISC_ESt4lessIS5_ESaISC_EE24_M_get_insert_unique_posERS7_@Base 1.2+1640
 _ZNSt8_Rb_treeINSt7__cxx1112basic_stringIcSt11char_traitsIcESaIcEEESt4pairIKS5_PN5nidas4core9ParameterEESt10_Select1stISC_ESt4lessIS5_ESaISC_EE8_M_eraseEPSt13_Rb_tree_nodeISC_E@Base 1.2+1640
 _ZNSt8_Rb_treeINSt7__cxx1112basic_stringIcSt11char_traitsIcESaIcEEESt4pairIKS5_PvESt10_Select1stIS9_ESt4lessIS5_ESaIS9_EE14_M_insert_nodeEPSt18_Rb_tree_node_baseSH_PSt13_Rb_tree_nodeIS9_E@Base 1.2+1640
 _ZNSt8_Rb_treeINSt7__cxx1112basic_stringIcSt11char_traitsIcESaIcEEESt4pairIKS5_PvESt10_Select1stIS9_ESt4lessIS5_ESaIS9_EE24_M_get_insert_unique_posERS7_@Base 1.2+1640
 _ZNSt8_Rb_treeINSt7__cxx1112basic_stringIcSt11char_traitsIcESaIcEEESt4pairIKS5_PvESt10_Select1stIS9_ESt4lessIS5_ESaIS9_EE29_M_get_insert_hint_unique_posESt23_Rb_tree_const_iteratorIS9_ERS7_@Base 1.2+1640
 _ZNSt8_Rb_treeINSt7__cxx1112basic_stringIcSt11char_traitsIcESaIcEEESt4pairIKS5_PvESt10_Select1stIS9_ESt4lessIS5_ESaIS9_EE8_M_eraseEPSt13_Rb_tree_nodeIS9_E@Base 1.2+1640
 _ZNSt8_Rb_treeINSt7__cxx1112basic_stringIcSt11char_traitsIcESaIcEEESt4pairIKS5_S5_ESt10_Select1stIS8_ESt4lessIS5_ESaIS8_EE14_M_insert_nodeEPSt18_Rb_tree_node_baseSG_PSt13_Rb_tree_nodeIS8_E@Base 1.2+1640
 _ZNSt8_Rb_treeINSt7__cxx1112basic_stringIcSt11char_traitsIcESaIcEEESt4pairIKS5_S5_ESt10_Select1stIS8_ESt4lessIS5_ESaIS8_EE17_M_emplace_uniqueIJRS6_IS7_S7_EEEES6_ISt17_Rb_tree_iteratorIS8_EbEDpOT_@Base 1.2+1640
 _ZNSt8_Rb_treeINSt7__cxx1112basic_stringIcSt11char_traitsIcESaIcEEESt4pairIKS5_S5_ESt10_Select1stIS8_ESt4lessIS5_ESaIS8_EE17_M_emplace_uniqueIJS6_IS5_S5_EEEES6_ISt17_Rb_tree_iteratorIS8_EbEDpOT_@Base 1.2+1640
 _ZNSt8_Rb_treeINSt7__cxx1112basic_stringIcSt11char_traitsIcESaIcEEESt4pairIKS5_S5_ESt10_Select1stIS8_ESt4lessIS5_ESaIS8_EE24_M_get_insert_unique_posERS7_@Base 1.2+1640
 _ZNSt8_Rb_treeINSt7__cxx1112basic_stringIcSt11char_traitsIcESaIcEEESt4pairIKS5_S5_ESt10_Select1stIS8_ESt4lessIS5_ESaIS8_EE4findERS7_@Base 1.2+1640
 _ZNSt8_Rb_treeINSt7__cxx1112basic_stringIcSt11char_traitsIcESaIcEEESt4pairIKS5_S5_ESt10_Select1stIS8_ESt4lessIS5_ESaIS8_EE7_M_copyINSE_11_Alloc_nodeEEEPSt13_Rb_tree_nodeIS8_EPKSI_PSt18_Rb_tree_node_baseRT_@Base 1.2+1640
 _ZNSt8_Rb_treeINSt7__cxx1112basic_stringIcSt11char_traitsIcESaIcEEESt4pairIKS5_S5_ESt10_Select1stIS8_ESt4lessIS5_ESaIS8_EE7_M_copyINSE_20_Reuse_or_alloc_nodeEEEPSt13_Rb_tree_nodeIS8_EPKSI_PSt18_Rb_tree_node_baseRT_@Base 1.2+1640
 _ZNSt8_Rb_treeINSt7__cxx1112basic_stringIcSt11char_traitsIcESaIcEEESt4pairIKS5_S5_ESt10_Select1stIS8_ESt4lessIS5_ESaIS8_EE8_M_eraseEPSt13_Rb_tree_nodeIS8_E@Base 1.2+1640
 _ZNSt8_Rb_treeINSt7__cxx1112basic_stringIcSt11char_traitsIcESaIcEEESt4pairIKS5_S5_ESt10_Select1stIS8_ESt4lessIS5_ESaIS8_EEaSERKSE_@Base 1.2+1640
 _ZNSt8_Rb_treeINSt7__cxx1112basic_stringIcSt11char_traitsIcESaIcEEESt4pairIKS5_iESt10_Select1stIS8_ESt4lessIS5_ESaIS8_EE24_M_get_insert_unique_posERS7_@Base 1.2+1640
 _ZNSt8_Rb_treeINSt7__cxx1112basic_stringIcSt11char_traitsIcESaIcEEESt4pairIKS5_iESt10_Select1stIS8_ESt4lessIS5_ESaIS8_EE8_M_eraseEPSt13_Rb_tree_nodeIS8_E@Base 1.2+1640
 _ZNSt8_Rb_treeINSt7__cxx1112basic_stringIcSt11char_traitsIcESaIcEEESt4pairIKS5_lESt10_Select1stIS8_ESt4lessIS5_ESaIS8_EE24_M_get_insert_unique_posERS7_@Base 1.2+1640
 _ZNSt8_Rb_treeINSt7__cxx1112basic_stringIcSt11char_traitsIcESaIcEEESt4pairIKS5_lESt10_Select1stIS8_ESt4lessIS5_ESaIS8_EE8_M_eraseEPSt13_Rb_tree_nodeIS8_E@Base 1.2+1640
 _ZNSt8_Rb_treeIPKN5nidas4core6SampleES4_St9_IdentityIS4_ENS1_23SampleTimetagComparatorESaIS4_EE8_M_eraseEPSt13_Rb_tree_nodeIS4_E@Base 1.2+1640
 _ZNSt8_Rb_treeIPKN5nidas4core7FileSetESt4pairIKS4_xESt10_Select1stIS7_ESt4lessIS4_ESaIS7_EE24_M_get_insert_unique_posERS6_@Base 1.2+1640
 _ZNSt8_Rb_treeIPKN5nidas4core7FileSetESt4pairIKS4_xESt10_Select1stIS7_ESt4lessIS4_ESaIS7_EE8_M_eraseEPSt13_Rb_tree_nodeIS7_E@Base 1.2+1640
 _ZNSt8_Rb_treeIPKN5nidas4core9DSMSensorESt4pairIKS4_jESt10_Select1stIS7_ESt4lessIS4_ESaIS7_EE24_M_get_insert_unique_posERS6_@Base 1.2+1640
 _ZNSt8_Rb_treeIPKN5nidas4core9DSMSensorESt4pairIKS4_jESt10_Select1stIS7_ESt4lessIS4_ESaIS7_EE8_M_eraseEPSt13_Rb_tree_nodeIS7_E@Base 1.2+1640
 _ZNSt8_Rb_treeIPKN5nidas4core9SampleTagESt4pairIKS4_PNS1_15TimetagAdjusterEESt10_Select1stIS9_ESt4lessIS4_ESaIS9_EE24_M_get_insert_unique_posERS6_@Base 1.2+1640
 _ZNSt8_Rb_treeIPKN5nidas4core9SampleTagESt4pairIKS4_PNS1_15TimetagAdjusterEESt10_Select1stIS9_ESt4lessIS4_ESaIS9_EE8_M_eraseEPSt13_Rb_tree_nodeIS9_E@Base 1.2+1640
 _ZNSt8_Rb_treeIPN5nidas4core12LooperClientESt4pairIKS3_jESt10_Select1stIS6_ESt4lessIS3_ESaIS6_EE24_M_get_insert_unique_posERS5_@Base 1.2+1640
 _ZNSt8_Rb_treeIPN5nidas4core12LooperClientESt4pairIKS3_jESt10_Select1stIS6_ESt4lessIS3_ESaIS6_EE8_M_eraseEPSt13_Rb_tree_nodeIS6_E@Base 1.2+1640
 _ZNSt8_Rb_treeIPN5nidas4core12SampleClientES3_St9_IdentityIS3_ESt4lessIS3_ESaIS3_EE16_M_insert_uniqueIRKS3_EESt4pairISt17_Rb_tree_iteratorIS3_EbEOT_@Base 1.2+1640
 _ZNSt8_Rb_treeIPN5nidas4core12SampleClientES3_St9_IdentityIS3_ESt4lessIS3_ESaIS3_EE5eraseERKS3_@Base 1.2+1640
 _ZNSt8_Rb_treeIPN5nidas4core12SampleClientES3_St9_IdentityIS3_ESt4lessIS3_ESaIS3_EE8_M_eraseEPSt13_Rb_tree_nodeIS3_E@Base 1.2+1640
 _ZNSt8_Rb_treeIPN5nidas4core12SampleOutputES3_St9_IdentityIS3_ESt4lessIS3_ESaIS3_EE16_M_insert_uniqueIRKS3_EESt4pairISt17_Rb_tree_iteratorIS3_EbEOT_@Base 1.2+1640
 _ZNSt8_Rb_treeIPN5nidas4core12SampleOutputES3_St9_IdentityIS3_ESt4lessIS3_ESaIS3_EE5eraseERKS3_@Base 1.2+1640
 _ZNSt8_Rb_treeIPN5nidas4core12SampleOutputES3_St9_IdentityIS3_ESt4lessIS3_ESaIS3_EE8_M_eraseEPSt13_Rb_tree_nodeIS3_E@Base 1.2+1640
 _ZNSt8_Rb_treeIPN5nidas4core12SampleSourceES3_St9_IdentityIS3_ESt4lessIS3_ESaIS3_EE16_M_insert_uniqueIRKS3_EESt4pairISt17_Rb_tree_iteratorIS3_EbEOT_@Base 1.2+1640
 _ZNSt8_Rb_treeIPN5nidas4core12SampleSourceES3_St9_IdentityIS3_ESt4lessIS3_ESaIS3_EE5eraseERKS3_@Base 1.2+1640
 _ZNSt8_Rb_treeIPN5nidas4core12SampleSourceES3_St9_IdentityIS3_ESt4lessIS3_ESaIS3_EE8_M_eraseEPSt13_Rb_tree_nodeIS3_E@Base 1.2+1640
 _ZNSt8_Rb_treeIPN5nidas4core13SensorHandler15PolledDSMSensorES4_St9_IdentityIS4_ESt4lessIS4_ESaIS4_EE16_M_insert_uniqueIRKS4_EESt4pairISt17_Rb_tree_iteratorIS4_EbEOT_@Base 1.2+1640
 _ZNSt8_Rb_treeIPN5nidas4core13SensorHandler15PolledDSMSensorES4_St9_IdentityIS4_ESt4lessIS4_ESaIS4_EE7_M_copyINSA_11_Alloc_nodeEEEPSt13_Rb_tree_nodeIS4_EPKSE_PSt18_Rb_tree_node_baseRT_@Base 1.2+1640
 _ZNSt8_Rb_treeIPN5nidas4core13SensorHandler15PolledDSMSensorES4_St9_IdentityIS4_ESt4lessIS4_ESaIS4_EE7_M_copyINSA_20_Reuse_or_alloc_nodeEEEPSt13_Rb_tree_nodeIS4_EPKSE_PSt18_Rb_tree_node_baseRT_@Base 1.2+1640
 _ZNSt8_Rb_treeIPN5nidas4core13SensorHandler15PolledDSMSensorES4_St9_IdentityIS4_ESt4lessIS4_ESaIS4_EE8_M_eraseEPSt13_Rb_tree_nodeIS4_E@Base 1.2+1640
 _ZNSt8_Rb_treeIPN5nidas4core13SensorHandler15PolledDSMSensorES4_St9_IdentityIS4_ESt4lessIS4_ESaIS4_EEaSERKSA_@Base 1.2+1640
 _ZNSt8_Rb_treeIPN5nidas4core22RemoteSerialConnectionES3_St9_IdentityIS3_ESt4lessIS3_ESaIS3_EE16_M_insert_uniqueIRKS3_EESt4pairISt17_Rb_tree_iteratorIS3_EbEOT_@Base 1.2+1640
 _ZNSt8_Rb_treeIPN5nidas4core22RemoteSerialConnectionES3_St9_IdentityIS3_ESt4lessIS3_ESaIS3_EE7_M_copyINS9_11_Alloc_nodeEEEPSt13_Rb_tree_nodeIS3_EPKSD_PSt18_Rb_tree_node_baseRT_@Base 1.2+1640
 _ZNSt8_Rb_treeIPN5nidas4core22RemoteSerialConnectionES3_St9_IdentityIS3_ESt4lessIS3_ESaIS3_EE8_M_eraseEPSt13_Rb_tree_nodeIS3_E@Base 1.2+1640
 _ZNSt8_Rb_treeIPN5nidas4core8VariableESt4pairIKS3_jESt10_Select1stIS6_ESt4lessIS3_ESaIS6_EE24_M_get_insert_unique_posERS5_@Base 1.2+1640
 _ZNSt8_Rb_treeIPN5nidas4core8VariableESt4pairIKS3_jESt10_Select1stIS6_ESt4lessIS3_ESaIS6_EE8_M_eraseEPSt13_Rb_tree_nodeIS6_E@Base 1.2+1640
 _ZNSt8_Rb_treeIPN5nidas4util6ThreadES3_St9_IdentityIS3_ESt4lessIS3_ESaIS3_EE16_M_insert_uniqueIRKS3_EESt4pairISt17_Rb_tree_iteratorIS3_EbEOT_@Base 1.2+1640
 _ZNSt8_Rb_treeIPN5nidas4util6ThreadES3_St9_IdentityIS3_ESt4lessIS3_ESaIS3_EE8_M_eraseEPSt13_Rb_tree_nodeIS3_E@Base 1.2+1640
 _ZNSt8_Rb_treeIiSt4pairIKiPN5nidas4core4SiteEESt10_Select1stIS6_ESt4lessIiESaIS6_EE24_M_get_insert_unique_posERS1_@Base 1.2+1640
 _ZNSt8_Rb_treeIiSt4pairIKiPN5nidas4core4SiteEESt10_Select1stIS6_ESt4lessIiESaIS6_EE8_M_eraseEPSt13_Rb_tree_nodeIS6_E@Base 1.2+1640
 _ZNSt8_Rb_treeIiiSt9_IdentityIiESt4lessIiESaIiEE16_M_insert_uniqueIiEESt4pairISt17_Rb_tree_iteratorIiEbEOT_@Base 1.2+1640
 _ZNSt8_Rb_treeIiiSt9_IdentityIiESt4lessIiESaIiEE8_M_eraseEPSt13_Rb_tree_nodeIiE@Base 1.2+1640
 _ZNSt8_Rb_treeIjSt4pairIKjN5nidas4core16SampleClientListEESt10_Select1stIS5_ESt4lessIjESaIS5_EE24_M_get_insert_unique_posERS1_@Base 1.2+1640
 _ZNSt8_Rb_treeIjSt4pairIKjN5nidas4core16SampleClientListEESt10_Select1stIS5_ESt4lessIjESaIS5_EE8_M_eraseEPSt13_Rb_tree_nodeIS5_E@Base 1.2+1640
 _ZNSt8_Rb_treeIjSt4pairIKjPKN5nidas4core9DSMConfigEESt10_Select1stIS7_ESt4lessIjESaIS7_EE24_M_get_insert_unique_posERS1_@Base 1.2+1640
 _ZNSt8_Rb_treeIjSt4pairIKjPKN5nidas4core9DSMConfigEESt10_Select1stIS7_ESt4lessIjESaIS7_EE8_M_eraseEPSt13_Rb_tree_nodeIS7_E@Base 1.2+1640
 _ZNSt8_Rb_treeIjSt4pairIKjPN5nidas4core9DSMSensorEESt10_Select1stIS6_ESt4lessIjESaIS6_EE17_M_emplace_uniqueIJS0_IjS5_EEEES0_ISt17_Rb_tree_iteratorIS6_EbEDpOT_@Base 1.2+1640
 _ZNSt8_Rb_treeIjSt4pairIKjPN5nidas4core9DSMSensorEESt10_Select1stIS6_ESt4lessIjESaIS6_EE24_M_get_insert_unique_posERS1_@Base 1.2+1640
 _ZNSt8_Rb_treeIjSt4pairIKjPN5nidas4core9DSMSensorEESt10_Select1stIS6_ESt4lessIjESaIS6_EE8_M_eraseEPSt13_Rb_tree_nodeIS6_E@Base 1.2+1640
 _ZNSt8_Rb_treeIjSt4pairIKjSt6vectorIjSaIjEEESt10_Select1stIS5_ESt4lessIjESaIS5_EE24_M_get_insert_unique_posERS1_@Base 1.2+1640
 _ZNSt8_Rb_treeIjSt4pairIKjSt6vectorIjSaIjEEESt10_Select1stIS5_ESt4lessIjESaIS5_EE8_M_eraseEPSt13_Rb_tree_nodeIS5_E@Base 1.2+1640
 _ZNSt8_Rb_treeIjSt4pairIKjbESt10_Select1stIS2_ESt4lessIjESaIS2_EE24_M_get_insert_unique_posERS1_@Base 1.2+1640
 _ZNSt8_Rb_treeIjSt4pairIKjbESt10_Select1stIS2_ESt4lessIjESaIS2_EE8_M_eraseEPSt13_Rb_tree_nodeIS2_E@Base 1.2+1640
 _ZNSt8_Rb_treeIjSt4pairIKjjESt10_Select1stIS2_ESt4lessIjESaIS2_EE24_M_get_insert_unique_posERS1_@Base 1.2+1640
 _ZNSt8_Rb_treeIjSt4pairIKjjESt10_Select1stIS2_ESt4lessIjESaIS2_EE8_M_eraseEPSt13_Rb_tree_nodeIS2_E@Base 1.2+1640
 _ZNSt8_Rb_treeIjjSt9_IdentityIjESt4lessIjESaIjEE16_M_insert_uniqueIRKjEESt4pairISt17_Rb_tree_iteratorIjEbEOT_@Base 1.2+1640
 _ZNSt8_Rb_treeIjjSt9_IdentityIjESt4lessIjESaIjEE16_M_insert_uniqueIjEESt4pairISt17_Rb_tree_iteratorIjEbEOT_@Base 1.2+1640
 _ZNSt8_Rb_treeIjjSt9_IdentityIjESt4lessIjESaIjEE8_M_eraseEPSt13_Rb_tree_nodeIjE@Base 1.2+1640
 _ZSt9__find_ifIN9__gnu_cxx17__normal_iteratorIPNSt7__cxx1112basic_stringIcSt11char_traitsIcESaIcEEESt6vectorIS7_SaIS7_EEEENS0_5__ops16_Iter_equals_valIKS7_EEET_SH_SH_T0_St26random_access_iterator_tag@Base 1.2+1640
 _ZSteqIcEN9__gnu_cxx11__enable_ifIXsrSt9__is_charIT_E7__valueEbE6__typeERKNSt7__cxx1112basic_stringIS3_St11char_traitsIS3_ESaIS3_EEESE_@Base 1.2+1640
 _ZStplIcSt11char_traitsIcESaIcEENSt7__cxx1112basic_stringIT_T0_T1_EEOS8_S9_@Base 1.2+1640
 _ZStplIcSt11char_traitsIcESaIcEENSt7__cxx1112basic_stringIT_T0_T1_EEPKS5_RKS8_@Base 1.2+1640
 _ZStplIcSt11char_traitsIcESaIcEENSt7__cxx1112basic_stringIT_T0_T1_EERKS8_PKS5_@Base 1.2+1640
 _ZStplIcSt11char_traitsIcESaIcEENSt7__cxx1112basic_stringIT_T0_T1_EERKS8_SA_@Base 1.2+1640
 _ZStplIcSt11char_traitsIcESaIcEENSt7__cxx1112basic_stringIT_T0_T1_EES5_RKS8_@Base 1.2+1640
 _ZTI15SscanfFlexLexer@Base 1.2+1640
 _ZTI9FlexLexer@Base 1.2+1640
 _ZTIN11xercesc_3_210DOMElementE@Base 1.2+1640
 _ZTIN11xercesc_3_210DTDHandlerE@Base 1.2+1640
 _ZTIN11xercesc_3_210XMLDeleterE@Base 1.2+1640
 _ZTIN11xercesc_3_211DeclHandlerE@Base 1.2+1640
 _ZTIN11xercesc_3_212ErrorHandlerE@Base 1.2+1640
 _ZTIN11xercesc_3_212SAXExceptionE@Base 1.2+1640
 _ZTIN11xercesc_3_213DOMNodeFilterE@Base 1.2+1640
 _ZTIN11xercesc_3_213SAX2XMLReaderE@Base 1.2+1640
 _ZTIN11xercesc_3_213XMLAttDefListE@Base 1.2+1640
 _ZTIN11xercesc_3_213XSerializableE@Base 1.2+1640
 _ZTIN11xercesc_3_214ContentHandlerE@Base 1.2+1640
 _ZTIN11xercesc_3_214DefaultHandlerE@Base 1.2+1640
 _ZTIN11xercesc_3_214EntityResolverE@Base 1.2+1640
 _ZTIN11xercesc_3_214LexicalHandlerE@Base 1.2+1640
 _ZTIN11xercesc_3_215DOMErrorHandlerE@Base 1.2+1640
 _ZTIN11xercesc_3_215XMLFormatTargetE@Base 1.2+1640
 _ZTIN11xercesc_3_220OutOfMemoryExceptionE@Base 1.2+1640
 _ZTIN11xercesc_3_221DOMLSSerializerFilterE@Base 1.2+1640
 _ZTIN11xercesc_3_27DOMNodeE@Base 1.2+1640
 _ZTIN11xercesc_3_27XMemoryE@Base 1.2+1640
 _ZTIN5nidas4core10DSMCatalogE@Base 1.2+1640
 _ZTIN5nidas4core10DSMServiceE@Base 1.2+1640
 _ZTIN5nidas4core10DictionaryE@Base 1.2+1640
 _ZTIN5nidas4core10GetDsmListE@Base 1.2+1640
 _ZTIN5nidas4core10ParameterTINSt7__cxx1112basic_stringIcSt11char_traitsIcESaIcEEEEE@Base 1.2+1640
 _ZTIN5nidas4core10ParameterTIbEE@Base 1.2+1640
 _ZTIN5nidas4core10ParameterTIfEE@Base 1.2+1640
 _ZTIN5nidas4core10ParameterTIiEE@Base 1.2+1640
 _ZTIN5nidas4core10PolynomialE@Base 1.2+1640
 _ZTIN5nidas4core10SamplePoolINS0_7SampleTIcEEEE@Base 1.2+1640
 _ZTIN5nidas4core10SamplePoolINS0_7SampleTIdEEEE@Base 1.2+1640
 _ZTIN5nidas4core10SamplePoolINS0_7SampleTIfEEEE@Base 1.2+1640
 _ZTIN5nidas4core10SamplePoolINS0_7SampleTIhEEEE@Base 1.2+1640
 _ZTIN5nidas4core10SamplePoolINS0_7SampleTIiEEEE@Base 1.2+1640
 _ZTIN5nidas4core10SamplePoolINS0_7SampleTIjEEEE@Base 1.2+1640
 _ZTIN5nidas4core10SamplePoolINS0_7SampleTIsEEEE@Base 1.2+1640
 _ZTIN5nidas4core10SamplePoolINS0_7SampleTItEEEE@Base 1.2+1640
 _ZTIN5nidas4core10SamplePoolINS0_7SampleTIxEEEE@Base 1.2+1640
 _ZTIN5nidas4core11AsciiSscanfE@Base 1.2+1640
 _ZTIN5nidas4core11McSocketUDP10MyMcSocketE@Base 1.2+1640
 _ZTIN5nidas4core11McSocketUDPE@Base 1.2+1640
 _ZTIN5nidas4core11NidasAppArgE@Base 1.2+1640
 _ZTIN5nidas4core11SampleInputE@Base 1.2+1640
 _ZTIN5nidas4core12Bzip2FileSetE@Base 1.2+1640
 _ZTIN5nidas4core12LooperClientE@Base 1.2+1640
 _ZTIN5nidas4core12SampleBufferE@Base 1.2+1640
 _ZTIN5nidas4core12SampleClientE@Base 1.2+1640
 _ZTIN5nidas4core12SampleOutputE@Base 1.2+1640
 _ZTIN5nidas4core12SampleSorterE@Base 1.2+1640
 _ZTIN5nidas4core12SampleSourceE@Base 1.2+1640
 _ZTIN5nidas4core12SampleThreadE@Base 1.2+1640
 _ZTIN5nidas4core12SensorOpenerE@Base 1.2+1640
 _ZTIN5nidas4core12SerialSensor8PrompterE@Base 1.2+1640
 _ZTIN5nidas4core12SerialSensorE@Base 1.2+1640
 _ZTIN5nidas4core12ServerSocket16ConnectionThreadE@Base 1.2+1640
 _ZTIN5nidas4core12ServerSocketE@Base 1.2+1640
 _ZTIN5nidas4core12StatusThreadE@Base 1.2+1640
 _ZTIN5nidas4core12UnixIODeviceE@Base 1.2+1640
 _ZTIN5nidas4core12XMLExceptionE@Base 1.2+1640
 _ZTIN5nidas4core12XmlRpcThreadE@Base 1.2+1640
 _ZTIN5nidas4core13DSMEngineIntf12SensorActionE@Base 1.2+1640
 _ZTIN5nidas4core13DSMEngineIntf9DSMActionE@Base 1.2+1640
 _ZTIN5nidas4core13DSMEngineIntfE@Base 1.2+1640
 _ZTIN5nidas4core13DSMEngineStatE@Base 1.2+1640
 _ZTIN5nidas4core13DSMServerIntfE@Base 1.2+1640
 _ZTIN5nidas4core13DSMServerStatE@Base 1.2+1640
 _ZTIN5nidas4core13SampleScannerE@Base 1.2+1640
 _ZTIN5nidas4core13SensorCatalogE@Base 1.2+1640
 _ZTIN5nidas4core13SensorHandler15PolledDSMSensorE@Base 1.2+1640
 _ZTIN5nidas4core13SensorHandlerE@Base 1.2+1640
 _ZTIN5nidas4core13StatusHandlerE@Base 1.2+1640
 _ZTIN5nidas4core13UnixIOChannelE@Base 1.2+1640
 _ZTIN5nidas4core14DatagramSocketE@Base 1.2+1640
 _ZTIN5nidas4core14GetAdsFileNameE@Base 1.2+1640
 _ZTIN5nidas4core14SampleArchiverE@Base 1.2+1640
 _ZTIN5nidas4core14SampleAveragerE@Base 1.2+1640
 _ZTIN5nidas4core14SamplePipelineE@Base 1.2+1640
 _ZTIN5nidas4core14ServiceCatalogE@Base 1.2+1640
 _ZTIN5nidas4core14SocketIODeviceE@Base 1.2+1640
 _ZTIN5nidas4core14StatusListenerE@Base 1.2+1640
 _ZTIN5nidas4core14XMLConfigInputE@Base 1.2+1640
 _ZTIN5nidas4core15CharacterSensorE@Base 1.2+1640
 _ZTIN5nidas4core15XMLConfigWriterE@Base 1.2+1640
 _ZTIN5nidas4core15XMLErrorHandlerE@Base 1.2+1640
 _ZTIN5nidas4core16ChronyStatusNodeE@Base 1.2+1640
 _ZTIN5nidas4core16NearestResamplerE@Base 1.2+1640
 _ZTIN5nidas4core16SampleClientListE@Base 1.2+1640
 _ZTIN5nidas4core16SampleOutputBaseE@Base 1.2+1640
 _ZTIN5nidas4core16XMLCachingParserE@Base 1.2+1640
 _ZTIN5nidas4core16XMLFdInputSourceE@Base 1.2+1640
 _ZTIN5nidas4core17DerivedDataReaderE@Base 1.2+1640
 _ZTIN5nidas4core17NidasAppExceptionE@Base 1.2+1640
 _ZTIN5nidas4core17SampleIOProcessorE@Base 1.2+1640
 _ZTIN5nidas4core17TCPSocketIODeviceE@Base 1.2+1640
 _ZTIN5nidas4core17UDPSocketIODeviceE@Base 1.2+1640
 _ZTIN5nidas4core17VariableConverterE@Base 1.2+1640
 _ZTIN5nidas4core17XMLFdFormatTargetE@Base 1.2+1640
 _ZTIN5nidas4core18AsciiSscanfAdapterE@Base 1.2+1640
 _ZTIN5nidas4core18BadSampleFilterArgE@Base 1.2+1640
 _ZTIN5nidas4core18IOChannelRequesterE@Base 1.2+1640
 _ZTIN5nidas4core18MultipleUDPSocketsE@Base 1.2+1640
 _ZTIN5nidas4core18SerialPortIODeviceE@Base 1.2+1640
 _ZTIN5nidas4core19DriverSampleScannerE@Base 1.2+1640
 _ZTIN5nidas4core19FsMountWorkerThreadE@Base 1.2+1640
 _ZTIN5nidas4core19SamplePoolInterfaceE@Base 1.2+1640
 _ZTIN5nidas4core19SampleSourceSupportE@Base 1.2+1640
 _ZTIN5nidas4core19XMLFdBinInputStreamE@Base 1.2+1640
 _ZTIN5nidas4core20MessageSampleScannerE@Base 1.2+1640
 _ZTIN5nidas4core20MessageStreamScannerE@Base 1.2+1640
 _ZTIN5nidas4core20RemoteSerialListenerE@Base 1.2+1640
 _ZTIN5nidas4core20ServerSocketIODeviceE@Base 1.2+1640
 _ZTIN5nidas4core21DatagramSampleScannerE@Base 1.2+1640
 _ZTIN5nidas4core21NidasAppInputFilesArgE@Base 1.2+1640
 _ZTIN5nidas4core21SampleLengthExceptionE@Base 1.2+1640
 _ZTIN5nidas4core21XMLConfigWriterFilterE@Base 1.2+1640
 _ZTIN5nidas4core22NearestResamplerAtRateE@Base 1.2+1640
 _ZTIN5nidas4core22RemoteSerialConnectionE@Base 1.2+1640
 _ZTIN5nidas4core25SampleConnectionRequesterE@Base 1.2+1640
 _ZTIN5nidas4core25SampleOutputRequestThreadE@Base 1.2+1640
 _ZTIN5nidas4core29BluetoothRFCommSocketIODeviceE@Base 1.2+1640
 _ZTIN5nidas4core4Site12MyDictionaryE@Base 1.2+1640
 _ZTIN5nidas4core4SiteE@Base 1.2+1640
 _ZTIN5nidas4core6LinearE@Base 1.2+1640
 _ZTIN5nidas4core6LooperE@Base 1.2+1640
 _ZTIN5nidas4core6PolledE@Base 1.2+1640
 _ZTIN5nidas4core6SampleE@Base 1.2+1640
 _ZTIN5nidas4core6Socket16ConnectionThreadE@Base 1.2+1640
 _ZTIN5nidas4core6SocketE@Base 1.2+1640
 _ZTIN5nidas4core7CalFileE@Base 1.2+1640
 _ZTIN5nidas4core7DOMableE@Base 1.2+1640
 _ZTIN5nidas4core7FileSetE@Base 1.2+1640
 _ZTIN5nidas4core7FsMountE@Base 1.2+1640
 _ZTIN5nidas4core7Project12MyDictionaryE@Base 1.2+1640
 _ZTIN5nidas4core7ProjectE@Base 1.2+1640
 _ZTIN5nidas4core7SampleTIcEE@Base 1.2+1640
 _ZTIN5nidas4core7SampleTIdEE@Base 1.2+1640
 _ZTIN5nidas4core7SampleTIfEE@Base 1.2+1640
 _ZTIN5nidas4core7SampleTIhEE@Base 1.2+1640
 _ZTIN5nidas4core7SampleTIiEE@Base 1.2+1640
 _ZTIN5nidas4core7SampleTIjEE@Base 1.2+1640
 _ZTIN5nidas4core7SampleTIsEE@Base 1.2+1640
 _ZTIN5nidas4core7SampleTItEE@Base 1.2+1640
 _ZTIN5nidas4core7SampleTIxEE@Base 1.2+1640
 _ZTIN5nidas4core8IODeviceE@Base 1.2+1640
 _ZTIN5nidas4core8IOStreamE@Base 1.2+1640
 _ZTIN5nidas4core8McSocket10MyMcSocketE@Base 1.2+1640
 _ZTIN5nidas4core8McSocketE@Base 1.2+1640
 _ZTIN5nidas4core8VariableE@Base 1.2+1640
 _ZTIN5nidas4core9DSMConfig12MyDictionaryE@Base 1.2+1640
 _ZTIN5nidas4core9DSMConfigE@Base 1.2+1640
 _ZTIN5nidas4core9DSMEngineE@Base 1.2+1640
 _ZTIN5nidas4core9DSMSensor12MyDictionaryE@Base 1.2+1640
 _ZTIN5nidas4core9DSMSensorE@Base 1.2+1640
 _ZTIN5nidas4core9DSMServerE@Base 1.2+1640
 _ZTIN5nidas4core9GetClocksE@Base 1.2+1640
 _ZTIN5nidas4core9GetStatusE@Base 1.2+1640
 _ZTIN5nidas4core9IOChannelE@Base 1.2+1640
 _ZTIN5nidas4core9ParameterE@Base 1.2+1640
 _ZTIN5nidas4core9ResamplerE@Base 1.2+1640
 _ZTIN5nidas4core9SampleTagE@Base 1.2+1640
 _ZTIN5nidas4core9XMLParserE@Base 1.2+1640
 _ZTIN5nidas4core9XMLWriterE@Base 1.2+1640
 _ZTIN5nidas4util11IOExceptionE@Base 1.2+1640
 _ZTIN5nidas4util12EOFExceptionE@Base 1.2+1640
 _ZTIN5nidas4util13SocketAddressE@Base 1.2+1640
 _ZTIN5nidas4util14DatagramPacketE@Base 1.2+1640
 _ZTIN5nidas4util14DatagramSocketE@Base 1.2+1640
 _ZTIN5nidas4util14ParseExceptionE@Base 1.2+1640
 _ZTIN5nidas4util15DatagramPacketTIcEE@Base 1.2+1640
 _ZTIN5nidas4util15Inet4PacketInfoE@Base 1.2+1640
 _ZTIN5nidas4util15MulticastSocketE@Base 1.2+1640
 _ZTIN5nidas4util16Inet4PacketInfoXE@Base 1.2+1640
 _ZTIN5nidas4util18DatagramPacketBaseE@Base 1.2+1640
 _ZTIN5nidas4util18IOTimeoutExceptionE@Base 1.2+1640
 _ZTIN5nidas4util19McSocketMulticasterINS0_14DatagramSocketEEE@Base 1.2+1640
 _ZTIN5nidas4util19McSocketMulticasterINS0_6SocketEEE@Base 1.2+1640
 _ZTIN5nidas4util20UnknownHostExceptionE@Base 1.2+1640
 _ZTIN5nidas4util25InvalidParameterExceptionE@Base 1.2+1640
 _ZTIN5nidas4util8McSocketINS0_14DatagramSocketEEE@Base 1.2+1640
 _ZTIN5nidas4util8McSocketINS0_6SocketEEE@Base 1.2+1640
 _ZTIN5nidas4util9ExceptionE@Base 1.2+1640
 _ZTS15SscanfFlexLexer@Base 1.2+1640
 _ZTS9FlexLexer@Base 1.2+1640
 _ZTSN11xercesc_3_210DOMElementE@Base 1.2+1640
 _ZTSN11xercesc_3_210DTDHandlerE@Base 1.2+1640
 _ZTSN11xercesc_3_210XMLDeleterE@Base 1.2+1640
 _ZTSN11xercesc_3_211DeclHandlerE@Base 1.2+1640
 _ZTSN11xercesc_3_212ErrorHandlerE@Base 1.2+1640
 _ZTSN11xercesc_3_212SAXExceptionE@Base 1.2+1640
 _ZTSN11xercesc_3_213DOMNodeFilterE@Base 1.2+1640
 _ZTSN11xercesc_3_213SAX2XMLReaderE@Base 1.2+1640
 _ZTSN11xercesc_3_213XMLAttDefListE@Base 1.2+1640
 _ZTSN11xercesc_3_213XSerializableE@Base 1.2+1640
 _ZTSN11xercesc_3_214ContentHandlerE@Base 1.2+1640
 _ZTSN11xercesc_3_214DefaultHandlerE@Base 1.2+1640
 _ZTSN11xercesc_3_214EntityResolverE@Base 1.2+1640
 _ZTSN11xercesc_3_214LexicalHandlerE@Base 1.2+1640
 _ZTSN11xercesc_3_215DOMErrorHandlerE@Base 1.2+1640
 _ZTSN11xercesc_3_215XMLFormatTargetE@Base 1.2+1640
 _ZTSN11xercesc_3_220OutOfMemoryExceptionE@Base 1.2+1640
 _ZTSN11xercesc_3_221DOMLSSerializerFilterE@Base 1.2+1640
 _ZTSN11xercesc_3_27DOMNodeE@Base 1.2+1640
 _ZTSN11xercesc_3_27XMemoryE@Base 1.2+1640
 _ZTSN5nidas4core10DSMCatalogE@Base 1.2+1640
 _ZTSN5nidas4core10DSMServiceE@Base 1.2+1640
 _ZTSN5nidas4core10DictionaryE@Base 1.2+1640
 _ZTSN5nidas4core10GetDsmListE@Base 1.2+1640
 _ZTSN5nidas4core10ParameterTINSt7__cxx1112basic_stringIcSt11char_traitsIcESaIcEEEEE@Base 1.2+1640
 _ZTSN5nidas4core10ParameterTIbEE@Base 1.2+1640
 _ZTSN5nidas4core10ParameterTIfEE@Base 1.2+1640
 _ZTSN5nidas4core10ParameterTIiEE@Base 1.2+1640
 _ZTSN5nidas4core10PolynomialE@Base 1.2+1640
 _ZTSN5nidas4core10SamplePoolINS0_7SampleTIcEEEE@Base 1.2+1640
 _ZTSN5nidas4core10SamplePoolINS0_7SampleTIdEEEE@Base 1.2+1640
 _ZTSN5nidas4core10SamplePoolINS0_7SampleTIfEEEE@Base 1.2+1640
 _ZTSN5nidas4core10SamplePoolINS0_7SampleTIhEEEE@Base 1.2+1640
 _ZTSN5nidas4core10SamplePoolINS0_7SampleTIiEEEE@Base 1.2+1640
 _ZTSN5nidas4core10SamplePoolINS0_7SampleTIjEEEE@Base 1.2+1640
 _ZTSN5nidas4core10SamplePoolINS0_7SampleTIsEEEE@Base 1.2+1640
 _ZTSN5nidas4core10SamplePoolINS0_7SampleTItEEEE@Base 1.2+1640
 _ZTSN5nidas4core10SamplePoolINS0_7SampleTIxEEEE@Base 1.2+1640
 _ZTSN5nidas4core11AsciiSscanfE@Base 1.2+1640
 _ZTSN5nidas4core11McSocketUDP10MyMcSocketE@Base 1.2+1640
 _ZTSN5nidas4core11McSocketUDPE@Base 1.2+1640
 _ZTSN5nidas4core11NidasAppArgE@Base 1.2+1640
 _ZTSN5nidas4core11SampleInputE@Base 1.2+1640
 _ZTSN5nidas4core12Bzip2FileSetE@Base 1.2+1640
 _ZTSN5nidas4core12LooperClientE@Base 1.2+1640
 _ZTSN5nidas4core12SampleBufferE@Base 1.2+1640
 _ZTSN5nidas4core12SampleClientE@Base 1.2+1640
 _ZTSN5nidas4core12SampleOutputE@Base 1.2+1640
 _ZTSN5nidas4core12SampleSorterE@Base 1.2+1640
 _ZTSN5nidas4core12SampleSourceE@Base 1.2+1640
 _ZTSN5nidas4core12SampleThreadE@Base 1.2+1640
 _ZTSN5nidas4core12SensorOpenerE@Base 1.2+1640
 _ZTSN5nidas4core12SerialSensor8PrompterE@Base 1.2+1640
 _ZTSN5nidas4core12SerialSensorE@Base 1.2+1640
 _ZTSN5nidas4core12ServerSocket16ConnectionThreadE@Base 1.2+1640
 _ZTSN5nidas4core12ServerSocketE@Base 1.2+1640
 _ZTSN5nidas4core12StatusThreadE@Base 1.2+1640
 _ZTSN5nidas4core12UnixIODeviceE@Base 1.2+1640
 _ZTSN5nidas4core12XMLExceptionE@Base 1.2+1640
 _ZTSN5nidas4core12XmlRpcThreadE@Base 1.2+1640
 _ZTSN5nidas4core13DSMEngineIntf12SensorActionE@Base 1.2+1640
 _ZTSN5nidas4core13DSMEngineIntf9DSMActionE@Base 1.2+1640
 _ZTSN5nidas4core13DSMEngineIntfE@Base 1.2+1640
 _ZTSN5nidas4core13DSMEngineStatE@Base 1.2+1640
 _ZTSN5nidas4core13DSMServerIntfE@Base 1.2+1640
 _ZTSN5nidas4core13DSMServerStatE@Base 1.2+1640
 _ZTSN5nidas4core13SampleScannerE@Base 1.2+1640
 _ZTSN5nidas4core13SensorCatalogE@Base 1.2+1640
 _ZTSN5nidas4core13SensorHandler15PolledDSMSensorE@Base 1.2+1640
 _ZTSN5nidas4core13SensorHandlerE@Base 1.2+1640
 _ZTSN5nidas4core13StatusHandlerE@Base 1.2+1640
 _ZTSN5nidas4core13UnixIOChannelE@Base 1.2+1640
 _ZTSN5nidas4core14DatagramSocketE@Base 1.2+1640
 _ZTSN5nidas4core14GetAdsFileNameE@Base 1.2+1640
 _ZTSN5nidas4core14SampleArchiverE@Base 1.2+1640
 _ZTSN5nidas4core14SampleAveragerE@Base 1.2+1640
 _ZTSN5nidas4core14SamplePipelineE@Base 1.2+1640
 _ZTSN5nidas4core14ServiceCatalogE@Base 1.2+1640
 _ZTSN5nidas4core14SocketIODeviceE@Base 1.2+1640
 _ZTSN5nidas4core14StatusListenerE@Base 1.2+1640
 _ZTSN5nidas4core14XMLConfigInputE@Base 1.2+1640
 _ZTSN5nidas4core15CharacterSensorE@Base 1.2+1640
 _ZTSN5nidas4core15XMLConfigWriterE@Base 1.2+1640
 _ZTSN5nidas4core15XMLErrorHandlerE@Base 1.2+1640
 _ZTSN5nidas4core16ChronyStatusNodeE@Base 1.2+1640
 _ZTSN5nidas4core16NearestResamplerE@Base 1.2+1640
 _ZTSN5nidas4core16SampleClientListE@Base 1.2+1640
 _ZTSN5nidas4core16SampleOutputBaseE@Base 1.2+1640
 _ZTSN5nidas4core16XMLCachingParserE@Base 1.2+1640
 _ZTSN5nidas4core16XMLFdInputSourceE@Base 1.2+1640
 _ZTSN5nidas4core17DerivedDataReaderE@Base 1.2+1640
 _ZTSN5nidas4core17NidasAppExceptionE@Base 1.2+1640
 _ZTSN5nidas4core17SampleIOProcessorE@Base 1.2+1640
 _ZTSN5nidas4core17TCPSocketIODeviceE@Base 1.2+1640
 _ZTSN5nidas4core17UDPSocketIODeviceE@Base 1.2+1640
 _ZTSN5nidas4core17VariableConverterE@Base 1.2+1640
 _ZTSN5nidas4core17XMLFdFormatTargetE@Base 1.2+1640
 _ZTSN5nidas4core18AsciiSscanfAdapterE@Base 1.2+1640
 _ZTSN5nidas4core18BadSampleFilterArgE@Base 1.2+1640
 _ZTSN5nidas4core18IOChannelRequesterE@Base 1.2+1640
 _ZTSN5nidas4core18MultipleUDPSocketsE@Base 1.2+1640
 _ZTSN5nidas4core18SerialPortIODeviceE@Base 1.2+1640
 _ZTSN5nidas4core19DriverSampleScannerE@Base 1.2+1640
 _ZTSN5nidas4core19FsMountWorkerThreadE@Base 1.2+1640
 _ZTSN5nidas4core19SamplePoolInterfaceE@Base 1.2+1640
 _ZTSN5nidas4core19SampleSourceSupportE@Base 1.2+1640
 _ZTSN5nidas4core19XMLFdBinInputStreamE@Base 1.2+1640
 _ZTSN5nidas4core20MessageSampleScannerE@Base 1.2+1640
 _ZTSN5nidas4core20MessageStreamScannerE@Base 1.2+1640
 _ZTSN5nidas4core20RemoteSerialListenerE@Base 1.2+1640
 _ZTSN5nidas4core20ServerSocketIODeviceE@Base 1.2+1640
 _ZTSN5nidas4core21DatagramSampleScannerE@Base 1.2+1640
 _ZTSN5nidas4core21NidasAppInputFilesArgE@Base 1.2+1640
 _ZTSN5nidas4core21SampleLengthExceptionE@Base 1.2+1640
 _ZTSN5nidas4core21XMLConfigWriterFilterE@Base 1.2+1640
 _ZTSN5nidas4core22NearestResamplerAtRateE@Base 1.2+1640
 _ZTSN5nidas4core22RemoteSerialConnectionE@Base 1.2+1640
 _ZTSN5nidas4core25SampleConnectionRequesterE@Base 1.2+1640
 _ZTSN5nidas4core25SampleOutputRequestThreadE@Base 1.2+1640
 _ZTSN5nidas4core29BluetoothRFCommSocketIODeviceE@Base 1.2+1640
 _ZTSN5nidas4core4Site12MyDictionaryE@Base 1.2+1640
 _ZTSN5nidas4core4SiteE@Base 1.2+1640
 _ZTSN5nidas4core6LinearE@Base 1.2+1640
 _ZTSN5nidas4core6LooperE@Base 1.2+1640
 _ZTSN5nidas4core6PolledE@Base 1.2+1640
 _ZTSN5nidas4core6SampleE@Base 1.2+1640
 _ZTSN5nidas4core6Socket16ConnectionThreadE@Base 1.2+1640
 _ZTSN5nidas4core6SocketE@Base 1.2+1640
 _ZTSN5nidas4core7CalFileE@Base 1.2+1640
 _ZTSN5nidas4core7DOMableE@Base 1.2+1640
 _ZTSN5nidas4core7FileSetE@Base 1.2+1640
 _ZTSN5nidas4core7FsMountE@Base 1.2+1640
 _ZTSN5nidas4core7Project12MyDictionaryE@Base 1.2+1640
 _ZTSN5nidas4core7ProjectE@Base 1.2+1640
 _ZTSN5nidas4core7SampleTIcEE@Base 1.2+1640
 _ZTSN5nidas4core7SampleTIdEE@Base 1.2+1640
 _ZTSN5nidas4core7SampleTIfEE@Base 1.2+1640
 _ZTSN5nidas4core7SampleTIhEE@Base 1.2+1640
 _ZTSN5nidas4core7SampleTIiEE@Base 1.2+1640
 _ZTSN5nidas4core7SampleTIjEE@Base 1.2+1640
 _ZTSN5nidas4core7SampleTIsEE@Base 1.2+1640
 _ZTSN5nidas4core7SampleTItEE@Base 1.2+1640
 _ZTSN5nidas4core7SampleTIxEE@Base 1.2+1640
 _ZTSN5nidas4core8IODeviceE@Base 1.2+1640
 _ZTSN5nidas4core8IOStreamE@Base 1.2+1640
 _ZTSN5nidas4core8McSocket10MyMcSocketE@Base 1.2+1640
 _ZTSN5nidas4core8McSocketE@Base 1.2+1640
 _ZTSN5nidas4core8VariableE@Base 1.2+1640
 _ZTSN5nidas4core9DSMConfig12MyDictionaryE@Base 1.2+1640
 _ZTSN5nidas4core9DSMConfigE@Base 1.2+1640
 _ZTSN5nidas4core9DSMEngineE@Base 1.2+1640
 _ZTSN5nidas4core9DSMSensor12MyDictionaryE@Base 1.2+1640
 _ZTSN5nidas4core9DSMSensorE@Base 1.2+1640
 _ZTSN5nidas4core9DSMServerE@Base 1.2+1640
 _ZTSN5nidas4core9GetClocksE@Base 1.2+1640
 _ZTSN5nidas4core9GetStatusE@Base 1.2+1640
 _ZTSN5nidas4core9IOChannelE@Base 1.2+1640
 _ZTSN5nidas4core9ParameterE@Base 1.2+1640
 _ZTSN5nidas4core9ResamplerE@Base 1.2+1640
 _ZTSN5nidas4core9SampleTagE@Base 1.2+1640
 _ZTSN5nidas4core9XMLParserE@Base 1.2+1640
 _ZTSN5nidas4core9XMLWriterE@Base 1.2+1640
 _ZTSN5nidas4util11IOExceptionE@Base 1.2+1640
 _ZTSN5nidas4util12EOFExceptionE@Base 1.2+1640
 _ZTSN5nidas4util13SocketAddressE@Base 1.2+1640
 _ZTSN5nidas4util14DatagramPacketE@Base 1.2+1640
 _ZTSN5nidas4util14DatagramSocketE@Base 1.2+1640
 _ZTSN5nidas4util14ParseExceptionE@Base 1.2+1640
 _ZTSN5nidas4util15DatagramPacketTIcEE@Base 1.2+1640
 _ZTSN5nidas4util15Inet4PacketInfoE@Base 1.2+1640
 _ZTSN5nidas4util15MulticastSocketE@Base 1.2+1640
 _ZTSN5nidas4util16Inet4PacketInfoXE@Base 1.2+1640
 _ZTSN5nidas4util18DatagramPacketBaseE@Base 1.2+1640
 _ZTSN5nidas4util18IOTimeoutExceptionE@Base 1.2+1640
 _ZTSN5nidas4util19McSocketMulticasterINS0_14DatagramSocketEEE@Base 1.2+1640
 _ZTSN5nidas4util19McSocketMulticasterINS0_6SocketEEE@Base 1.2+1640
 _ZTSN5nidas4util20UnknownHostExceptionE@Base 1.2+1640
 _ZTSN5nidas4util25InvalidParameterExceptionE@Base 1.2+1640
 _ZTSN5nidas4util8McSocketINS0_14DatagramSocketEEE@Base 1.2+1640
 _ZTSN5nidas4util8McSocketINS0_6SocketEEE@Base 1.2+1640
 _ZTSN5nidas4util9ExceptionE@Base 1.2+1640
 _ZTV15SscanfFlexLexer@Base 1.2+1640
 _ZTVN11xercesc_3_210XMLDeleterE@Base 1.2+1640
 _ZTVN11xercesc_3_213SAX2XMLReaderE@Base 1.2+1640
 _ZTVN11xercesc_3_213XMLAttDefListE@Base 1.2+1640
 _ZTVN11xercesc_3_214DefaultHandlerE@Base 1.2+1640
 _ZTVN5nidas4core10DSMCatalogE@Base 1.2+1640
 _ZTVN5nidas4core10DSMServiceE@Base 1.2+1640
 _ZTVN5nidas4core10GetDsmListE@Base 1.2+1640
 _ZTVN5nidas4core10ParameterTINSt7__cxx1112basic_stringIcSt11char_traitsIcESaIcEEEEE@Base 1.2+1640
 _ZTVN5nidas4core10ParameterTIbEE@Base 1.2+1640
 _ZTVN5nidas4core10ParameterTIfEE@Base 1.2+1640
 _ZTVN5nidas4core10ParameterTIiEE@Base 1.2+1640
 _ZTVN5nidas4core10PolynomialE@Base 1.2+1640
 _ZTVN5nidas4core10SamplePoolINS0_7SampleTIcEEEE@Base 1.2+1640
 _ZTVN5nidas4core10SamplePoolINS0_7SampleTIdEEEE@Base 1.2+1640
 _ZTVN5nidas4core10SamplePoolINS0_7SampleTIfEEEE@Base 1.2+1640
 _ZTVN5nidas4core10SamplePoolINS0_7SampleTIhEEEE@Base 1.2+1640
 _ZTVN5nidas4core10SamplePoolINS0_7SampleTIiEEEE@Base 1.2+1640
 _ZTVN5nidas4core10SamplePoolINS0_7SampleTIjEEEE@Base 1.2+1640
 _ZTVN5nidas4core10SamplePoolINS0_7SampleTIsEEEE@Base 1.2+1640
 _ZTVN5nidas4core10SamplePoolINS0_7SampleTItEEEE@Base 1.2+1640
 _ZTVN5nidas4core10SamplePoolINS0_7SampleTIxEEEE@Base 1.2+1640
 _ZTVN5nidas4core11AsciiSscanfE@Base 1.2+1640
 _ZTVN5nidas4core11McSocketUDP10MyMcSocketE@Base 1.2+1640
 _ZTVN5nidas4core11McSocketUDPE@Base 1.2+1640
 _ZTVN5nidas4core11NidasAppArgE@Base 1.2+1640
 _ZTVN5nidas4core12Bzip2FileSetE@Base 1.2+1640
 _ZTVN5nidas4core12SampleBufferE@Base 1.2+1640
 _ZTVN5nidas4core12SampleSorterE@Base 1.2+1640
 _ZTVN5nidas4core12SampleThreadE@Base 1.2+1640
 _ZTVN5nidas4core12SensorOpenerE@Base 1.2+1640
 _ZTVN5nidas4core12SerialSensor8PrompterE@Base 1.2+1640
 _ZTVN5nidas4core12SerialSensorE@Base 1.2+1640
 _ZTVN5nidas4core12ServerSocket16ConnectionThreadE@Base 1.2+1640
 _ZTVN5nidas4core12ServerSocketE@Base 1.2+1640
 _ZTVN5nidas4core12StatusThreadE@Base 1.2+1640
 _ZTVN5nidas4core12UnixIODeviceE@Base 1.2+1640
 _ZTVN5nidas4core12XMLExceptionE@Base 1.2+1640
 _ZTVN5nidas4core12XmlRpcThreadE@Base 1.2+1640
 _ZTVN5nidas4core13DSMEngineIntf12SensorActionE@Base 1.2+1640
 _ZTVN5nidas4core13DSMEngineIntf9DSMActionE@Base 1.2+1640
 _ZTVN5nidas4core13DSMEngineIntfE@Base 1.2+1640
 _ZTVN5nidas4core13DSMEngineStatE@Base 1.2+1640
 _ZTVN5nidas4core13DSMServerIntfE@Base 1.2+1640
 _ZTVN5nidas4core13DSMServerStatE@Base 1.2+1640
 _ZTVN5nidas4core13SampleScannerE@Base 1.2+1640
 _ZTVN5nidas4core13SensorCatalogE@Base 1.2+1640
 _ZTVN5nidas4core13SensorHandler15PolledDSMSensorE@Base 1.2+1640
 _ZTVN5nidas4core13SensorHandlerE@Base 1.2+1640
 _ZTVN5nidas4core13StatusHandlerE@Base 1.2+1640
 _ZTVN5nidas4core13UnixIOChannelE@Base 1.2+1640
 _ZTVN5nidas4core14DatagramSocketE@Base 1.2+1640
 _ZTVN5nidas4core14GetAdsFileNameE@Base 1.2+1640
 _ZTVN5nidas4core14SampleArchiverE@Base 1.2+1640
 _ZTVN5nidas4core14SampleAveragerE@Base 1.2+1640
 _ZTVN5nidas4core14SamplePipelineE@Base 1.2+1640
 _ZTVN5nidas4core14ServiceCatalogE@Base 1.2+1640
 _ZTVN5nidas4core14SocketIODeviceE@Base 1.2+1640
 _ZTVN5nidas4core14StatusListenerE@Base 1.2+1640
 _ZTVN5nidas4core14XMLConfigInputE@Base 1.2+1640
 _ZTVN5nidas4core15CharacterSensorE@Base 1.2+1640
 _ZTVN5nidas4core15XMLConfigWriterE@Base 1.2+1640
 _ZTVN5nidas4core15XMLErrorHandlerE@Base 1.2+1640
 _ZTVN5nidas4core16NearestResamplerE@Base 1.2+1640
 _ZTVN5nidas4core16SampleClientListE@Base 1.2+1640
 _ZTVN5nidas4core16SampleOutputBaseE@Base 1.2+1640
 _ZTVN5nidas4core16XMLCachingParserE@Base 1.2+1640
 _ZTVN5nidas4core16XMLFdInputSourceE@Base 1.2+1640
 _ZTVN5nidas4core17DerivedDataReaderE@Base 1.2+1640
 _ZTVN5nidas4core17NidasAppExceptionE@Base 1.2+1640
 _ZTVN5nidas4core17SampleIOProcessorE@Base 1.2+1640
 _ZTVN5nidas4core17TCPSocketIODeviceE@Base 1.2+1640
 _ZTVN5nidas4core17UDPSocketIODeviceE@Base 1.2+1640
 _ZTVN5nidas4core17VariableConverterE@Base 1.2+1640
 _ZTVN5nidas4core17XMLFdFormatTargetE@Base 1.2+1640
 _ZTVN5nidas4core18AsciiSscanfAdapterE@Base 1.2+1640
 _ZTVN5nidas4core18BadSampleFilterArgE@Base 1.2+1640
 _ZTVN5nidas4core18MultipleUDPSocketsE@Base 1.2+1640
 _ZTVN5nidas4core18SerialPortIODeviceE@Base 1.2+1640
 _ZTVN5nidas4core19DriverSampleScannerE@Base 1.2+1640
 _ZTVN5nidas4core19FsMountWorkerThreadE@Base 1.2+1640
 _ZTVN5nidas4core19SampleSourceSupportE@Base 1.2+1640
 _ZTVN5nidas4core19XMLFdBinInputStreamE@Base 1.2+1640
 _ZTVN5nidas4core20MessageSampleScannerE@Base 1.2+1640
 _ZTVN5nidas4core20MessageStreamScannerE@Base 1.2+1640
 _ZTVN5nidas4core20RemoteSerialListenerE@Base 1.2+1640
 _ZTVN5nidas4core20ServerSocketIODeviceE@Base 1.2+1640
 _ZTVN5nidas4core21DatagramSampleScannerE@Base 1.2+1640
 _ZTVN5nidas4core21NidasAppInputFilesArgE@Base 1.2+1640
 _ZTVN5nidas4core21SampleLengthExceptionE@Base 1.2+1640
 _ZTVN5nidas4core21XMLConfigWriterFilterE@Base 1.2+1640
 _ZTVN5nidas4core22NearestResamplerAtRateE@Base 1.2+1640
 _ZTVN5nidas4core22RemoteSerialConnectionE@Base 1.2+1640
 _ZTVN5nidas4core25SampleOutputRequestThreadE@Base 1.2+1640
 _ZTVN5nidas4core29BluetoothRFCommSocketIODeviceE@Base 1.2+1640
 _ZTVN5nidas4core4Site12MyDictionaryE@Base 1.2+1640
 _ZTVN5nidas4core4SiteE@Base 1.2+1640
 _ZTVN5nidas4core6LinearE@Base 1.2+1640
 _ZTVN5nidas4core6LooperE@Base 1.2+1640
 _ZTVN5nidas4core6SampleE@Base 1.2+1640
 _ZTVN5nidas4core6Socket16ConnectionThreadE@Base 1.2+1640
 _ZTVN5nidas4core6SocketE@Base 1.2+1640
 _ZTVN5nidas4core7CalFileE@Base 1.2+1640
 _ZTVN5nidas4core7DOMableE@Base 1.2+1640
 _ZTVN5nidas4core7FileSetE@Base 1.2+1640
 _ZTVN5nidas4core7FsMountE@Base 1.2+1640
 _ZTVN5nidas4core7Project12MyDictionaryE@Base 1.2+1640
 _ZTVN5nidas4core7ProjectE@Base 1.2+1640
 _ZTVN5nidas4core7SampleTIcEE@Base 1.2+1640
 _ZTVN5nidas4core7SampleTIdEE@Base 1.2+1640
 _ZTVN5nidas4core7SampleTIfEE@Base 1.2+1640
 _ZTVN5nidas4core7SampleTIhEE@Base 1.2+1640
 _ZTVN5nidas4core7SampleTIiEE@Base 1.2+1640
 _ZTVN5nidas4core7SampleTIjEE@Base 1.2+1640
 _ZTVN5nidas4core7SampleTIsEE@Base 1.2+1640
 _ZTVN5nidas4core7SampleTItEE@Base 1.2+1640
 _ZTVN5nidas4core7SampleTIxEE@Base 1.2+1640
 _ZTVN5nidas4core8IODeviceE@Base 1.2+1640
 _ZTVN5nidas4core8IOStreamE@Base 1.2+1640
 _ZTVN5nidas4core8McSocket10MyMcSocketE@Base 1.2+1640
 _ZTVN5nidas4core8McSocketE@Base 1.2+1640
 _ZTVN5nidas4core8VariableE@Base 1.2+1640
 _ZTVN5nidas4core9DSMConfig12MyDictionaryE@Base 1.2+1640
 _ZTVN5nidas4core9DSMConfigE@Base 1.2+1640
 _ZTVN5nidas4core9DSMEngineE@Base 1.2+1640
 _ZTVN5nidas4core9DSMSensor12MyDictionaryE@Base 1.2+1640
 _ZTVN5nidas4core9DSMSensorE@Base 1.2+1640
 _ZTVN5nidas4core9DSMServerE@Base 1.2+1640
 _ZTVN5nidas4core9GetClocksE@Base 1.2+1640
 _ZTVN5nidas4core9GetStatusE@Base 1.2+1640
 _ZTVN5nidas4core9IOChannelE@Base 1.2+1640
 _ZTVN5nidas4core9ParameterE@Base 1.2+1640
 _ZTVN5nidas4core9SampleTagE@Base 1.2+1640
 _ZTVN5nidas4core9XMLParserE@Base 1.2+1640
 _ZTVN5nidas4core9XMLWriterE@Base 1.2+1640
 _ZTVN5nidas4util11IOExceptionE@Base 1.2+1640
 _ZTVN5nidas4util12EOFExceptionE@Base 1.2+1640
 _ZTVN5nidas4util14DatagramPacketE@Base 1.2+1640
 _ZTVN5nidas4util14DatagramSocketE@Base 1.2+1640
 _ZTVN5nidas4util14ParseExceptionE@Base 1.2+1640
 _ZTVN5nidas4util15Inet4PacketInfoE@Base 1.2+1640
 _ZTVN5nidas4util15MulticastSocketE@Base 1.2+1640
 _ZTVN5nidas4util16Inet4PacketInfoXE@Base 1.2+1640
 _ZTVN5nidas4util18DatagramPacketBaseE@Base 1.2+1640
 _ZTVN5nidas4util18IOTimeoutExceptionE@Base 1.2+1640
 _ZTVN5nidas4util19McSocketMulticasterINS0_14DatagramSocketEEE@Base 1.2+1640
 _ZTVN5nidas4util19McSocketMulticasterINS0_6SocketEEE@Base 1.2+1640
 _ZTVN5nidas4util25InvalidParameterExceptionE@Base 1.2+1640
 _ZTVN5nidas4util8McSocketINS0_14DatagramSocketEEE@Base 1.2+1640
 _ZTVN5nidas4util8McSocketINS0_6SocketEEE@Base 1.2+1640
 _ZTVN5nidas4util9ExceptionE@Base 1.2+1640
 _ZTch0_h4_N5nidas4core16SampleOutputBase9connectedEPNS0_9IOChannelE@Base 1.2+1640
 _ZTchn4_h4_N5nidas4core16SampleOutputBase9connectedEPNS0_9IOChannelE@Base 1.2+1640
 _ZThn12_N11xercesc_3_214DefaultHandler10fatalErrorERKNS_17SAXParseExceptionE@Base 1.2+1640
 _ZThn12_N11xercesc_3_214DefaultHandler11resetErrorsEv@Base 1.2+1640
 _ZThn12_N11xercesc_3_214DefaultHandler5errorERKNS_17SAXParseExceptionE@Base 1.2+1640
 _ZThn12_N11xercesc_3_214DefaultHandler7warningERKNS_17SAXParseExceptionE@Base 1.2+1640
 _ZThn12_N11xercesc_3_214DefaultHandlerD0Ev@Base 1.2+1640
 _ZThn12_N11xercesc_3_214DefaultHandlerD1Ev@Base 1.2+1640
 _ZThn12_N5nidas4core13StatusHandler10fatalErrorERKN11xercesc_3_217SAXParseExceptionE@Base 1.2+1640
 _ZThn12_N5nidas4core13StatusHandler5errorERKN11xercesc_3_217SAXParseExceptionE@Base 1.2+1640
 _ZThn12_N5nidas4core13StatusHandler7warningERKN11xercesc_3_217SAXParseExceptionE@Base 1.2+1640
 _ZThn12_N5nidas4core13StatusHandlerD0Ev@Base 1.2+1640
 _ZThn12_N5nidas4core13StatusHandlerD1Ev@Base 1.2+1640
 _ZThn16_N11xercesc_3_214DefaultHandler10startCDATAEv@Base 1.2+1640
 _ZThn16_N11xercesc_3_214DefaultHandler11startEntityEPKDs@Base 1.2+1640
 _ZThn16_N11xercesc_3_214DefaultHandler6endDTDEv@Base 1.2+1640
 _ZThn16_N11xercesc_3_214DefaultHandler7commentEPKDsj@Base 1.2+1640
 _ZThn16_N11xercesc_3_214DefaultHandler8endCDATAEv@Base 1.2+1640
 _ZThn16_N11xercesc_3_214DefaultHandler8startDTDEPKDsS2_S2_@Base 1.2+1640
 _ZThn16_N11xercesc_3_214DefaultHandler9endEntityEPKDs@Base 1.2+1640
 _ZThn16_N11xercesc_3_214DefaultHandlerD0Ev@Base 1.2+1640
 _ZThn16_N11xercesc_3_214DefaultHandlerD1Ev@Base 1.2+1640
 _ZThn16_N5nidas4core13StatusHandlerD0Ev@Base 1.2+1640
 _ZThn16_N5nidas4core13StatusHandlerD1Ev@Base 1.2+1640
 _ZThn20_N11xercesc_3_214DefaultHandler11elementDeclEPKDsS2_@Base 1.2+1640
 _ZThn20_N11xercesc_3_214DefaultHandler13attributeDeclEPKDsS2_S2_S2_S2_@Base 1.2+1640
 _ZThn20_N11xercesc_3_214DefaultHandler18externalEntityDeclEPKDsS2_S2_@Base 1.2+1640
 _ZThn20_N11xercesc_3_214DefaultHandler18internalEntityDeclEPKDsS2_@Base 1.2+1640
 _ZThn20_N11xercesc_3_214DefaultHandlerD0Ev@Base 1.2+1640
 _ZThn20_N11xercesc_3_214DefaultHandlerD1Ev@Base 1.2+1640
 _ZThn20_N5nidas4core13StatusHandlerD0Ev@Base 1.2+1640
 _ZThn20_N5nidas4core13StatusHandlerD1Ev@Base 1.2+1640
 _ZThn388_N5nidas4core12SampleBuffer5flushEv@Base 1.2+1640
 _ZThn388_N5nidas4core12SampleBuffer7receiveEPKNS0_6SampleE@Base 1.2+1640
 _ZThn388_N5nidas4core12SampleBufferD0Ev@Base 1.2+1640
 _ZThn388_N5nidas4core12SampleBufferD1Ev@Base 1.2+1640
 _ZThn388_N5nidas4core12SampleSorter5flushEv@Base 1.2+1640
 _ZThn388_N5nidas4core12SampleSorter7receiveEPKNS0_6SampleE@Base 1.2+1640
 _ZThn388_N5nidas4core12SampleSorterD0Ev@Base 1.2+1640
 _ZThn388_N5nidas4core12SampleSorterD1Ev@Base 1.2+1640
 _ZThn392_N5nidas4core12SampleBuffer12addSampleTagEPKNS0_9SampleTagE@Base 1.2+1640
 _ZThn392_N5nidas4core12SampleBuffer15addSampleClientEPNS0_12SampleClientE@Base 1.2+1640
 _ZThn392_N5nidas4core12SampleBuffer15removeSampleTagEPKNS0_9SampleTagE@Base 1.2+1640
 _ZThn392_N5nidas4core12SampleBuffer18getRawSampleSourceEv@Base 1.2+1640
 _ZThn392_N5nidas4core12SampleBuffer18removeSampleClientEPNS0_12SampleClientE@Base 1.2+1640
 _ZThn392_N5nidas4core12SampleBuffer21addSampleClientForTagEPNS0_12SampleClientEPKNS0_9SampleTagE@Base 1.2+1640
 _ZThn392_N5nidas4core12SampleBuffer24getProcessedSampleSourceEv@Base 1.2+1640
 _ZThn392_N5nidas4core12SampleBuffer24removeSampleClientForTagEPNS0_12SampleClientEPKNS0_9SampleTagE@Base 1.2+1640
 _ZThn392_N5nidas4core12SampleBuffer5flushEv@Base 1.2+1640
 _ZThn392_N5nidas4core12SampleBufferD0Ev@Base 1.2+1640
 _ZThn392_N5nidas4core12SampleBufferD1Ev@Base 1.2+1640
 _ZThn392_N5nidas4core12SampleSorter12addSampleTagEPKNS0_9SampleTagE@Base 1.2+1640
 _ZThn392_N5nidas4core12SampleSorter15addSampleClientEPNS0_12SampleClientE@Base 1.2+1640
 _ZThn392_N5nidas4core12SampleSorter15removeSampleTagEPKNS0_9SampleTagE@Base 1.2+1640
 _ZThn392_N5nidas4core12SampleSorter18getRawSampleSourceEv@Base 1.2+1640
 _ZThn392_N5nidas4core12SampleSorter18removeSampleClientEPNS0_12SampleClientE@Base 1.2+1640
 _ZThn392_N5nidas4core12SampleSorter21addSampleClientForTagEPNS0_12SampleClientEPKNS0_9SampleTagE@Base 1.2+1640
 _ZThn392_N5nidas4core12SampleSorter24getProcessedSampleSourceEv@Base 1.2+1640
 _ZThn392_N5nidas4core12SampleSorter24removeSampleClientForTagEPNS0_12SampleClientEPKNS0_9SampleTagE@Base 1.2+1640
 _ZThn392_N5nidas4core12SampleSorter5flushEv@Base 1.2+1640
 _ZThn392_N5nidas4core12SampleSorterD0Ev@Base 1.2+1640
 _ZThn392_N5nidas4core12SampleSorterD1Ev@Base 1.2+1640
 _ZThn392_NK5nidas4core12SampleBuffer13getSampleTagsB5cxx11Ev@Base 1.2+1640
 _ZThn392_NK5nidas4core12SampleBuffer14getClientCountEv@Base 1.2+1640
 _ZThn392_NK5nidas4core12SampleBuffer14getSampleStatsEv@Base 1.2+1640
 _ZThn392_NK5nidas4core12SampleBuffer20getSampleTagIteratorEv@Base 1.2+1640
 _ZThn392_NK5nidas4core12SampleSorter13getSampleTagsB5cxx11Ev@Base 1.2+1640
 _ZThn392_NK5nidas4core12SampleSorter14getClientCountEv@Base 1.2+1640
 _ZThn392_NK5nidas4core12SampleSorter14getSampleStatsEv@Base 1.2+1640
 _ZThn392_NK5nidas4core12SampleSorter20getSampleTagIteratorEv@Base 1.2+1640
 _ZThn4_N11xercesc_3_214DefaultHandler12notationDeclEPKDsS2_S2_@Base 1.2+1640
 _ZThn4_N11xercesc_3_214DefaultHandler12resetDocTypeEv@Base 1.2+1640
 _ZThn4_N11xercesc_3_214DefaultHandler18unparsedEntityDeclEPKDsS2_S2_S2_@Base 1.2+1640
 _ZThn4_N11xercesc_3_214DefaultHandlerD0Ev@Base 1.2+1640
 _ZThn4_N11xercesc_3_214DefaultHandlerD1Ev@Base 1.2+1640
 _ZThn4_N5nidas4core12SerialSensorD0Ev@Base 1.2+1640
 _ZThn4_N5nidas4core12SerialSensorD1Ev@Base 1.2+1640
 _ZThn4_N5nidas4core13StatusHandlerD0Ev@Base 1.2+1640
 _ZThn4_N5nidas4core13StatusHandlerD1Ev@Base 1.2+1640
 _ZThn4_N5nidas4core14SampleArchiver10disconnectEPNS0_12SampleOutputE@Base 1.2+1640
 _ZThn4_N5nidas4core14SampleArchiver7connectEPNS0_12SampleOutputE@Base 1.2+1640
 _ZThn4_N5nidas4core14SampleArchiverD0Ev@Base 1.2+1640
 _ZThn4_N5nidas4core14SampleArchiverD1Ev@Base 1.2+1640
 _ZThn4_N5nidas4core14SampleAverager12addSampleTagEPKNS0_9SampleTagE@Base 1.2+1640
 _ZThn4_N5nidas4core14SampleAverager15addSampleClientEPNS0_12SampleClientE@Base 1.2+1640
 _ZThn4_N5nidas4core14SampleAverager15removeSampleTagEPKNS0_9SampleTagE@Base 1.2+1640
 _ZThn4_N5nidas4core14SampleAverager18getRawSampleSourceEv@Base 1.2+1640
 _ZThn4_N5nidas4core14SampleAverager18removeSampleClientEPNS0_12SampleClientE@Base 1.2+1640
 _ZThn4_N5nidas4core14SampleAverager21addSampleClientForTagEPNS0_12SampleClientEPKNS0_9SampleTagE@Base 1.2+1640
 _ZThn4_N5nidas4core14SampleAverager24getProcessedSampleSourceEv@Base 1.2+1640
 _ZThn4_N5nidas4core14SampleAverager24removeSampleClientForTagEPNS0_12SampleClientEPKNS0_9SampleTagE@Base 1.2+1640
 _ZThn4_N5nidas4core14SampleAverager5flushEv@Base 1.2+1640
 _ZThn4_N5nidas4core14SampleAveragerD0Ev@Base 1.2+1640
 _ZThn4_N5nidas4core14SampleAveragerD1Ev@Base 1.2+1640
 _ZThn4_N5nidas4core15CharacterSensorD0Ev@Base 1.2+1640
 _ZThn4_N5nidas4core15CharacterSensorD1Ev@Base 1.2+1640
 _ZThn4_N5nidas4core16NearestResampler12addSampleTagEPKNS0_9SampleTagE@Base 1.2+1640
 _ZThn4_N5nidas4core16NearestResampler15addSampleClientEPNS0_12SampleClientE@Base 1.2+1640
 _ZThn4_N5nidas4core16NearestResampler15removeSampleTagEPKNS0_9SampleTagE@Base 1.2+1640
 _ZThn4_N5nidas4core16NearestResampler18getRawSampleSourceEv@Base 1.2+1640
 _ZThn4_N5nidas4core16NearestResampler18removeSampleClientEPNS0_12SampleClientE@Base 1.2+1640
 _ZThn4_N5nidas4core16NearestResampler21addSampleClientForTagEPNS0_12SampleClientEPKNS0_9SampleTagE@Base 1.2+1640
 _ZThn4_N5nidas4core16NearestResampler24getProcessedSampleSourceEv@Base 1.2+1640
 _ZThn4_N5nidas4core16NearestResampler24removeSampleClientForTagEPNS0_12SampleClientEPKNS0_9SampleTagE@Base 1.2+1640
 _ZThn4_N5nidas4core16NearestResampler5flushEv@Base 1.2+1640
 _ZThn4_N5nidas4core16NearestResamplerD0Ev@Base 1.2+1640
 _ZThn4_N5nidas4core16NearestResamplerD1Ev@Base 1.2+1640
 _ZThn4_N5nidas4core16SampleOutputBaseD0Ev@Base 1.2+1640
 _ZThn4_N5nidas4core16SampleOutputBaseD1Ev@Base 1.2+1640
 _ZThn4_N5nidas4core17SampleIOProcessorD0Ev@Base 1.2+1640
 _ZThn4_N5nidas4core17SampleIOProcessorD1Ev@Base 1.2+1640
 _ZThn4_N5nidas4core22NearestResamplerAtRate12addSampleTagEPKNS0_9SampleTagE@Base 1.2+1640
 _ZThn4_N5nidas4core22NearestResamplerAtRate15addSampleClientEPNS0_12SampleClientE@Base 1.2+1640
 _ZThn4_N5nidas4core22NearestResamplerAtRate15removeSampleTagEPKNS0_9SampleTagE@Base 1.2+1640
 _ZThn4_N5nidas4core22NearestResamplerAtRate18getRawSampleSourceEv@Base 1.2+1640
 _ZThn4_N5nidas4core22NearestResamplerAtRate18removeSampleClientEPNS0_12SampleClientE@Base 1.2+1640
 _ZThn4_N5nidas4core22NearestResamplerAtRate21addSampleClientForTagEPNS0_12SampleClientEPKNS0_9SampleTagE@Base 1.2+1640
 _ZThn4_N5nidas4core22NearestResamplerAtRate24getProcessedSampleSourceEv@Base 1.2+1640
 _ZThn4_N5nidas4core22NearestResamplerAtRate24removeSampleClientForTagEPNS0_12SampleClientEPKNS0_9SampleTagE@Base 1.2+1640
 _ZThn4_N5nidas4core22NearestResamplerAtRate5flushEv@Base 1.2+1640
 _ZThn4_N5nidas4core22NearestResamplerAtRateD0Ev@Base 1.2+1640
 _ZThn4_N5nidas4core22NearestResamplerAtRateD1Ev@Base 1.2+1640
 _ZThn4_N5nidas4core22RemoteSerialConnection16handlePollEventsEj@Base 1.2+1640
 _ZThn4_N5nidas4core22RemoteSerialConnectionD0Ev@Base 1.2+1640
 _ZThn4_N5nidas4core22RemoteSerialConnectionD1Ev@Base 1.2+1640
 _ZThn4_N5nidas4core9DSMSensor5flushEv@Base 1.2+1640
 _ZThn4_N5nidas4core9DSMSensor7receiveEPKNS0_6SampleE@Base 1.2+1640
 _ZThn4_N5nidas4core9DSMSensorD0Ev@Base 1.2+1640
 _ZThn4_N5nidas4core9DSMSensorD1Ev@Base 1.2+1640
 _ZThn4_NK5nidas4core14SampleAverager13getSampleTagsB5cxx11Ev@Base 1.2+1640
 _ZThn4_NK5nidas4core14SampleAverager14getClientCountEv@Base 1.2+1640
 _ZThn4_NK5nidas4core14SampleAverager14getSampleStatsEv@Base 1.2+1640
 _ZThn4_NK5nidas4core14SampleAverager20getSampleTagIteratorEv@Base 1.2+1640
 _ZThn4_NK5nidas4core16NearestResampler13getSampleTagsB5cxx11Ev@Base 1.2+1640
 _ZThn4_NK5nidas4core16NearestResampler14getClientCountEv@Base 1.2+1640
 _ZThn4_NK5nidas4core16NearestResampler14getSampleStatsEv@Base 1.2+1640
 _ZThn4_NK5nidas4core16NearestResampler20getSampleTagIteratorEv@Base 1.2+1640
 _ZThn4_NK5nidas4core22NearestResamplerAtRate13getSampleTagsB5cxx11Ev@Base 1.2+1640
 _ZThn4_NK5nidas4core22NearestResamplerAtRate14getClientCountEv@Base 1.2+1640
 _ZThn4_NK5nidas4core22NearestResamplerAtRate14getSampleStatsEv@Base 1.2+1640
 _ZThn4_NK5nidas4core22NearestResamplerAtRate20getSampleTagIteratorEv@Base 1.2+1640
 _ZThn4_NK5nidas4core22RemoteSerialConnection5getFdEv@Base 1.2+1640
 _ZThn8_N11xercesc_3_214DefaultHandler10charactersEPKDsj@Base 1.2+1640
 _ZThn8_N11xercesc_3_214DefaultHandler10endElementEPKDsS2_S2_@Base 1.2+1640
 _ZThn8_N11xercesc_3_214DefaultHandler11endDocumentEv@Base 1.2+1640
 _ZThn8_N11xercesc_3_214DefaultHandler12startElementEPKDsS2_S2_RKNS_10AttributesE@Base 1.2+1640
 _ZThn8_N11xercesc_3_214DefaultHandler13skippedEntityEPKDs@Base 1.2+1640
 _ZThn8_N11xercesc_3_214DefaultHandler13startDocumentEv@Base 1.2+1640
 _ZThn8_N11xercesc_3_214DefaultHandler16endPrefixMappingEPKDs@Base 1.2+1640
 _ZThn8_N11xercesc_3_214DefaultHandler18setDocumentLocatorEPKNS_7LocatorE@Base 1.2+1640
 _ZThn8_N11xercesc_3_214DefaultHandler18startPrefixMappingEPKDsS2_@Base 1.2+1640
 _ZThn8_N11xercesc_3_214DefaultHandler19ignorableWhitespaceEPKDsj@Base 1.2+1640
 _ZThn8_N11xercesc_3_214DefaultHandler21processingInstructionEPKDsS2_@Base 1.2+1640
 _ZThn8_N11xercesc_3_214DefaultHandlerD0Ev@Base 1.2+1640
 _ZThn8_N11xercesc_3_214DefaultHandlerD1Ev@Base 1.2+1640
 _ZThn8_N5nidas4core12SerialSensor14fromDOMElementEPKN11xercesc_3_210DOMElementE@Base 1.2+1640
 _ZThn8_N5nidas4core12SerialSensorD0Ev@Base 1.2+1640
 _ZThn8_N5nidas4core12SerialSensorD1Ev@Base 1.2+1640
 _ZThn8_N5nidas4core13StatusHandler10charactersEPKDsj@Base 1.2+1640
 _ZThn8_N5nidas4core13StatusHandler10endElementEPKDsS3_S3_@Base 1.2+1640
 _ZThn8_N5nidas4core13StatusHandler12startElementEPKDsS3_S3_RKN11xercesc_3_210AttributesE@Base 1.2+1640
 _ZThn8_N5nidas4core13StatusHandlerD0Ev@Base 1.2+1640
 _ZThn8_N5nidas4core13StatusHandlerD1Ev@Base 1.2+1640
 _ZThn8_N5nidas4core14SampleArchiverD0Ev@Base 1.2+1640
 _ZThn8_N5nidas4core14SampleArchiverD1Ev@Base 1.2+1640
 _ZThn8_N5nidas4core15CharacterSensor14fromDOMElementEPKN11xercesc_3_210DOMElementE@Base 1.2+1640
 _ZThn8_N5nidas4core15CharacterSensorD0Ev@Base 1.2+1640
 _ZThn8_N5nidas4core15CharacterSensorD1Ev@Base 1.2+1640
 _ZThn8_N5nidas4core16SampleOutputBase14fromDOMElementEPKN11xercesc_3_210DOMElementE@Base 1.2+1640
 _ZThn8_N5nidas4core16SampleOutputBaseD0Ev@Base 1.2+1640
 _ZThn8_N5nidas4core16SampleOutputBaseD1Ev@Base 1.2+1640
 _ZThn8_N5nidas4core17SampleIOProcessor14fromDOMElementEPKN11xercesc_3_210DOMElementE@Base 1.2+1640
 _ZThn8_N5nidas4core17SampleIOProcessorD0Ev@Base 1.2+1640
 _ZThn8_N5nidas4core17SampleIOProcessorD1Ev@Base 1.2+1640
 _ZThn8_N5nidas4core9DSMSensor14fromDOMElementEPKN11xercesc_3_210DOMElementE@Base 1.2+1640
 _ZThn8_N5nidas4core9DSMSensorD0Ev@Base 1.2+1640
 _ZThn8_N5nidas4core9DSMSensorD1Ev@Base 1.2+1640
 _ZThn8_NK5nidas4core9DSMSensor11toDOMParentEPN11xercesc_3_210DOMElementEb@Base 1.2+1640
 _ZThn8_NK5nidas4core9DSMSensor12toDOMElementEPN11xercesc_3_210DOMElementEb@Base 1.2+1640
 _ZZN5nidas4core10SamplePoolINS0_7SampleTIcEEE9getSampleEPPS3_PijE5weird@Base 1.2+1640
 _ZZN5nidas4core10SamplePoolINS0_7SampleTIhEEE9getSampleEPPS3_PijE5weird@Base 1.2+1640
 _ZZN5nidas4core7FileSet14setNonBlockingEbE7logctxt@Base 1.2+1640
 _ZZN5nidas4util19McSocketMulticasterINS0_14DatagramSocketEE3runEvE7logctxt@Base 1.2+1640
 _ZZN5nidas4util19McSocketMulticasterINS0_14DatagramSocketEE3runEvE7logctxt_0@Base 1.2+1640
 _ZZN5nidas4util19McSocketMulticasterINS0_14DatagramSocketEE3runEvE7logctxt_1@Base 1.2+1640
 _ZZN5nidas4util19McSocketMulticasterINS0_14DatagramSocketEE3runEvE7logctxt_2@Base 1.2+1640
 _ZZN5nidas4util19McSocketMulticasterINS0_14DatagramSocketEE3runEvE7logctxt_3@Base 1.2+1640
 _ZZN5nidas4util19McSocketMulticasterINS0_14DatagramSocketEE3runEvE7logctxt_4@Base 1.2+1640
 _ZZN5nidas4util19McSocketMulticasterINS0_14DatagramSocketEE3runEvE7logctxt_5@Base 1.2+1640
 _ZZN5nidas4util19McSocketMulticasterINS0_14DatagramSocketEE3runEvE7logctxt_6@Base 1.2+1640
 _ZZN5nidas4util19McSocketMulticasterINS0_14DatagramSocketEE9interruptEvE7logctxt@Base 1.2+1640
 _ZZN5nidas4util19McSocketMulticasterINS0_6SocketEE3runEvE7logctxt@Base 1.2+1640
 _ZZN5nidas4util19McSocketMulticasterINS0_6SocketEE3runEvE7logctxt_0@Base 1.2+1640
 _ZZN5nidas4util19McSocketMulticasterINS0_6SocketEE3runEvE7logctxt_1@Base 1.2+1640
 _ZZN5nidas4util19McSocketMulticasterINS0_6SocketEE3runEvE7logctxt_2@Base 1.2+1640
 _ZZN5nidas4util19McSocketMulticasterINS0_6SocketEE3runEvE7logctxt_3@Base 1.2+1640
 _ZZN5nidas4util19McSocketMulticasterINS0_6SocketEE3runEvE7logctxt_4@Base 1.2+1640
 _ZZN5nidas4util19McSocketMulticasterINS0_6SocketEE3runEvE7logctxt_5@Base 1.2+1640
 _ZZN5nidas4util19McSocketMulticasterINS0_6SocketEE3runEvE7logctxt_6@Base 1.2+1640
 _ZZN5nidas4util19McSocketMulticasterINS0_6SocketEE9interruptEvE7logctxt@Base 1.2+1640
 _ZZN5nidas4util8McSocketINS0_14DatagramSocketEE15joinMulticasterEvE7logctxt@Base 1.2+1640
 _ZZN5nidas4util8McSocketINS0_14DatagramSocketEE15joinMulticasterEvE7logctxt_0@Base 1.2+1640
 _ZZN5nidas4util8McSocketINS0_14DatagramSocketEE15joinMulticasterEvE7logctxt_1@Base 1.2+1640
 _ZZN5nidas4util8McSocketINS0_14DatagramSocketEE5closeEvE7logctxt@Base 1.2+1640
 _ZZN5nidas4util8McSocketINS0_14DatagramSocketEE5closeEvE7logctxt_0@Base 1.2+1640
 _ZZN5nidas4util8McSocketINS0_14DatagramSocketEE5closeEvE7logctxt_1@Base 1.2+1640
 _ZZN5nidas4util8McSocketINS0_14DatagramSocketEE6acceptERNS0_16Inet4PacketInfoXEE7logctxt@Base 1.2+1640
 _ZZN5nidas4util8McSocketINS0_14DatagramSocketEE7connectERNS0_16Inet4PacketInfoXEE7logctxt@Base 1.2+1640
 _ZZN5nidas4util8McSocketINS0_6SocketEE15joinMulticasterEvE7logctxt@Base 1.2+1640
 _ZZN5nidas4util8McSocketINS0_6SocketEE15joinMulticasterEvE7logctxt_0@Base 1.2+1640
 _ZZN5nidas4util8McSocketINS0_6SocketEE15joinMulticasterEvE7logctxt_1@Base 1.2+1640
 _ZZN5nidas4util8McSocketINS0_6SocketEE5closeEvE7logctxt@Base 1.2+1640
 _ZZN5nidas4util8McSocketINS0_6SocketEE5closeEvE7logctxt_0@Base 1.2+1640
 _ZZN5nidas4util8McSocketINS0_6SocketEE5closeEvE7logctxt_1@Base 1.2+1640
 _ZZN5nidas4util8McSocketINS0_6SocketEE6acceptERNS0_16Inet4PacketInfoXEE7logctxt@Base 1.2+1640
 _ZZN5nidas4util8McSocketINS0_6SocketEE7connectERNS0_16Inet4PacketInfoXEE7logctxt@Base 1.2+1640
libnidas_dynld.so.1 nidas-libs #MINVER#
 _Z11format_timexRKNSt7__cxx1112basic_stringIcSt11char_traitsIcESaIcEEE@Base 1.2+1640
 _Z12string_tokenRSt6vectorINSt7__cxx1112basic_stringIcSt11char_traitsIcESaIcEEESaIS5_EERKS5_SA_@Base 1.2+1640
 _Z24copy_variables_to_recordIdEvPKN5nidas4core6SampleEPdiRKSt6vectorIjSaIjEESA_i@Base 1.2+1640
 _Z24copy_variables_to_recordIfEvPKN5nidas4core6SampleEPdiRKSt6vectorIjSaIjEESA_i@Base 1.2+1640
 _Z24copy_variables_to_recordIjEvPKN5nidas4core6SampleEPdiRKSt6vectorIjSaIjEESA_i@Base 1.2+1640
 _Z4trimRNSt7__cxx1112basic_stringIcSt11char_traitsIcESaIcEEE@Base 1.2+1640
 _Z5ftimeB5cxx11x@Base 1.2+1640
 _ZGVN5nidas4core10SamplePoolINS0_7SampleTIcEEE13_instanceLockE@Base 1.2+1640
 _ZGVN5nidas4core10SamplePoolINS0_7SampleTIdEEE13_instanceLockE@Base 1.2+1640
 _ZGVN5nidas4core10SamplePoolINS0_7SampleTIfEEE13_instanceLockE@Base 1.2+1640
 _ZGVN5nidas4core10SamplePoolINS0_7SampleTIjEEE13_instanceLockE@Base 1.2+1640
 _ZGVZN5nidas4core7FileSet14setNonBlockingEbE7logctxt@Base 1.2+1640
 _ZGVZN5nidas4util8McSocketINS0_14DatagramSocketEE15joinMulticasterEvE7logctxt@Base 1.2+1640
 _ZGVZN5nidas4util8McSocketINS0_14DatagramSocketEE15joinMulticasterEvE7logctxt_0@Base 1.2+1640
 _ZGVZN5nidas4util8McSocketINS0_14DatagramSocketEE15joinMulticasterEvE7logctxt_1@Base 1.2+1640
 _ZGVZN5nidas4util8McSocketINS0_14DatagramSocketEE5closeEvE7logctxt@Base 1.2+1640
 _ZGVZN5nidas4util8McSocketINS0_14DatagramSocketEE5closeEvE7logctxt_0@Base 1.2+1640
 _ZGVZN5nidas4util8McSocketINS0_14DatagramSocketEE5closeEvE7logctxt_1@Base 1.2+1640
 _ZGVZN5nidas4util8McSocketINS0_6SocketEE15joinMulticasterEvE7logctxt@Base 1.2+1640
 _ZGVZN5nidas4util8McSocketINS0_6SocketEE15joinMulticasterEvE7logctxt_0@Base 1.2+1640
 _ZGVZN5nidas4util8McSocketINS0_6SocketEE15joinMulticasterEvE7logctxt_1@Base 1.2+1640
 _ZGVZN5nidas4util8McSocketINS0_6SocketEE5closeEvE7logctxt@Base 1.2+1640
 _ZGVZN5nidas4util8McSocketINS0_6SocketEE5closeEvE7logctxt_0@Base 1.2+1640
 _ZGVZN5nidas4util8McSocketINS0_6SocketEE5closeEvE7logctxt_1@Base 1.2+1640
 _ZN11xercesc_3_210XMLDeleterD0Ev@Base 1.2+1640
 _ZN11xercesc_3_210XMLDeleterD1Ev@Base 1.2+1640
 _ZN11xercesc_3_210XMLDeleterD2Ev@Base 1.2+1640
 _ZN14SyncReaderStop4stopEv@Base 1.2+1640
 _ZN14SyncReaderStopD0Ev@Base 1.2+1640
 _ZN14SyncReaderStopD1Ev@Base 1.2+1640
 _ZN14SyncReaderStopD2Ev@Base 1.2+1640
 _ZN5nidas4core10DSMService10printClockERSo@Base 1.2+1640
 _ZN5nidas4core10DSMService11printStatusERSof@Base 1.2+1640
 _ZN5nidas4core10DSMService12addProcessorEPNS0_17SampleIOProcessorE@Base 1.2+1640
 _ZN5nidas4core10ParameterTINSt7__cxx1112basic_stringIcSt11char_traitsIcESaIcEEEED0Ev@Base 1.2+1640
 _ZN5nidas4core10ParameterTINSt7__cxx1112basic_stringIcSt11char_traitsIcESaIcEEEED1Ev@Base 1.2+1640
 _ZN5nidas4core10ParameterTINSt7__cxx1112basic_stringIcSt11char_traitsIcESaIcEEEED2Ev@Base 1.2+1640
 _ZN5nidas4core10SamplePoolINS0_7SampleTIcEEE11getInstanceEv@Base 1.2+1640
 _ZN5nidas4core10SamplePoolINS0_7SampleTIcEEE13_instanceLockE@Base 1.2+1640
 _ZN5nidas4core10SamplePoolINS0_7SampleTIcEEE9_instanceE@Base 1.2+1640
 _ZN5nidas4core10SamplePoolINS0_7SampleTIcEEE9getSampleEPPS3_Pij@Base 1.2+1640
 _ZN5nidas4core10SamplePoolINS0_7SampleTIcEEE9getSampleEj@Base 1.2+1640
 _ZN5nidas4core10SamplePoolINS0_7SampleTIcEEE9putSampleEPKS3_@Base 1.2+1640
 _ZN5nidas4core10SamplePoolINS0_7SampleTIcEEE9putSampleEPKS3_PPPS3_PiSA_@Base 1.2+1640
 _ZN5nidas4core10SamplePoolINS0_7SampleTIcEEED0Ev@Base 1.2+1640
 _ZN5nidas4core10SamplePoolINS0_7SampleTIcEEED1Ev@Base 1.2+1640
 _ZN5nidas4core10SamplePoolINS0_7SampleTIcEEED2Ev@Base 1.2+1640
 _ZN5nidas4core10SamplePoolINS0_7SampleTIdEEE11getInstanceEv@Base 1.2+1640
 _ZN5nidas4core10SamplePoolINS0_7SampleTIdEEE13_instanceLockE@Base 1.2+1640
 _ZN5nidas4core10SamplePoolINS0_7SampleTIdEEE9_instanceE@Base 1.2+1640
 _ZN5nidas4core10SamplePoolINS0_7SampleTIdEEE9getSampleEPPS3_Pij@Base 1.2+1640
 _ZN5nidas4core10SamplePoolINS0_7SampleTIdEEE9getSampleEj@Base 1.2+1640
 _ZN5nidas4core10SamplePoolINS0_7SampleTIdEEE9putSampleEPKS3_@Base 1.2+1640
 _ZN5nidas4core10SamplePoolINS0_7SampleTIdEEE9putSampleEPKS3_PPPS3_PiSA_@Base 1.2+1640
 _ZN5nidas4core10SamplePoolINS0_7SampleTIdEEED0Ev@Base 1.2+1640
 _ZN5nidas4core10SamplePoolINS0_7SampleTIdEEED1Ev@Base 1.2+1640
 _ZN5nidas4core10SamplePoolINS0_7SampleTIdEEED2Ev@Base 1.2+1640
 _ZN5nidas4core10SamplePoolINS0_7SampleTIfEEE11getInstanceEv@Base 1.2+1640
 _ZN5nidas4core10SamplePoolINS0_7SampleTIfEEE13_instanceLockE@Base 1.2+1640
 _ZN5nidas4core10SamplePoolINS0_7SampleTIfEEE9_instanceE@Base 1.2+1640
 _ZN5nidas4core10SamplePoolINS0_7SampleTIfEEE9getSampleEPPS3_Pij@Base 1.2+1640
 _ZN5nidas4core10SamplePoolINS0_7SampleTIfEEE9getSampleEj@Base 1.2+1640
 _ZN5nidas4core10SamplePoolINS0_7SampleTIfEEE9putSampleEPKS3_@Base 1.2+1640
 _ZN5nidas4core10SamplePoolINS0_7SampleTIfEEE9putSampleEPKS3_PPPS3_PiSA_@Base 1.2+1640
 _ZN5nidas4core10SamplePoolINS0_7SampleTIfEEED0Ev@Base 1.2+1640
 _ZN5nidas4core10SamplePoolINS0_7SampleTIfEEED1Ev@Base 1.2+1640
 _ZN5nidas4core10SamplePoolINS0_7SampleTIfEEED2Ev@Base 1.2+1640
 _ZN5nidas4core10SamplePoolINS0_7SampleTIjEEE11getInstanceEv@Base 1.2+1640
 _ZN5nidas4core10SamplePoolINS0_7SampleTIjEEE13_instanceLockE@Base 1.2+1640
 _ZN5nidas4core10SamplePoolINS0_7SampleTIjEEE9_instanceE@Base 1.2+1640
 _ZN5nidas4core10SamplePoolINS0_7SampleTIjEEE9getSampleEPPS3_Pij@Base 1.2+1640
 _ZN5nidas4core10SamplePoolINS0_7SampleTIjEEE9getSampleEj@Base 1.2+1640
 _ZN5nidas4core10SamplePoolINS0_7SampleTIjEEE9putSampleEPKS3_@Base 1.2+1640
 _ZN5nidas4core10SamplePoolINS0_7SampleTIjEEE9putSampleEPKS3_PPPS3_PiSA_@Base 1.2+1640
 _ZN5nidas4core10SamplePoolINS0_7SampleTIjEEED0Ev@Base 1.2+1640
 _ZN5nidas4core10SamplePoolINS0_7SampleTIjEEED1Ev@Base 1.2+1640
 _ZN5nidas4core10SamplePoolINS0_7SampleTIjEEED2Ev@Base 1.2+1640
 _ZN5nidas4core11McSocketUDP10MyMcSocket9connectedEPNS_4util14DatagramSocketERKNS3_16Inet4PacketInfoXE@Base 1.2+1640
 _ZN5nidas4core11McSocketUDP10MyMcSocketD0Ev@Base 1.2+1640
 _ZN5nidas4core11McSocketUDP10MyMcSocketD1Ev@Base 1.2+1640
 _ZN5nidas4core11McSocketUDP10MyMcSocketD2Ev@Base 1.2+1640
 _ZN5nidas4core11McSocketUDPD0Ev@Base 1.2+1640
 _ZN5nidas4core11McSocketUDPD1Ev@Base 1.2+1640
 _ZN5nidas4core11McSocketUDPD2Ev@Base 1.2+1640
 _ZN5nidas4core12SampleTracerD1Ev@Base 1.2+1640
 _ZN5nidas4core12SampleTracerD2Ev@Base 1.2+1640
 _ZN5nidas4core12UnixIODevice4openEi@Base 1.2+1640
 _ZN5nidas4core12UnixIODevice4readEPvj@Base 1.2+1640
 _ZN5nidas4core12UnixIODevice5closeEv@Base 1.2+1640
 _ZN5nidas4core12UnixIODevice5ioctlEiPvj@Base 1.2+1640
 _ZN5nidas4core12UnixIODevice5writeEPKvj@Base 1.2+1640
 _ZN5nidas4core12XMLExceptionD0Ev@Base 1.2+1640
 _ZN5nidas4core12XMLExceptionD1Ev@Base 1.2+1640
 _ZN5nidas4core12XMLExceptionD2Ev@Base 1.2+1640
 _ZN5nidas4core13UnixIOChannel5writeEPKvj@Base 1.2+1640
 _ZN5nidas4core14SamplePipeline18getRawSampleSourceEv@Base 1.2+1640
 _ZN5nidas4core14SamplePipeline24getProcessedSampleSourceEv@Base 1.2+1640
 _ZN5nidas4core14SamplePipeline5flushEv@Base 1.2+1640
 _ZN5nidas4core15CharacterSensor13stopPromptingEv@Base 1.2+1640
 _ZN5nidas4core15CharacterSensor14startPromptingEv@Base 1.2+1640
 _ZN5nidas4core15CharacterSensor15togglePromptingEv@Base 1.2+1640
 _ZN5nidas4core15CharacterSensor9addPromptERKNSt7__cxx1112basic_stringIcSt11char_traitsIcESaIcEEEdd@Base 1.2+1640
 _ZN5nidas4core16SampleOutputBase10setLatencyEf@Base 1.2+1640
 _ZN5nidas4core16SampleOutputBase12setDSMConfigEPKNS0_9DSMConfigE@Base 1.2+1640
 _ZN5nidas4core16SampleOutputBase15setHeaderSourceEPNS0_12HeaderSourceE@Base 1.2+1640
 _ZN5nidas4core16SampleOutputBase7setNameERKNSt7__cxx1112basic_stringIcSt11char_traitsIcESaIcEEE@Base 1.2+1640
 _ZN5nidas4core17SampleIOProcessor10setServiceEPKNS0_10DSMServiceE@Base 1.2+1640
 _ZN5nidas4core17SampleIOProcessor11printStatusERSofRi@Base 1.2+1640
 _ZN5nidas4core17SampleIOProcessor11setOptionalEb@Base 1.2+1640
 _ZN5nidas4core17SampleIOProcessor12setDSMConfigEPKNS0_9DSMConfigE@Base 1.2+1640
 _ZN5nidas4core17SampleIOProcessor15addSampleClientEPNS0_12SampleClientE@Base 1.2+1640
 _ZN5nidas4core17SampleIOProcessor18getRawSampleSourceEv@Base 1.2+1640
 _ZN5nidas4core17SampleIOProcessor18removeSampleClientEPNS0_12SampleClientE@Base 1.2+1640
 _ZN5nidas4core17SampleIOProcessor21addSampleClientForTagEPNS0_12SampleClientEPKNS0_9SampleTagE@Base 1.2+1640
 _ZN5nidas4core17SampleIOProcessor24getProcessedSampleSourceEv@Base 1.2+1640
 _ZN5nidas4core17SampleIOProcessor24removeSampleClientForTagEPNS0_12SampleClientEPKNS0_9SampleTagE@Base 1.2+1640
 _ZN5nidas4core17SampleIOProcessor4initEx@Base 1.2+1640
 _ZN5nidas4core17SampleIOProcessor9addOutputEPNS0_12SampleOutputE@Base 1.2+1640
 _ZN5nidas4core17TCPSocketIODevice4readEPvj@Base 1.2+1640
 _ZN5nidas4core17TCPSocketIODevice5writeEPKvj@Base 1.2+1640
 _ZN5nidas4core17UDPSocketIODevice4readEPvj@Base 1.2+1640
 _ZN5nidas4core17UDPSocketIODevice5writeEPKvj@Base 1.2+1640
 _ZN5nidas4core18XMLStringConverterD1Ev@Base 1.2+1640
 _ZN5nidas4core18XMLStringConverterD2Ev@Base 1.2+1640
 _ZN5nidas4core19SampleSourceSupportD0Ev@Base 1.2+1640
 _ZN5nidas4core19SampleSourceSupportD1Ev@Base 1.2+1640
 _ZN5nidas4core19SampleSourceSupportD2Ev@Base 1.2+1640
 _ZN5nidas4core20MessageStreamScanner10nextSampleEPNS0_9DSMSensorE@Base 1.2+1640
 _ZN5nidas4core20ServerSocketIODevice4readEPvj@Base 1.2+1640
 _ZN5nidas4core20ServerSocketIODevice4readEPvji@Base 1.2+1640
 _ZN5nidas4core20ServerSocketIODevice5writeEPKvj@Base 1.2+1640
 _ZN5nidas4core21SampleLengthExceptionC1ERKNSt7__cxx1112basic_stringIcSt11char_traitsIcESaIcEEEjj@Base 1.2+1640
 _ZN5nidas4core21SampleLengthExceptionC2ERKNSt7__cxx1112basic_stringIcSt11char_traitsIcESaIcEEEjj@Base 1.2+1640
 _ZN5nidas4core21SampleLengthExceptionD0Ev@Base 1.2+1640
 _ZN5nidas4core21SampleLengthExceptionD1Ev@Base 1.2+1640
 _ZN5nidas4core21SampleLengthExceptionD2Ev@Base 1.2+1640
 _ZN5nidas4core22CalFileHandlerFunctionISt9binder1stISt10mem_fun1_tIbNS_5dynld4isff8NCAR_TRHEPNS0_7CalFileEEEE19handleCalFileRecordES8_@Base 1.2+1640
 _ZN5nidas4core22CalFileHandlerFunctionISt9binder1stISt10mem_fun1_tIbNS_5dynld4isff8NCAR_TRHEPNS0_7CalFileEEEED0Ev@Base 1.2+1640
 _ZN5nidas4core22CalFileHandlerFunctionISt9binder1stISt10mem_fun1_tIbNS_5dynld4isff8NCAR_TRHEPNS0_7CalFileEEEED1Ev@Base 1.2+1640
 _ZN5nidas4core22CalFileHandlerFunctionISt9binder1stISt10mem_fun1_tIbNS_5dynld4isff8NCAR_TRHEPNS0_7CalFileEEEED2Ev@Base 1.2+1640
 _ZN5nidas4core7FileSet14setNonBlockingEb@Base 1.2+1640
 _ZN5nidas4core7FileSet4readEPvj@Base 1.2+1640
 _ZN5nidas4core7FileSet5writeEPK5ioveci@Base 1.2+1640
 _ZN5nidas4core7FileSet5writeEPKvj@Base 1.2+1640
 _ZN5nidas4core7SampleTIcE12allocateDataEj@Base 1.2+1640
 _ZN5nidas4core7SampleTIcE12setDataValueEjd@Base 1.2+1640
 _ZN5nidas4core7SampleTIcE12setDataValueEjf@Base 1.2+1640
 _ZN5nidas4core7SampleTIcE13setDataLengthEj@Base 1.2+1640
 _ZN5nidas4core7SampleTIcE14getVoidDataPtrEv@Base 1.2+1640
 _ZN5nidas4core7SampleTIcE14reallocateDataEj@Base 1.2+1640
 _ZN5nidas4core7SampleTIcED0Ev@Base 1.2+1640
 _ZN5nidas4core7SampleTIcED1Ev@Base 1.2+1640
 _ZN5nidas4core7SampleTIcED2Ev@Base 1.2+1640
 _ZN5nidas4core7SampleTIdE12allocateDataEj@Base 1.2+1640
 _ZN5nidas4core7SampleTIdE12setDataValueEjd@Base 1.2+1640
 _ZN5nidas4core7SampleTIdE12setDataValueEjf@Base 1.2+1640
 _ZN5nidas4core7SampleTIdE13setDataLengthEj@Base 1.2+1640
 _ZN5nidas4core7SampleTIdE14getVoidDataPtrEv@Base 1.2+1640
 _ZN5nidas4core7SampleTIdE14reallocateDataEj@Base 1.2+1640
 _ZN5nidas4core7SampleTIdED0Ev@Base 1.2+1640
 _ZN5nidas4core7SampleTIdED1Ev@Base 1.2+1640
 _ZN5nidas4core7SampleTIdED2Ev@Base 1.2+1640
 _ZN5nidas4core7SampleTIfE12allocateDataEj@Base 1.2+1640
 _ZN5nidas4core7SampleTIfE12setDataValueEjd@Base 1.2+1640
 _ZN5nidas4core7SampleTIfE12setDataValueEjf@Base 1.2+1640
 _ZN5nidas4core7SampleTIfE13setDataLengthEj@Base 1.2+1640
 _ZN5nidas4core7SampleTIfE14getVoidDataPtrEv@Base 1.2+1640
 _ZN5nidas4core7SampleTIfE14reallocateDataEj@Base 1.2+1640
 _ZN5nidas4core7SampleTIfED0Ev@Base 1.2+1640
 _ZN5nidas4core7SampleTIfED1Ev@Base 1.2+1640
 _ZN5nidas4core7SampleTIfED2Ev@Base 1.2+1640
 _ZN5nidas4core7SampleTIjE12allocateDataEj@Base 1.2+1640
 _ZN5nidas4core7SampleTIjE12setDataValueEjd@Base 1.2+1640
 _ZN5nidas4core7SampleTIjE12setDataValueEjf@Base 1.2+1640
 _ZN5nidas4core7SampleTIjE13setDataLengthEj@Base 1.2+1640
 _ZN5nidas4core7SampleTIjE14getVoidDataPtrEv@Base 1.2+1640
 _ZN5nidas4core7SampleTIjE14reallocateDataEj@Base 1.2+1640
 _ZN5nidas4core7SampleTIjED0Ev@Base 1.2+1640
 _ZN5nidas4core7SampleTIjED1Ev@Base 1.2+1640
 _ZN5nidas4core7SampleTIjED2Ev@Base 1.2+1640
 _ZN5nidas4core8IODevice7setNameERKNSt7__cxx1112basic_stringIcSt11char_traitsIcESaIcEEE@Base 1.2+1640
 _ZN5nidas4core8McSocket10MyMcSocket9connectedEPNS_4util6SocketERKNS3_16Inet4PacketInfoXE@Base 1.2+1640
 _ZN5nidas4core8McSocket10MyMcSocketD0Ev@Base 1.2+1640
 _ZN5nidas4core8McSocket10MyMcSocketD1Ev@Base 1.2+1640
 _ZN5nidas4core8McSocket10MyMcSocketD2Ev@Base 1.2+1640
 _ZN5nidas4core8McSocketD0Ev@Base 1.2+1640
 _ZN5nidas4core8McSocketD1Ev@Base 1.2+1640
 _ZN5nidas4core8McSocketD2Ev@Base 1.2+1640
 _ZN5nidas4core8Variable10setStationEi@Base 1.2+1640
 _ZN5nidas4core8Variable7setNameERKNSt7__cxx1112basic_stringIcSt11char_traitsIcESaIcEEE@Base 1.2+1640
 _ZN5nidas4core9DSMSensor10nextSampleEv@Base 1.2+1640
 _ZN5nidas4core9DSMSensor10setLagSecsEd@Base 1.2+1640
 _ZN5nidas4core9DSMSensor10setLatencyEf@Base 1.2+1640
 _ZN5nidas4core9DSMSensor11setTypeNameERKNSt7__cxx1112basic_stringIcSt11char_traitsIcESaIcEEE@Base 1.2+1640
 _ZN5nidas4core9DSMSensor12setClassNameERKNSt7__cxx1112basic_stringIcSt11char_traitsIcESaIcEEE@Base 1.2+1640
 _ZN5nidas4core9DSMSensor13executeXmlRpcERN6XmlRpc11XmlRpcValueES4_@Base 1.2+1640
 _ZN5nidas4core9DSMSensor13setDeviceNameERKNSt7__cxx1112basic_stringIcSt11char_traitsIcESaIcEEE@Base 1.2+1640
 _ZN5nidas4core9DSMSensor14setCatalogNameERKNSt7__cxx1112basic_stringIcSt11char_traitsIcESaIcEEE@Base 1.2+1640
 _ZN5nidas4core9DSMSensor14setDefaultModeEi@Base 1.2+1640
 _ZN5nidas4core9DSMSensor15addSampleClientEPNS0_12SampleClientE@Base 1.2+1640
 _ZN5nidas4core9DSMSensor15setTimeoutMsecsEi@Base 1.2+1640
 _ZN5nidas4core9DSMSensor18getRawSampleSourceEv@Base 1.2+1640
 _ZN5nidas4core9DSMSensor18removeSampleClientEPNS0_12SampleClientE@Base 1.2+1640
 _ZN5nidas4core9DSMSensor21addSampleClientForTagEPNS0_12SampleClientEPKNS0_9SampleTagE@Base 1.2+1640
 _ZN5nidas4core9DSMSensor21getNonConstSampleTagsB5cxx11Ev@Base 1.2+1640
 _ZN5nidas4core9DSMSensor21setDriverTimeTagUsecsEi@Base 1.2+1640
 _ZN5nidas4core9DSMSensor24getProcessedSampleSourceEv@Base 1.2+1640
 _ZN5nidas4core9DSMSensor24removeSampleClientForTagEPNS0_12SampleClientEPKNS0_9SampleTagE@Base 1.2+1640
 _ZN5nidas4core9DSMSensor27setApplyVariableConversionsEb@Base 1.2+1640
 _ZN5nidas4core9DSMSensor4readEPvj@Base 1.2+1640
 _ZN5nidas4core9DSMSensor4readEPvji@Base 1.2+1640
 _ZN5nidas4core9DSMSensor5flushEv@Base 1.2+1640
 _ZN5nidas4core9DSMSensor5ioctlEiPvj@Base 1.2+1640
 _ZN5nidas4core9DSMSensor5writeEPKvj@Base 1.2+1640
 _ZN5nidas4core9IOChannel10createFileExb@Base 1.2+1640
 _ZN5nidas4core9IOChannel12setDSMConfigEPKNS0_9DSMConfigE@Base 1.2+1640
 _ZN5nidas4core9IOChannel14setRequestTypeENS0_15McSocketRequestE@Base 1.2+1640
 _ZN5nidas4core9IOChannel17setConnectionInfoERKNS0_14ConnectionInfoE@Base 1.2+1640
 _ZN5nidas4core9IOChannel5flushEv@Base 1.2+1640
 _ZN5nidas4core9SampleTag7setRateEd@Base 1.2+1640
 _ZN5nidas4corelsERSoRKNS0_12SampleHeaderE@Base 1.2+1640
 _ZN5nidas4corelsERSoRKNS0_6SampleE@Base 1.2+1640
 _ZN5nidas4util10LogMessage3logEv@Base 1.2+1640
 _ZN5nidas4util10LogMessageC1ERKNSt7__cxx1112basic_stringIcSt11char_traitsIcESaIcEEE@Base 1.2+1640
 _ZN5nidas4util10LogMessageC2ERKNSt7__cxx1112basic_stringIcSt11char_traitsIcESaIcEEE@Base 1.2+1640
 _ZN5nidas4util10LogMessageD1Ev@Base 1.2+1640
 _ZN5nidas4util10LogMessageD2Ev@Base 1.2+1640
 _ZN5nidas4util11IOExceptionC1ERKNSt7__cxx1112basic_stringIcSt11char_traitsIcESaIcEEES9_S9_@Base 1.2+1640
 _ZN5nidas4util11IOExceptionC1ERKNSt7__cxx1112basic_stringIcSt11char_traitsIcESaIcEEES9_i@Base 1.2+1640
 _ZN5nidas4util11IOExceptionC2ERKNSt7__cxx1112basic_stringIcSt11char_traitsIcESaIcEEES9_S9_@Base 1.2+1640
 _ZN5nidas4util11IOExceptionC2ERKNSt7__cxx1112basic_stringIcSt11char_traitsIcESaIcEEES9_i@Base 1.2+1640
 _ZN5nidas4util11IOExceptionD0Ev@Base 1.2+1640
 _ZN5nidas4util11IOExceptionD1Ev@Base 1.2+1640
 _ZN5nidas4util11IOExceptionD2Ev@Base 1.2+1640
 _ZN5nidas4util12EOFExceptionC1ERKNSt7__cxx1112basic_stringIcSt11char_traitsIcESaIcEEES9_@Base 1.2+1640
 _ZN5nidas4util12EOFExceptionC2ERKNSt7__cxx1112basic_stringIcSt11char_traitsIcESaIcEEES9_@Base 1.2+1640
 _ZN5nidas4util12EOFExceptionD0Ev@Base 1.2+1640
 _ZN5nidas4util12EOFExceptionD1Ev@Base 1.2+1640
 _ZN5nidas4util12EOFExceptionD2Ev@Base 1.2+1640
 _ZN5nidas4util12SynchronizedD1Ev@Base 1.2+1640
 _ZN5nidas4util12SynchronizedD2Ev@Base 1.2+1640
 _ZN5nidas4util15Inet4PacketInfo12setInterfaceERKNS0_21Inet4NetworkInterfaceE@Base 1.2+1640
 _ZN5nidas4util15Inet4PacketInfo15setLocalAddressERKNS0_12Inet4AddressE@Base 1.2+1640
 _ZN5nidas4util15Inet4PacketInfo21setDestinationAddressERKNS0_12Inet4AddressE@Base 1.2+1640
 _ZN5nidas4util15Inet4PacketInfo8setFlagsEi@Base 1.2+1640
 _ZN5nidas4util15Inet4PacketInfoD0Ev@Base 1.2+1640
 _ZN5nidas4util15Inet4PacketInfoD1Ev@Base 1.2+1640
 _ZN5nidas4util15Inet4PacketInfoD2Ev@Base 1.2+1640
 _ZN5nidas4util18IOTimeoutExceptionC1ERKNSt7__cxx1112basic_stringIcSt11char_traitsIcESaIcEEES9_@Base 1.2+1640
 _ZN5nidas4util18IOTimeoutExceptionC2ERKNSt7__cxx1112basic_stringIcSt11char_traitsIcESaIcEEES9_@Base 1.2+1640
 _ZN5nidas4util18IOTimeoutExceptionD0Ev@Base 1.2+1640
 _ZN5nidas4util18IOTimeoutExceptionD1Ev@Base 1.2+1640
 _ZN5nidas4util18IOTimeoutExceptionD2Ev@Base 1.2+1640
 _ZN5nidas4util25InvalidParameterExceptionC1ERKNSt7__cxx1112basic_stringIcSt11char_traitsIcESaIcEEES9_S9_@Base 1.2+1640
 _ZN5nidas4util25InvalidParameterExceptionC2ERKNSt7__cxx1112basic_stringIcSt11char_traitsIcESaIcEEES9_S9_@Base 1.2+1640
 _ZN5nidas4util25InvalidParameterExceptionD0Ev@Base 1.2+1640
 _ZN5nidas4util25InvalidParameterExceptionD1Ev@Base 1.2+1640
 _ZN5nidas4util25InvalidParameterExceptionD2Ev@Base 1.2+1640
 _ZN5nidas4util5Mutex4lockEv@Base 1.2+1640
 _ZN5nidas4util5Mutex6unlockEv@Base 1.2+1640
 _ZN5nidas4util6RWLock6unlockEv@Base 1.2+1640
 _ZN5nidas4util6Thread13signalHandlerEiP9siginfo_t@Base 1.2+1640
 _ZN5nidas4util8AutolockD1Ev@Base 1.2+1640
 _ZN5nidas4util8AutolockD2Ev@Base 1.2+1640
 _ZN5nidas4util8McSocketINS0_14DatagramSocketEE15joinMulticasterEv@Base 1.2+1640
 _ZN5nidas4util8McSocketINS0_14DatagramSocketEE5closeEv@Base 1.2+1640
 _ZN5nidas4util8McSocketINS0_14DatagramSocketEE9connectedEPS2_RKNS0_16Inet4PacketInfoXE@Base 1.2+1640
 _ZN5nidas4util8McSocketINS0_14DatagramSocketEED0Ev@Base 1.2+1640
 _ZN5nidas4util8McSocketINS0_14DatagramSocketEED1Ev@Base 1.2+1640
 _ZN5nidas4util8McSocketINS0_14DatagramSocketEED2Ev@Base 1.2+1640
 _ZN5nidas4util8McSocketINS0_6SocketEE15joinMulticasterEv@Base 1.2+1640
 _ZN5nidas4util8McSocketINS0_6SocketEE5closeEv@Base 1.2+1640
 _ZN5nidas4util8McSocketINS0_6SocketEE9connectedEPS2_RKNS0_16Inet4PacketInfoXE@Base 1.2+1640
 _ZN5nidas4util8McSocketINS0_6SocketEED0Ev@Base 1.2+1640
 _ZN5nidas4util8McSocketINS0_6SocketEED1Ev@Base 1.2+1640
 _ZN5nidas4util8McSocketINS0_6SocketEED2Ev@Base 1.2+1640
 _ZN5nidas4util9ExceptionC1ERKNSt7__cxx1112basic_stringIcSt11char_traitsIcESaIcEEE@Base 1.2+1640
 _ZN5nidas4util9ExceptionC1ERKNSt7__cxx1112basic_stringIcSt11char_traitsIcESaIcEEEi@Base 1.2+1640
 _ZN5nidas4util9ExceptionC1ERKS1_@Base 1.2+1640
 _ZN5nidas4util9ExceptionC2ERKNSt7__cxx1112basic_stringIcSt11char_traitsIcESaIcEEE@Base 1.2+1640
 _ZN5nidas4util9ExceptionC2ERKNSt7__cxx1112basic_stringIcSt11char_traitsIcESaIcEEEi@Base 1.2+1640
 _ZN5nidas4util9ExceptionC2ERKS1_@Base 1.2+1640
 _ZN5nidas4util9ExceptionD0Ev@Base 1.2+1640
 _ZN5nidas4util9ExceptionD1Ev@Base 1.2+1640
 _ZN5nidas4util9ExceptionD2Ev@Base 1.2+1640
 _ZN5nidas4util9LogScheme13getParameterTIiEET_RKNSt7__cxx1112basic_stringIcSt11char_traitsIcESaIcEEERKS3_@Base 1.2+1640
 _ZN5nidas4util9LogScheme13getParameterTIjEET_RKNSt7__cxx1112basic_stringIcSt11char_traitsIcESaIcEEERKS3_@Base 1.2+1640
 _ZN5nidas4util9LogSchemeD1Ev@Base 1.2+1640
 _ZN5nidas4util9LogSchemeD2Ev@Base 1.2+1640
 _ZN5nidas5dynld10BlockStats11endBadBlockEPNS_4core6SampleEx@Base 1.2+1640
 _ZN5nidas5dynld10BlockStats12addBadSampleExj@Base 1.2+1640
 _ZN5nidas5dynld10BlockStats13addGoodSampleEPNS_4core6SampleEx@Base 1.2+1640
 _ZN5nidas5dynld10BlockStats13startBadBlockEx@Base 1.2+1640
 _ZN5nidas5dynld10BlockStatsC1Ebj@Base 1.2+1640
 _ZN5nidas5dynld10BlockStatsC2Ebj@Base 1.2+1640
 _ZN5nidas5dynld10IEEE_Float4initEv@Base 1.2+1640
 _ZN5nidas5dynld10IEEE_Float7processEPKNS_4core6SampleERNSt7__cxx114listIS5_SaIS5_EEE@Base 1.2+1640
 _ZN5nidas5dynld10IEEE_Float8validateEv@Base 1.2+1640
 _ZN5nidas5dynld10IEEE_FloatC1Ev@Base 1.2+1640
 _ZN5nidas5dynld10IEEE_FloatC2Ev@Base 1.2+1640
 _ZN5nidas5dynld10IEEE_FloatD0Ev@Base 1.2+1640
 _ZN5nidas5dynld10IEEE_FloatD1Ev@Base 1.2+1640
 _ZN5nidas5dynld10IEEE_FloatD2Ev@Base 1.2+1640
 _ZN5nidas5dynld11AsciiOutput11printHeaderEv@Base 1.2+1640
 _ZN5nidas5dynld11AsciiOutput17requestConnectionEPNS_4core25SampleConnectionRequesterE@Base 1.2+1640
 _ZN5nidas5dynld11AsciiOutput5cloneEPNS_4core9IOChannelE@Base 1.2+1640
 _ZN5nidas5dynld11AsciiOutput5flushEv@Base 1.2+1640
 _ZN5nidas5dynld11AsciiOutput7connectEPNS_4core12SampleSourceE@Base 1.2+1640
 _ZN5nidas5dynld11AsciiOutput7receiveEPKNS_4core6SampleE@Base 1.2+1640
 _ZN5nidas5dynld11AsciiOutputC1EPNS_4core9IOChannelEPNS2_25SampleConnectionRequesterE@Base 1.2+1640
 _ZN5nidas5dynld11AsciiOutputC1ERS1_PNS_4core9IOChannelE@Base 1.2+1640
 _ZN5nidas5dynld11AsciiOutputC1Ev@Base 1.2+1640
 _ZN5nidas5dynld11AsciiOutputC2EPNS_4core9IOChannelEPNS2_25SampleConnectionRequesterE@Base 1.2+1640
 _ZN5nidas5dynld11AsciiOutputC2ERS1_PNS_4core9IOChannelE@Base 1.2+1640
 _ZN5nidas5dynld11AsciiOutputC2Ev@Base 1.2+1640
 _ZN5nidas5dynld11AsciiOutputD0Ev@Base 1.2+1640
 _ZN5nidas5dynld11AsciiOutputD1Ev@Base 1.2+1640
 _ZN5nidas5dynld11AsciiOutputD2Ev@Base 1.2+1640
 _ZN5nidas5dynld11TSI_CPC37727processEPKNS_4core6SampleERNSt7__cxx114listIS5_SaIS5_EEE@Base 1.2+1640
 _ZN5nidas5dynld11TSI_CPC37728validateEv@Base 1.2+1640
 _ZN5nidas5dynld11TSI_CPC3772D0Ev@Base 1.2+1640
 _ZN5nidas5dynld11TSI_CPC3772D1Ev@Base 1.2+1640
 _ZN5nidas5dynld11TSI_CPC3772D2Ev@Base 1.2+1640
 _ZN5nidas5dynld11Uio48Sensor10MyIODevice4openEi@Base 1.2+1640
 _ZN5nidas5dynld11Uio48Sensor10MyIODeviceD0Ev@Base 1.2+1640
 _ZN5nidas5dynld11Uio48Sensor10MyIODeviceD1Ev@Base 1.2+1640
 _ZN5nidas5dynld11Uio48Sensor10MyIODeviceD2Ev@Base 1.2+1640
 _ZN5nidas5dynld11Uio48Sensor13buildIODeviceEv@Base 1.2+1640
 _ZN5nidas5dynld11Uio48Sensor14MyLooperClient12looperNotifyEv@Base 1.2+1640
 _ZN5nidas5dynld11Uio48Sensor14MyLooperClientC1ERKNS_4core9DSMSensorERNS0_5Uio48Ei@Base 1.2+1640
 _ZN5nidas5dynld11Uio48Sensor14MyLooperClientC2ERKNS_4core9DSMSensorERNS0_5Uio48Ei@Base 1.2+1640
 _ZN5nidas5dynld11Uio48Sensor14MyLooperClientD0Ev@Base 1.2+1640
 _ZN5nidas5dynld11Uio48Sensor14MyLooperClientD1Ev@Base 1.2+1640
 _ZN5nidas5dynld11Uio48Sensor14MyLooperClientD2Ev@Base 1.2+1640
 _ZN5nidas5dynld11Uio48Sensor18buildSampleScannerEv@Base 1.2+1640
 _ZN5nidas5dynld11Uio48Sensor4initEv@Base 1.2+1640
 _ZN5nidas5dynld11Uio48Sensor4openEi@Base 1.2+1640
 _ZN5nidas5dynld11Uio48Sensor5closeEv@Base 1.2+1640
 _ZN5nidas5dynld11Uio48Sensor7processEPKNS_4core6SampleERNSt7__cxx114listIS5_SaIS5_EEE@Base 1.2+1640
 _ZN5nidas5dynld11Uio48Sensor8validateEv@Base 1.2+1640
 _ZN5nidas5dynld11Uio48SensorC1Ev@Base 1.2+1640
 _ZN5nidas5dynld11Uio48SensorC2Ev@Base 1.2+1640
 _ZN5nidas5dynld11Uio48SensorD0Ev@Base 1.2+1640
 _ZN5nidas5dynld11Uio48SensorD1Ev@Base 1.2+1640
 _ZN5nidas5dynld11Uio48SensorD2Ev@Base 1.2+1640
 _ZN5nidas5dynld12Bzip2FileSetD0Ev@Base 1.2+1640
 _ZN5nidas5dynld12Bzip2FileSetD1Ev@Base 1.2+1640
 _ZN5nidas5dynld12Bzip2FileSetD2Ev@Base 1.2+1640
 _ZN5nidas5dynld12IR104_Relays10getOutputsEv@Base 1.2+1640
 _ZN5nidas5dynld12IR104_Relays10setOutputsERKNS_4util8BitArrayE@Base 1.2+1640
 _ZN5nidas5dynld12IR104_Relays10setOutputsERKNS_4util8BitArrayES5_@Base 1.2+1640
 _ZN5nidas5dynld12IR104_Relays12clearOutputsERKNS_4util8BitArrayE@Base 1.2+1640
 _ZN5nidas5dynld12IR104_Relays13buildIODeviceEv@Base 1.2+1640
 _ZN5nidas5dynld12IR104_Relays18buildSampleScannerEv@Base 1.2+1640
 _ZN5nidas5dynld12IR104_Relays4openEi@Base 1.2+1640
 _ZN5nidas5dynld12IR104_Relays7processEPKNS_4core6SampleERNSt7__cxx114listIS5_SaIS5_EEE@Base 1.2+1640
 _ZN5nidas5dynld12IR104_Relays9getInputsEv@Base 1.2+1640
 _ZN5nidas5dynld12IR104_RelaysC1Ev@Base 1.2+1640
 _ZN5nidas5dynld12IR104_RelaysC2Ev@Base 1.2+1640
 _ZN5nidas5dynld12IR104_RelaysD0Ev@Base 1.2+1640
 _ZN5nidas5dynld12IR104_RelaysD1Ev@Base 1.2+1640
 _ZN5nidas5dynld12IR104_RelaysD2Ev@Base 1.2+1640
 _ZN5nidas5dynld13DSC_A2DSensor11getA2DSetupERN6XmlRpc11XmlRpcValueES4_@Base 1.2+1640
 _ZN5nidas5dynld13DSC_A2DSensor11printStatusERSo@Base 1.2+1640
 _ZN5nidas5dynld13DSC_A2DSensor11testVoltageERN6XmlRpc11XmlRpcValueES4_@Base 1.2+1640
 _ZN5nidas5dynld13DSC_A2DSensor13buildIODeviceEv@Base 1.2+1640
 _ZN5nidas5dynld13DSC_A2DSensor13executeXmlRpcERN6XmlRpc11XmlRpcValueES4_@Base 1.2+1640
 _ZN5nidas5dynld13DSC_A2DSensor16setA2DParametersEiii@Base 1.2+1640
 _ZN5nidas5dynld13DSC_A2DSensor18buildSampleScannerEv@Base 1.2+1640
 _ZN5nidas5dynld13DSC_A2DSensor4openEi@Base 1.2+1640
 _ZN5nidas5dynld13DSC_A2DSensor5closeEv@Base 1.2+1640
 _ZN5nidas5dynld13DSC_A2DSensor8validateEv@Base 1.2+1640
 _ZN5nidas5dynld13DSC_A2DSensorC1Ev@Base 1.2+1640
 _ZN5nidas5dynld13DSC_A2DSensorC2Ev@Base 1.2+1640
 _ZN5nidas5dynld13DSC_A2DSensorD0Ev@Base 1.2+1640
 _ZN5nidas5dynld13DSC_A2DSensorD1Ev@Base 1.2+1640
 _ZN5nidas5dynld13DSC_A2DSensorD2Ev@Base 1.2+1640
 _ZN5nidas5dynld13DSC_AnalogOut10setVoltageEif@Base 1.2+1640
 _ZN5nidas5dynld13DSC_AnalogOut11setVoltagesERKSt6vectorIiSaIiEERKS2_IfSaIfEE@Base 1.2+1640
 _ZN5nidas5dynld13DSC_AnalogOut13clearVoltagesEv@Base 1.2+1640
 _ZN5nidas5dynld13DSC_AnalogOut4openEv@Base 1.2+1640
 _ZN5nidas5dynld13DSC_AnalogOut5closeEv@Base 1.2+1640
 _ZN5nidas5dynld13DSC_AnalogOutC1Ev@Base 1.2+1640
 _ZN5nidas5dynld13DSC_AnalogOutC2Ev@Base 1.2+1640
 _ZN5nidas5dynld13DSC_AnalogOutD1Ev@Base 1.2+1640
 _ZN5nidas5dynld13DSC_AnalogOutD2Ev@Base 1.2+1640
 _ZN5nidas5dynld14SampleArchiverD0Ev@Base 1.2+1640
 _ZN5nidas5dynld14SampleArchiverD1Ev@Base 1.2+1640
 _ZN5nidas5dynld14SampleArchiverD2Ev@Base 1.2+1640
 _ZN5nidas5dynld15DSC_FreqCounter10readParamsERKNSt7__cxx114listIPKNS_4core9ParameterESaIS7_EEE@Base 1.2+1640
 _ZN5nidas5dynld15DSC_FreqCounter11printStatusERSo@Base 1.2+1640
 _ZN5nidas5dynld15DSC_FreqCounter13buildIODeviceEv@Base 1.2+1640
 _ZN5nidas5dynld15DSC_FreqCounter18buildSampleScannerEv@Base 1.2+1640
 _ZN5nidas5dynld15DSC_FreqCounter4initEv@Base 1.2+1640
 _ZN5nidas5dynld15DSC_FreqCounter4openEi@Base 1.2+1640
 _ZN5nidas5dynld15DSC_FreqCounter7processEPKNS_4core6SampleERNSt7__cxx114listIS5_SaIS5_EEE@Base 1.2+1640
 _ZN5nidas5dynld15DSC_FreqCounter8validateEv@Base 1.2+1640
 _ZN5nidas5dynld15DSC_FreqCounterC1Ev@Base 1.2+1640
 _ZN5nidas5dynld15DSC_FreqCounterC2Ev@Base 1.2+1640
 _ZN5nidas5dynld15DSC_FreqCounterD0Ev@Base 1.2+1640
 _ZN5nidas5dynld15DSC_FreqCounterD1Ev@Base 1.2+1640
 _ZN5nidas5dynld15DSC_FreqCounterD2Ev@Base 1.2+1640
 _ZN5nidas5dynld15DSMSerialSensorD0Ev@Base 1.2+1640
 _ZN5nidas5dynld15DSMSerialSensorD1Ev@Base 1.2+1640
 _ZN5nidas5dynld15DSMSerialSensorD2Ev@Base 1.2+1640
 _ZN5nidas5dynld15GPS_NMEA_Serial10checksumOKEPKci@Base 1.2+1640
 _ZN5nidas5dynld15GPS_NMEA_Serial12calcChecksumEPKci@Base 1.2+1640
 _ZN5nidas5dynld15GPS_NMEA_Serial12findChecksumERcPKci@Base 1.2+1640
 _ZN5nidas5dynld15GPS_NMEA_Serial13GGA_SAMPLE_IDE@Base 1.2+1640
 _ZN5nidas5dynld15GPS_NMEA_Serial13HDT_SAMPLE_IDE@Base 1.2+1640
 _ZN5nidas5dynld15GPS_NMEA_Serial13RMC_SAMPLE_IDE@Base 1.2+1640
 _ZN5nidas5dynld15GPS_NMEA_Serial14appendChecksumEPcii@Base 1.2+1640
 _ZN5nidas5dynld15GPS_NMEA_Serial18buildSampleScannerEv@Base 1.2+1640
 _ZN5nidas5dynld15GPS_NMEA_Serial7processEPKNS_4core6SampleERNSt7__cxx114listIS5_SaIS5_EEE@Base 1.2+1640
 _ZN5nidas5dynld15GPS_NMEA_Serial8parseGGAEPKcPdix@Base 1.2+1640
 _ZN5nidas5dynld15GPS_NMEA_Serial8parseHDTEPKcPdix@Base 1.2+1640
 _ZN5nidas5dynld15GPS_NMEA_Serial8parseRMCEPKcPdix@Base 1.2+1640
 _ZN5nidas5dynld15GPS_NMEA_Serial8validateEv@Base 1.2+1640
 _ZN5nidas5dynld15GPS_NMEA_SerialC1Ev@Base 1.2+1640
 _ZN5nidas5dynld15GPS_NMEA_SerialC2Ev@Base 1.2+1640
 _ZN5nidas5dynld15GPS_NMEA_SerialD0Ev@Base 1.2+1640
 _ZN5nidas5dynld15GPS_NMEA_SerialD1Ev@Base 1.2+1640
 _ZN5nidas5dynld15GPS_NMEA_SerialD2Ev@Base 1.2+1640
 _ZN5nidas5dynld15ParoSci_202BG_P10readParamsERKNSt7__cxx114listIPKNS_4core9ParameterESaIS7_EEE@Base 1.2+1640
 _ZN5nidas5dynld15ParoSci_202BG_P20createPressureSampleERNSt7__cxx114listIPKNS_4core6SampleESaIS7_EEE@Base 1.2+1640
 _ZN5nidas5dynld15ParoSci_202BG_P4initEv@Base 1.2+1640
 _ZN5nidas5dynld15ParoSci_202BG_P7processEPKNS_4core6SampleERNSt7__cxx114listIS5_SaIS5_EEE@Base 1.2+1640
 _ZN5nidas5dynld15ParoSci_202BG_PC1Ev@Base 1.2+1640
 _ZN5nidas5dynld15ParoSci_202BG_PC2Ev@Base 1.2+1640
 _ZN5nidas5dynld15ParoSci_202BG_PD0Ev@Base 1.2+1640
 _ZN5nidas5dynld15ParoSci_202BG_PD1Ev@Base 1.2+1640
 _ZN5nidas5dynld15ParoSci_202BG_PD2Ev@Base 1.2+1640
 _ZN5nidas5dynld15ParoSci_202BG_T10readParamsERKNSt7__cxx114listIPKNS_4core9ParameterESaIS7_EEE@Base 1.2+1640
 _ZN5nidas5dynld15ParoSci_202BG_T13getPeriodUsecEx@Base 1.2+1640
 _ZN5nidas5dynld15ParoSci_202BG_T4initEv@Base 1.2+1640
 _ZN5nidas5dynld15ParoSci_202BG_T7processEPKNS_4core6SampleERNSt7__cxx114listIS5_SaIS5_EEE@Base 1.2+1640
 _ZN5nidas5dynld15ParoSci_202BG_TC1Ev@Base 1.2+1640
 _ZN5nidas5dynld15ParoSci_202BG_TC2Ev@Base 1.2+1640
 _ZN5nidas5dynld15ParoSci_202BG_TD0Ev@Base 1.2+1640
 _ZN5nidas5dynld15ParoSci_202BG_TD1Ev@Base 1.2+1640
 _ZN5nidas5dynld15ParoSci_202BG_TD2Ev@Base 1.2+1640
 _ZN5nidas5dynld15SampleProcessor10disconnectEPNS_4core12SampleOutputE@Base 1.2+1640
 _ZN5nidas5dynld15SampleProcessor13connectSourceEPNS_4core12SampleSourceE@Base 1.2+1640
 _ZN5nidas5dynld15SampleProcessor16disconnectSourceEPNS_4core12SampleSourceE@Base 1.2+1640
 _ZN5nidas5dynld15SampleProcessor5flushEv@Base 1.2+1640
 _ZN5nidas5dynld15SampleProcessor7connectEPNS_4core12SampleOutputE@Base 1.2+1640
 _ZN5nidas5dynld15SampleProcessorC1Ev@Base 1.2+1640
 _ZN5nidas5dynld15SampleProcessorC2Ev@Base 1.2+1640
 _ZN5nidas5dynld15SampleProcessorD0Ev@Base 1.2+1640
 _ZN5nidas5dynld15SampleProcessorD1Ev@Base 1.2+1640
 _ZN5nidas5dynld15SampleProcessorD2Ev@Base 1.2+1640
 _ZN5nidas5dynld15UDPSampleOutput13getProjectDOMEv@Base 1.2+1640
 _ZN5nidas5dynld15UDPSampleOutput14allocateBufferEj@Base 1.2+1640
 _ZN5nidas5dynld15UDPSampleOutput14fromDOMElementEPKN11xercesc_3_210DOMElementE@Base 1.2+1640
 _ZN5nidas5dynld15UDPSampleOutput17ConnectionMonitor13addConnectionEPNS_4util6SocketEt@Base 1.2+1640
 _ZN5nidas5dynld15UDPSampleOutput17ConnectionMonitor13updatePollfdsEv@Base 1.2+1640
 _ZN5nidas5dynld15UDPSampleOutput17ConnectionMonitor14addDestinationERKNS_4core14ConnectionInfoEt@Base 1.2+1640
 _ZN5nidas5dynld15UDPSampleOutput17ConnectionMonitor16removeConnectionEPNS_4util6SocketEt@Base 1.2+1640
 _ZN5nidas5dynld15UDPSampleOutput17ConnectionMonitor3runEv@Base 1.2+1640
 _ZN5nidas5dynld15UDPSampleOutput17ConnectionMonitorC1EPNS_4core18MultipleUDPSocketsE@Base 1.2+1640
 _ZN5nidas5dynld15UDPSampleOutput17ConnectionMonitorC2EPNS_4core18MultipleUDPSocketsE@Base 1.2+1640
 _ZN5nidas5dynld15UDPSampleOutput17ConnectionMonitorD0Ev@Base 1.2+1640
 _ZN5nidas5dynld15UDPSampleOutput17ConnectionMonitorD1Ev@Base 1.2+1640
 _ZN5nidas5dynld15UDPSampleOutput17ConnectionMonitorD2Ev@Base 1.2+1640
 _ZN5nidas5dynld15UDPSampleOutput17XMLSocketListener11fireWorkersEv@Base 1.2+1640
 _ZN5nidas5dynld15UDPSampleOutput17XMLSocketListener12checkWorkersEv@Base 1.2+1640
 _ZN5nidas5dynld15UDPSampleOutput17XMLSocketListener3runEv@Base 1.2+1640
 _ZN5nidas5dynld15UDPSampleOutput17XMLSocketListener9interruptEv@Base 1.2+1640
 _ZN5nidas5dynld15UDPSampleOutput17XMLSocketListenerC1EPS1_iPNS1_17ConnectionMonitorE@Base 1.2+1640
 _ZN5nidas5dynld15UDPSampleOutput17XMLSocketListenerC2EPS1_iPNS1_17ConnectionMonitorE@Base 1.2+1640
 _ZN5nidas5dynld15UDPSampleOutput17XMLSocketListenerD0Ev@Base 1.2+1640
 _ZN5nidas5dynld15UDPSampleOutput17XMLSocketListenerD1Ev@Base 1.2+1640
 _ZN5nidas5dynld15UDPSampleOutput17XMLSocketListenerD2Ev@Base 1.2+1640
 _ZN5nidas5dynld15UDPSampleOutput17releaseProjectDOMEv@Base 1.2+1640
 _ZN5nidas5dynld15UDPSampleOutput18VariableListWorker3runEv@Base 1.2+1640
 _ZN5nidas5dynld15UDPSampleOutput18VariableListWorker9interruptEv@Base 1.2+1640
 _ZN5nidas5dynld15UDPSampleOutput18VariableListWorkerC1EPS1_PNS_4util6SocketEb@Base 1.2+1640
 _ZN5nidas5dynld15UDPSampleOutput18VariableListWorkerC2EPS1_PNS_4util6SocketEb@Base 1.2+1640
 _ZN5nidas5dynld15UDPSampleOutput18VariableListWorkerD0Ev@Base 1.2+1640
 _ZN5nidas5dynld15UDPSampleOutput18VariableListWorkerD1Ev@Base 1.2+1640
 _ZN5nidas5dynld15UDPSampleOutput18VariableListWorkerD2Ev@Base 1.2+1640
 _ZN5nidas5dynld15UDPSampleOutput5cloneEPNS_4core9IOChannelE@Base 1.2+1640
 _ZN5nidas5dynld15UDPSampleOutput5closeEv@Base 1.2+1640
 _ZN5nidas5dynld15UDPSampleOutput5flushEv@Base 1.2+1640
 _ZN5nidas5dynld15UDPSampleOutput5writeEPK5ioveci@Base 1.2+1640
 _ZN5nidas5dynld15UDPSampleOutput7receiveEPKNS_4core6SampleE@Base 1.2+1640
 _ZN5nidas5dynld15UDPSampleOutput9connectedEPNS_4core9IOChannelE@Base 1.2+1640
 _ZN5nidas5dynld15UDPSampleOutputC1ERS1_PNS_4core9IOChannelE@Base 1.2+1640
 _ZN5nidas5dynld15UDPSampleOutputC1Ev@Base 1.2+1640
 _ZN5nidas5dynld15UDPSampleOutputC2ERS1_PNS_4core9IOChannelE@Base 1.2+1640
 _ZN5nidas5dynld15UDPSampleOutputC2Ev@Base 1.2+1640
 _ZN5nidas5dynld15UDPSampleOutputD0Ev@Base 1.2+1640
 _ZN5nidas5dynld15UDPSampleOutputD1Ev@Base 1.2+1640
 _ZN5nidas5dynld15UDPSampleOutputD2Ev@Base 1.2+1640
 _ZN5nidas5dynld15UDPSocketSensor13buildIODeviceEv@Base 1.2+1640
 _ZN5nidas5dynld15UDPSocketSensor18buildSampleScannerEv@Base 1.2+1640
 _ZN5nidas5dynld15UDPSocketSensorC1Ev@Base 1.2+1640
 _ZN5nidas5dynld15UDPSocketSensorC2Ev@Base 1.2+1640
 _ZN5nidas5dynld15UDPSocketSensorD0Ev@Base 1.2+1640
 _ZN5nidas5dynld15UDPSocketSensorD1Ev@Base 1.2+1640
 _ZN5nidas5dynld15UDPSocketSensorD2Ev@Base 1.2+1640
 _ZN5nidas5dynld16DSC_PulseCounter11printStatusERSo@Base 1.2+1640
 _ZN5nidas5dynld16DSC_PulseCounter13buildIODeviceEv@Base 1.2+1640
 _ZN5nidas5dynld16DSC_PulseCounter18buildSampleScannerEv@Base 1.2+1640
 _ZN5nidas5dynld16DSC_PulseCounter4initEv@Base 1.2+1640
 _ZN5nidas5dynld16DSC_PulseCounter4openEi@Base 1.2+1640
 _ZN5nidas5dynld16DSC_PulseCounter5closeEv@Base 1.2+1640
 _ZN5nidas5dynld16DSC_PulseCounter7processEPKNS_4core6SampleERNSt7__cxx114listIS5_SaIS5_EEE@Base 1.2+1640
 _ZN5nidas5dynld16DSC_PulseCounter8validateEv@Base 1.2+1640
 _ZN5nidas5dynld16DSC_PulseCounterC1Ev@Base 1.2+1640
 _ZN5nidas5dynld16DSC_PulseCounterC2Ev@Base 1.2+1640
 _ZN5nidas5dynld16DSC_PulseCounterD0Ev@Base 1.2+1640
 _ZN5nidas5dynld16DSC_PulseCounterD1Ev@Base 1.2+1640
 _ZN5nidas5dynld16DSC_PulseCounterD2Ev@Base 1.2+1640
 _ZN5nidas5dynld16RawSampleService10disconnectEPNS_4core11SampleInputE@Base 1.2+1640
 _ZN5nidas5dynld16RawSampleService10printClockERSo@Base 1.2+1640
 _ZN5nidas5dynld16RawSampleService11printStatusERSof@Base 1.2+1640
 _ZN5nidas5dynld16RawSampleService14fromDOMElementEPKN11xercesc_3_210DOMElementE@Base 1.2+1640
 _ZN5nidas5dynld16RawSampleService6Worker3runEv@Base 1.2+1640
 _ZN5nidas5dynld16RawSampleService6Worker9interruptEv@Base 1.2+1640
 _ZN5nidas5dynld16RawSampleService6WorkerC1EPS1_PNS_4core11SampleInputE@Base 1.2+1640
 _ZN5nidas5dynld16RawSampleService6WorkerC2EPS1_PNS_4core11SampleInputE@Base 1.2+1640
 _ZN5nidas5dynld16RawSampleService6WorkerD0Ev@Base 1.2+1640
 _ZN5nidas5dynld16RawSampleService6WorkerD1Ev@Base 1.2+1640
 _ZN5nidas5dynld16RawSampleService6WorkerD2Ev@Base 1.2+1640
 _ZN5nidas5dynld16RawSampleService7connectEPNS_4core11SampleInputE@Base 1.2+1640
 _ZN5nidas5dynld16RawSampleService8scheduleEb@Base 1.2+1640
 _ZN5nidas5dynld16RawSampleService9interruptEv@Base 1.2+1640
 _ZN5nidas5dynld16RawSampleServiceC1Ev@Base 1.2+1640
 _ZN5nidas5dynld16RawSampleServiceC2Ev@Base 1.2+1640
 _ZN5nidas5dynld16RawSampleServiceD0Ev@Base 1.2+1640
 _ZN5nidas5dynld16RawSampleServiceD1Ev@Base 1.2+1640
 _ZN5nidas5dynld16RawSampleServiceD2Ev@Base 1.2+1640
 _ZN5nidas5dynld16XMLConfigService6Worker3runEv@Base 1.2+1640
 _ZN5nidas5dynld16XMLConfigService6Worker9interruptEv@Base 1.2+1640
 _ZN5nidas5dynld16XMLConfigService6WorkerC1EPS1_PNS_4core9IOChannelEPKNS4_9DSMConfigE@Base 1.2+1640
 _ZN5nidas5dynld16XMLConfigService6WorkerC2EPS1_PNS_4core9IOChannelEPKNS4_9DSMConfigE@Base 1.2+1640
 _ZN5nidas5dynld16XMLConfigService6WorkerD0Ev@Base 1.2+1640
 _ZN5nidas5dynld16XMLConfigService6WorkerD1Ev@Base 1.2+1640
 _ZN5nidas5dynld16XMLConfigService6WorkerD2Ev@Base 1.2+1640
 _ZN5nidas5dynld16XMLConfigService7connectEPNS_4core11SampleInputE@Base 1.2+1640
 _ZN5nidas5dynld16XMLConfigService8scheduleEb@Base 1.2+1640
 _ZN5nidas5dynld16XMLConfigService9connectedEPNS_4core9IOChannelE@Base 1.2+1640
 _ZN5nidas5dynld16XMLConfigService9interruptEv@Base 1.2+1640
 _ZN5nidas5dynld16XMLConfigServiceC1Ev@Base 1.2+1640
 _ZN5nidas5dynld16XMLConfigServiceC2Ev@Base 1.2+1640
 _ZN5nidas5dynld16XMLConfigServiceD0Ev@Base 1.2+1640
 _ZN5nidas5dynld16XMLConfigServiceD1Ev@Base 1.2+1640
 _ZN5nidas5dynld16XMLConfigServiceD2Ev@Base 1.2+1640
 _ZN5nidas5dynld17SampleInputStream10nextSampleEbbx@Base 1.2+1640
 _ZN5nidas5dynld17SampleInputStream10nextSampleEv@Base 1.2+1640
 _ZN5nidas5dynld17SampleInputStream10readSampleEv@Base 1.2+1640
 _ZN5nidas5dynld17SampleInputStream11closeBlocksEv@Base 1.2+1640
 _ZN5nidas5dynld17SampleInputStream11readSamplesEv@Base 1.2+1640
 _ZN5nidas5dynld17SampleInputStream12addSampleTagEPKNS_4core9SampleTagE@Base 1.2+1640
 _ZN5nidas5dynld17SampleInputStream12setIOChannelEPNS_4core9IOChannelE@Base 1.2+1640
 _ZN5nidas5dynld17SampleInputStream12setKeepStatsEb@Base 1.2+1640
 _ZN5nidas5dynld17SampleInputStream14fromDOMElementEPKN11xercesc_3_210DOMElementE@Base 1.2+1640
 _ZN5nidas5dynld17SampleInputStream14handleNewInputEv@Base 1.2+1640
 _ZN5nidas5dynld17SampleInputStream14setNonBlockingEb@Base 1.2+1640
 _ZN5nidas5dynld17SampleInputStream15addSampleClientEPNS_4core12SampleClientE@Base 1.2+1640
 _ZN5nidas5dynld17SampleInputStream15readInputHeaderEv@Base 1.2+1640
 _ZN5nidas5dynld17SampleInputStream15removeSampleTagEPKNS_4core9SampleTagE@Base 1.2+1640
 _ZN5nidas5dynld17SampleInputStream16parseInputHeaderEv@Base 1.2+1640
 _ZN5nidas5dynld17SampleInputStream16sampleFromHeaderEv@Base 1.2+1640
 _ZN5nidas5dynld17SampleInputStream17requestConnectionEPNS_4core10DSMServiceE@Base 1.2+1640
 _ZN5nidas5dynld17SampleInputStream18checkUnexpectedEOFEv@Base 1.2+1640
 _ZN5nidas5dynld17SampleInputStream18getRawSampleSourceEv@Base 1.2+1640
 _ZN5nidas5dynld17SampleInputStream18removeSampleClientEPNS_4core12SampleClientE@Base 1.2+1640
 _ZN5nidas5dynld17SampleInputStream21addSampleClientForTagEPNS_4core12SampleClientEPKNS2_9SampleTagE@Base 1.2+1640
 _ZN5nidas5dynld17SampleInputStream24getProcessedSampleSourceEv@Base 1.2+1640
 _ZN5nidas5dynld17SampleInputStream24removeSampleClientForTagEPNS_4core12SampleClientEPKNS2_9SampleTagE@Base 1.2+1640
 _ZN5nidas5dynld17SampleInputStream4readEbPcj@Base 1.2+1640
 _ZN5nidas5dynld17SampleInputStream5cloneEPNS_4core9IOChannelE@Base 1.2+1640
 _ZN5nidas5dynld17SampleInputStream5closeEv@Base 1.2+1640
 _ZN5nidas5dynld17SampleInputStream5flushEv@Base 1.2+1640
 _ZN5nidas5dynld17SampleInputStream6searchERKNS_4util5UTimeE@Base 1.2+1640
 _ZN5nidas5dynld17SampleInputStream9connectedEPNS_4core9IOChannelE@Base 1.2+1640
 _ZN5nidas5dynld17SampleInputStream9handleEOFEb@Base 1.2+1640
 _ZN5nidas5dynld17SampleInputStream9readBlockEbRPcRj@Base 1.2+1640
 _ZN5nidas5dynld17SampleInputStreamC1EPNS_4core9IOChannelEb@Base 1.2+1640
 _ZN5nidas5dynld17SampleInputStreamC1ERS1_PNS_4core9IOChannelE@Base 1.2+1640
 _ZN5nidas5dynld17SampleInputStreamC1Eb@Base 1.2+1640
 _ZN5nidas5dynld17SampleInputStreamC2EPNS_4core9IOChannelEb@Base 1.2+1640
 _ZN5nidas5dynld17SampleInputStreamC2ERS1_PNS_4core9IOChannelE@Base 1.2+1640
 _ZN5nidas5dynld17SampleInputStreamC2Eb@Base 1.2+1640
 _ZN5nidas5dynld17SampleInputStreamD0Ev@Base 1.2+1640
 _ZN5nidas5dynld17SampleInputStreamD1Ev@Base 1.2+1640
 _ZN5nidas5dynld17SampleInputStreamD2Ev@Base 1.2+1640
 _ZN5nidas5dynld17WatchedFileSensor11readSamplesEv@Base 1.2+1640
 _ZN5nidas5dynld17WatchedFileSensor13getFileStatusEv@Base 1.2+1640
 _ZN5nidas5dynld17WatchedFileSensor13getPathStatusERyRm@Base 1.2+1640
 _ZN5nidas5dynld17WatchedFileSensor14differentInodeEv@Base 1.2+1640
 _ZN5nidas5dynld17WatchedFileSensor4openEi@Base 1.2+1640
 _ZN5nidas5dynld17WatchedFileSensor5closeEv@Base 1.2+1640
 _ZN5nidas5dynld17WatchedFileSensor6reopenEv@Base 1.2+1640
 _ZN5nidas5dynld17WatchedFileSensorC1Ev@Base 1.2+1640
 _ZN5nidas5dynld17WatchedFileSensorC2Ev@Base 1.2+1640
 _ZN5nidas5dynld17WatchedFileSensorD0Ev@Base 1.2+1640
 _ZN5nidas5dynld17WatchedFileSensorD1Ev@Base 1.2+1640
 _ZN5nidas5dynld17WatchedFileSensorD2Ev@Base 1.2+1640
 _ZN5nidas5dynld18GPS_Novatel_Serial12parseBESTPOSEPKcPdix@Base 1.2+1640
 _ZN5nidas5dynld18GPS_Novatel_Serial12parseBESTVELEPKcPdix@Base 1.2+1640
 _ZN5nidas5dynld18GPS_Novatel_Serial17BESTPOS_SAMPLE_IDE@Base 1.2+1640
 _ZN5nidas5dynld18GPS_Novatel_Serial17BESTVEL_SAMPLE_IDE@Base 1.2+1640
 _ZN5nidas5dynld18GPS_Novatel_Serial17novatelChecksumOKEPKci@Base 1.2+1640
 _ZN5nidas5dynld18GPS_Novatel_Serial7processEPKNS_4core6SampleERNSt7__cxx114listIS5_SaIS5_EEE@Base 1.2+1640
 _ZN5nidas5dynld18GPS_Novatel_Serial8validateEv@Base 1.2+1640
 _ZN5nidas5dynld18GPS_Novatel_SerialC1Ev@Base 1.2+1640
 _ZN5nidas5dynld18GPS_Novatel_SerialC2Ev@Base 1.2+1640
 _ZN5nidas5dynld18GPS_Novatel_SerialD0Ev@Base 1.2+1640
 _ZN5nidas5dynld18GPS_Novatel_SerialD1Ev@Base 1.2+1640
 _ZN5nidas5dynld18GPS_Novatel_SerialD2Ev@Base 1.2+1640
 _ZN5nidas5dynld18SampleOutputStream10setLatencyEf@Base 1.2+1640
 _ZN5nidas5dynld18SampleOutputStream5cloneEPNS_4core9IOChannelE@Base 1.2+1640
 _ZN5nidas5dynld18SampleOutputStream5closeEv@Base 1.2+1640
 _ZN5nidas5dynld18SampleOutputStream5flushEv@Base 1.2+1640
 _ZN5nidas5dynld18SampleOutputStream5writeEPKNS_4core6SampleEb@Base 1.2+1640
 _ZN5nidas5dynld18SampleOutputStream5writeEPKvjb@Base 1.2+1640
 _ZN5nidas5dynld18SampleOutputStream7receiveEPKNS_4core6SampleE@Base 1.2+1640
 _ZN5nidas5dynld18SampleOutputStream9connectedEPNS_4core9IOChannelE@Base 1.2+1640
 _ZN5nidas5dynld18SampleOutputStreamC1EPNS_4core9IOChannelEPNS2_25SampleConnectionRequesterE@Base 1.2+1640
 _ZN5nidas5dynld18SampleOutputStreamC1ERS1_PNS_4core9IOChannelE@Base 1.2+1640
 _ZN5nidas5dynld18SampleOutputStreamC1Ev@Base 1.2+1640
 _ZN5nidas5dynld18SampleOutputStreamC2EPNS_4core9IOChannelEPNS2_25SampleConnectionRequesterE@Base 1.2+1640
 _ZN5nidas5dynld18SampleOutputStreamC2ERS1_PNS_4core9IOChannelE@Base 1.2+1640
 _ZN5nidas5dynld18SampleOutputStreamC2Ev@Base 1.2+1640
 _ZN5nidas5dynld18SampleOutputStreamD0Ev@Base 1.2+1640
 _ZN5nidas5dynld18SampleOutputStreamD1Ev@Base 1.2+1640
 _ZN5nidas5dynld18SampleOutputStreamD2Ev@Base 1.2+1640
 _ZN5nidas5dynld18StatisticsCruncher10disconnectEPNS_4core12SampleSourceE@Base 1.2+1640
 _ZN5nidas5dynld18StatisticsCruncher10splitNamesEv@Base 1.2+1640
 _ZN5nidas5dynld18StatisticsCruncher11addVariableERKNSt7__cxx1112basic_stringIcSt11char_traitsIcESaIcEEES9_S9_@Base 1.2+1640
 _ZN5nidas5dynld18StatisticsCruncher11setupFluxesEv@Base 1.2+1640
 _ZN5nidas5dynld18StatisticsCruncher11setupMinMaxERKNSt7__cxx1112basic_stringIcSt11char_traitsIcESaIcEEE@Base 1.2+1640
 _ZN5nidas5dynld18StatisticsCruncher12addSampleTagEPKNS_4core9SampleTagE@Base 1.2+1640
 _ZN5nidas5dynld18StatisticsCruncher12computeStatsEv@Base 1.2+1640
 _ZN5nidas5dynld18StatisticsCruncher12setStartTimeERKNS_4util5UTimeE@Base 1.2+1640
 _ZN5nidas5dynld18StatisticsCruncher12setupMomentsEjj@Base 1.2+1640
 _ZN5nidas5dynld18StatisticsCruncher12setupWindDirEv@Base 1.2+1640
 _ZN5nidas5dynld18StatisticsCruncher15addSampleClientEPNS_4core12SampleClientE@Base 1.2+1640
 _ZN5nidas5dynld18StatisticsCruncher15removeSampleTagEPKNS_4core9SampleTagE@Base 1.2+1640
 _ZN5nidas5dynld18StatisticsCruncher16setupCovariancesEv@Base 1.2+1640
 _ZN5nidas5dynld18StatisticsCruncher17getStatisticsTypeERKNSt7__cxx1112basic_stringIcSt11char_traitsIcESaIcEEE@Base 1.2+1640
 _ZN5nidas5dynld18StatisticsCruncher17setupTrivariancesEv@Base 1.2+1640
 _ZN5nidas5dynld18StatisticsCruncher18createCombinationsEv@Base 1.2+1640
 _ZN5nidas5dynld18StatisticsCruncher18getRawSampleSourceEv@Base 1.2+1640
 _ZN5nidas5dynld18StatisticsCruncher18removeSampleClientEPNS_4core12SampleClientE@Base 1.2+1640
 _ZN5nidas5dynld18StatisticsCruncher18setupReducedFluxesEv@Base 1.2+1640
 _ZN5nidas5dynld18StatisticsCruncher21addSampleClientForTagEPNS_4core12SampleClientEPKNS2_9SampleTagE@Base 1.2+1640
 _ZN5nidas5dynld18StatisticsCruncher23setupPrunedTrivariancesEv@Base 1.2+1640
 _ZN5nidas5dynld18StatisticsCruncher24getProcessedSampleSourceEv@Base 1.2+1640
 _ZN5nidas5dynld18StatisticsCruncher24removeSampleClientForTagEPNS_4core12SampleClientEPKNS2_9SampleTagE@Base 1.2+1640
 _ZN5nidas5dynld18StatisticsCruncher24setupReducedScalarFluxesEv@Base 1.2+1640
 _ZN5nidas5dynld18StatisticsCruncher5flushEv@Base 1.2+1640
 _ZN5nidas5dynld18StatisticsCruncher6attachEPNS_4core12SampleSourceE@Base 1.2+1640
 _ZN5nidas5dynld18StatisticsCruncher7connectEPNS_4core12SampleSourceE@Base 1.2+1640
 _ZN5nidas5dynld18StatisticsCruncher7receiveEPKNS_4core6SampleE@Base 1.2+1640
 _ZN5nidas5dynld18StatisticsCruncher8makeNameB5cxx11Eiiii@Base 1.2+1640
 _ZN5nidas5dynld18StatisticsCruncher9initStatsEv@Base 1.2+1640
 _ZN5nidas5dynld18StatisticsCruncher9makeUnitsB5cxx11Eiiii@Base 1.2+1640
 _ZN5nidas5dynld18StatisticsCruncher9makeUnitsERKSt6vectorINSt7__cxx1112basic_stringIcSt11char_traitsIcESaIcEEESaIS8_EE@Base 1.2+1640
 _ZN5nidas5dynld18StatisticsCruncher9zeroStatsEv@Base 1.2+1640
 _ZN5nidas5dynld18StatisticsCruncherC1EPNS0_19StatisticsProcessorEPKNS_4core9SampleTagENS1_13statsEnumTypeENSt7__cxx1112basic_stringIcSt11char_traitsIcESaIcEEEb@Base 1.2+1640
 _ZN5nidas5dynld18StatisticsCruncherC2EPNS0_19StatisticsProcessorEPKNS_4core9SampleTagENS1_13statsEnumTypeENSt7__cxx1112basic_stringIcSt11char_traitsIcESaIcEEEb@Base 1.2+1640
 _ZN5nidas5dynld18StatisticsCruncherD0Ev@Base 1.2+1640
 _ZN5nidas5dynld18StatisticsCruncherD1Ev@Base 1.2+1640
 _ZN5nidas5dynld18StatisticsCruncherD2Ev@Base 1.2+1640
 _ZN5nidas5dynld19StatisticsProcessor10disconnectEPNS_4core12SampleOutputE@Base 1.2+1640
 _ZN5nidas5dynld19StatisticsProcessor13connectSourceEPNS_4core12SampleSourceE@Base 1.2+1640
 _ZN5nidas5dynld19StatisticsProcessor16disconnectSourceEPNS_4core12SampleSourceE@Base 1.2+1640
 _ZN5nidas5dynld19StatisticsProcessor19getUniqueCountsNameERKNSt7__cxx1112basic_stringIcSt11char_traitsIcESaIcEEE@Base 1.2+1640
 _ZN5nidas5dynld19StatisticsProcessor21addRequestedSampleTagEPNS_4core9SampleTagE@Base 1.2+1640
 _ZN5nidas5dynld19StatisticsProcessor25selectRequestedSampleTagsERKSt6vectorIjSaIjEE@Base 1.2+1640
 _ZN5nidas5dynld19StatisticsProcessor5flushEv@Base 1.2+1640
 _ZN5nidas5dynld19StatisticsProcessor7connectEPNS_4core12SampleOutputE@Base 1.2+1640
 _ZN5nidas5dynld19StatisticsProcessorC1Ev@Base 1.2+1640
 _ZN5nidas5dynld19StatisticsProcessorC2Ev@Base 1.2+1640
 _ZN5nidas5dynld19StatisticsProcessorD0Ev@Base 1.2+1640
 _ZN5nidas5dynld19StatisticsProcessorD1Ev@Base 1.2+1640
 _ZN5nidas5dynld19StatisticsProcessorD2Ev@Base 1.2+1640
 _ZN5nidas5dynld19XMLConfigAllService9connectedEPNS_4core9IOChannelE@Base 1.2+1640
 _ZN5nidas5dynld19XMLConfigAllServiceC1Ev@Base 1.2+1640
 _ZN5nidas5dynld19XMLConfigAllServiceC2Ev@Base 1.2+1640
 _ZN5nidas5dynld19XMLConfigAllServiceD0Ev@Base 1.2+1640
 _ZN5nidas5dynld19XMLConfigAllServiceD1Ev@Base 1.2+1640
 _ZN5nidas5dynld19XMLConfigAllServiceD2Ev@Base 1.2+1640
 _ZN5nidas5dynld20RawSampleInputStream14fromDOMElementEPKN11xercesc_3_210DOMElementE@Base 1.2+1640
 _ZN5nidas5dynld20RawSampleInputStream5cloneEPNS_4core9IOChannelE@Base 1.2+1640
 _ZN5nidas5dynld20RawSampleInputStreamC1EPNS_4core9IOChannelE@Base 1.2+1640
 _ZN5nidas5dynld20RawSampleInputStreamC1ERS1_PNS_4core9IOChannelE@Base 1.2+1640
 _ZN5nidas5dynld20RawSampleInputStreamC1Ev@Base 1.2+1640
 _ZN5nidas5dynld20RawSampleInputStreamC2EPNS_4core9IOChannelE@Base 1.2+1640
 _ZN5nidas5dynld20RawSampleInputStreamC2ERS1_PNS_4core9IOChannelE@Base 1.2+1640
 _ZN5nidas5dynld20RawSampleInputStreamC2Ev@Base 1.2+1640
 _ZN5nidas5dynld20RawSampleInputStreamD0Ev@Base 1.2+1640
 _ZN5nidas5dynld20RawSampleInputStreamD1Ev@Base 1.2+1640
 _ZN5nidas5dynld20RawSampleInputStreamD2Ev@Base 1.2+1640
 _ZN5nidas5dynld21RawSampleOutputStream14fromDOMElementEPKN11xercesc_3_210DOMElementE@Base 1.2+1640
 _ZN5nidas5dynld21RawSampleOutputStream5cloneEPNS_4core9IOChannelE@Base 1.2+1640
 _ZN5nidas5dynld21RawSampleOutputStreamC1EPNS_4core9IOChannelEPNS2_25SampleConnectionRequesterE@Base 1.2+1640
 _ZN5nidas5dynld21RawSampleOutputStreamC1ERS1_PNS_4core9IOChannelE@Base 1.2+1640
 _ZN5nidas5dynld21RawSampleOutputStreamC1Ev@Base 1.2+1640
 _ZN5nidas5dynld21RawSampleOutputStreamC2EPNS_4core9IOChannelEPNS2_25SampleConnectionRequesterE@Base 1.2+1640
 _ZN5nidas5dynld21RawSampleOutputStreamC2ERS1_PNS_4core9IOChannelE@Base 1.2+1640
 _ZN5nidas5dynld21RawSampleOutputStreamC2Ev@Base 1.2+1640
 _ZN5nidas5dynld21RawSampleOutputStreamD0Ev@Base 1.2+1640
 _ZN5nidas5dynld21RawSampleOutputStreamD1Ev@Base 1.2+1640
 _ZN5nidas5dynld21RawSampleOutputStreamD2Ev@Base 1.2+1640
 _ZN5nidas5dynld25ParoSci_202BG_Calibration11readCalFileEPNS_4core7CalFileEx@Base 1.2+1640
 _ZN5nidas5dynld25ParoSci_202BG_Calibration15computePressureEdd@Base 1.2+1640
 _ZN5nidas5dynld25ParoSci_202BG_Calibration15correctPressureEdd@Base 1.2+1640
 _ZN5nidas5dynld25ParoSci_202BG_Calibration18computeTemperatureEd@Base 1.2+1640
 _ZN5nidas5dynld25ParoSci_202BG_CalibrationC1Ev@Base 1.2+1640
 _ZN5nidas5dynld25ParoSci_202BG_CalibrationC2Ev@Base 1.2+1640
 _ZN5nidas5dynld26InitialUDPDataRequestReply5MAGICE@Base 1.2+1640
 _ZN5nidas5dynld3iss10TiltSensor12addSampleTagEPNS_4core9SampleTagE@Base 1.2+1640
 _ZN5nidas5dynld3iss10TiltSensor14fromDOMElementEPKN11xercesc_3_210DOMElementE@Base 1.2+1640
 _ZN5nidas5dynld3iss10TiltSensor7processEPKNS_4core6SampleERNSt7__cxx114listIS6_SaIS6_EEE@Base 1.2+1640
 _ZN5nidas5dynld3iss10TiltSensorC1Ev@Base 1.2+1640
 _ZN5nidas5dynld3iss10TiltSensorC2Ev@Base 1.2+1640
 _ZN5nidas5dynld3iss10TiltSensorD0Ev@Base 1.2+1640
 _ZN5nidas5dynld3iss10TiltSensorD1Ev@Base 1.2+1640
 _ZN5nidas5dynld3iss10TiltSensorD2Ev@Base 1.2+1640
 _ZN5nidas5dynld3iss11WICORSensor12addSampleTagEPNS_4core9SampleTagE@Base 1.2+1640
 _ZN5nidas5dynld3iss11WICORSensor7processEPKNS_4core6SampleERNSt7__cxx114listIS6_SaIS6_EEE@Base 1.2+1640
 _ZN5nidas5dynld3iss11WICORSensorC1Ev@Base 1.2+1640
 _ZN5nidas5dynld3iss11WICORSensorC2Ev@Base 1.2+1640
 _ZN5nidas5dynld3iss11WICORSensorD0Ev@Base 1.2+1640
 _ZN5nidas5dynld3iss11WICORSensorD1Ev@Base 1.2+1640
 _ZN5nidas5dynld3iss11WICORSensorD2Ev@Base 1.2+1640
 _ZN5nidas5dynld3raf10A2D_Serial10checkCkSumEPKNS_4core6SampleEPKc@Base 1.2+1640
 _ZN5nidas5dynld3raf10A2D_Serial10nextSampleEv@Base 1.2+1640
 _ZN5nidas5dynld3raf10A2D_Serial10readConfigEv@Base 1.2+1640
 _ZN5nidas5dynld3raf10A2D_Serial11getA2DSetupERN6XmlRpc11XmlRpcValueES5_@Base 1.2+1640
 _ZN5nidas5dynld3raf10A2D_Serial11printStatusERSo@Base 1.2+1640
 _ZN5nidas5dynld3raf10A2D_Serial11readCalFileEx@Base 1.2+1640
 _ZN5nidas5dynld3raf10A2D_Serial11testVoltageERN6XmlRpc11XmlRpcValueES5_@Base 1.2+1640
 _ZN5nidas5dynld3raf10A2D_Serial13executeXmlRpcERN6XmlRpc11XmlRpcValueES5_@Base 1.2+1640
 _ZN5nidas5dynld3raf10A2D_Serial13extractStatusEPKci@Base 1.2+1640
 _ZN5nidas5dynld3raf10A2D_Serial15parseConfigLineEPKcj@Base 1.2+1640
 _ZN5nidas5dynld3raf10A2D_Serial23setConversionCorrectionEiPKfi@Base 1.2+1640
 _ZN5nidas5dynld3raf10A2D_Serial4initEv@Base 1.2+1640
 _ZN5nidas5dynld3raf10A2D_Serial4openEi@Base 1.2+1640
 _ZN5nidas5dynld3raf10A2D_Serial7processEPKNS_4core6SampleERNSt7__cxx114listIS6_SaIS6_EEE@Base 1.2+1640
 _ZN5nidas5dynld3raf10A2D_Serial8validateEv@Base 1.2+1640
 _ZN5nidas5dynld3raf10A2D_SerialC1Ev@Base 1.2+1640
 _ZN5nidas5dynld3raf10A2D_SerialC2Ev@Base 1.2+1640
 _ZN5nidas5dynld3raf10A2D_SerialD0Ev@Base 1.2+1640
 _ZN5nidas5dynld3raf10A2D_SerialD1Ev@Base 1.2+1640
 _ZN5nidas5dynld3raf10A2D_SerialD2Ev@Base 1.2+1640
 _ZN5nidas5dynld3raf10CDP_Serial12FCB_TMP_INDXE@Base 1.2+1640
 _ZN5nidas5dynld3raf10CDP_Serial12FWB_TMP_INDXE@Base 1.2+1640
 _ZN5nidas5dynld3raf10CDP_Serial13FLSR_CUR_INDXE@Base 1.2+1640
 _ZN5nidas5dynld3raf10CDP_Serial13FLSR_PWR_INDXE@Base 1.2+1640
 _ZN5nidas5dynld3raf10CDP_Serial13FLSR_TMP_INDXE@Base 1.2+1640
 _ZN5nidas5dynld3raf10CDP_Serial13VDC5_MON_INDXE@Base 1.2+1640
 _ZN5nidas5dynld3raf10CDP_Serial14sendInitStringEv@Base 1.2+1640
 _ZN5nidas5dynld3raf10CDP_Serial15QUAL_BLINE_INDXE@Base 1.2+1640
 _ZN5nidas5dynld3raf10CDP_Serial16SIZER_BLINE_INDXE@Base 1.2+1640
 _ZN5nidas5dynld3raf10CDP_Serial7processEPKNS_4core6SampleERNSt7__cxx114listIS6_SaIS6_EEE@Base 1.2+1640
 _ZN5nidas5dynld3raf10CDP_Serial8validateEv@Base 1.2+1640
 _ZN5nidas5dynld3raf10CDP_SerialC1Ev@Base 1.2+1640
 _ZN5nidas5dynld3raf10CDP_SerialC2Ev@Base 1.2+1640
 _ZN5nidas5dynld3raf10CDP_SerialD0Ev@Base 1.2+1640
 _ZN5nidas5dynld3raf10CDP_SerialD1Ev@Base 1.2+1640
 _ZN5nidas5dynld3raf10CDP_SerialD2Ev@Base 1.2+1640
 _ZN5nidas5dynld3raf10IRIGSensor10checkClockEv@Base 1.2+1640
 _ZN5nidas5dynld3raf10IRIGSensor11getIRIGTimeEPKNS_4core6SampleE@Base 1.2+1640
 _ZN5nidas5dynld3raf10IRIGSensor11getIRIGTimeEv@Base 1.2+1640
 _ZN5nidas5dynld3raf10IRIGSensor11getUnixTimeEPKNS_4core6SampleE@Base 1.2+1640
 _ZN5nidas5dynld3raf10IRIGSensor11printStatusERSo@Base 1.2+1640
 _ZN5nidas5dynld3raf10IRIGSensor11setIRIGTimeEx@Base 1.2+1640
 _ZN5nidas5dynld3raf10IRIGSensor12getStatusPtrEPKNS_4core6SampleE@Base 1.2+1640
 _ZN5nidas5dynld3raf10IRIGSensor12statusStringB5cxx11Ehb@Base 1.2+1640
 _ZN5nidas5dynld3raf10IRIGSensor13buildIODeviceEv@Base 1.2+1640
 _ZN5nidas5dynld3raf10IRIGSensor14fromDOMElementEPKN11xercesc_3_210DOMElementE@Base 1.2+1640
 _ZN5nidas5dynld3raf10IRIGSensor15get100HzBacklogEPKNS_4core6SampleE@Base 1.2+1640
 _ZN5nidas5dynld3raf10IRIGSensor17shortStatusStringB5cxx11Ehb@Base 1.2+1640
 _ZN5nidas5dynld3raf10IRIGSensor18buildSampleScannerEv@Base 1.2+1640
 _ZN5nidas5dynld3raf10IRIGSensor4openEi@Base 1.2+1640
 _ZN5nidas5dynld3raf10IRIGSensor5closeEv@Base 1.2+1640
 _ZN5nidas5dynld3raf10IRIGSensor6lecvtrE@Base 1.2+1640
 _ZN5nidas5dynld3raf10IRIGSensor7processEPKNS_4core6SampleERNSt7__cxx114listIS6_SaIS6_EEE@Base 1.2+1640
 _ZN5nidas5dynld3raf10IRIGSensorC1Ev@Base 1.2+1640
 _ZN5nidas5dynld3raf10IRIGSensorC2Ev@Base 1.2+1640
 _ZN5nidas5dynld3raf10IRIGSensorD0Ev@Base 1.2+1640
 _ZN5nidas5dynld3raf10IRIGSensorD1Ev@Base 1.2+1640
 _ZN5nidas5dynld3raf10IRIGSensorD2Ev@Base 1.2+1640
 _ZN5nidas5dynld3raf10LamsSensor11printStatusERSo@Base 1.2+1640
 _ZN5nidas5dynld3raf10LamsSensor13buildIODeviceEv@Base 1.2+1640
 _ZN5nidas5dynld3raf10LamsSensor14fromDOMElementEPKN11xercesc_3_210DOMElementE@Base 1.2+1640
 _ZN5nidas5dynld3raf10LamsSensor17derivedDataNotifyEPKNS_4core17DerivedDataReaderE@Base 1.2+1640
 _ZN5nidas5dynld3raf10LamsSensor18buildSampleScannerEv@Base 1.2+1640
 _ZN5nidas5dynld3raf10LamsSensor4openEi@Base 1.2+1640
 _ZN5nidas5dynld3raf10LamsSensor5closeEv@Base 1.2+1640
 _ZN5nidas5dynld3raf10LamsSensor7processEPKNS_4core6SampleERNSt7__cxx114listIS6_SaIS6_EEE@Base 1.2+1640
 _ZN5nidas5dynld3raf10LamsSensorC1Ev@Base 1.2+1640
 _ZN5nidas5dynld3raf10LamsSensorC2Ev@Base 1.2+1640
 _ZN5nidas5dynld3raf10LamsSensorD0Ev@Base 1.2+1640
 _ZN5nidas5dynld3raf10LamsSensorD1Ev@Base 1.2+1640
 _ZN5nidas5dynld3raf10LamsSensorD2Ev@Base 1.2+1640
 _ZN5nidas5dynld3raf10PIP_Serial14sendInitStringEv@Base 1.2+1640
 _ZN5nidas5dynld3raf10PIP_Serial14sendTimePacketEv@Base 1.2+1640
 _ZN5nidas5dynld3raf10PIP_Serial17derivedDataNotifyEPKNS_4core17DerivedDataReaderE@Base 1.2+1640
 _ZN5nidas5dynld3raf10PIP_Serial21appendDataAndFindGoodEPKNS_4core6SampleE@Base 1.2+1640
 _ZN5nidas5dynld3raf10PIP_Serial4openEi@Base 1.2+1640
 _ZN5nidas5dynld3raf10PIP_Serial5PIPPSE@Base 1.2+1640
 _ZN5nidas5dynld3raf10PIP_Serial5PIPQCE@Base 1.2+1640
 _ZN5nidas5dynld3raf10PIP_Serial5PIPRHE@Base 1.2+1640
 _ZN5nidas5dynld3raf10PIP_Serial5PIPRTE@Base 1.2+1640
 _ZN5nidas5dynld3raf10PIP_Serial5closeEv@Base 1.2+1640
 _ZN5nidas5dynld3raf10PIP_Serial6PIPLWCE@Base 1.2+1640
 _ZN5nidas5dynld3raf10PIP_Serial7PIPEDV0E@Base 1.2+1640
 _ZN5nidas5dynld3raf10PIP_Serial7PIPLSRCE@Base 1.2+1640
 _ZN5nidas5dynld3raf10PIP_Serial7PIPLSRPE@Base 1.2+1640
 _ZN5nidas5dynld3raf10PIP_Serial7processEPKNS_4core6SampleERNSt7__cxx114listIS6_SaIS6_EEE@Base 1.2+1640
 _ZN5nidas5dynld3raf10PIP_Serial8PIPCBTMPE@Base 1.2+1640
 _ZN5nidas5dynld3raf10PIP_Serial8PIPEDV32E@Base 1.2+1640
 _ZN5nidas5dynld3raf10PIP_Serial8PIPEDV64E@Base 1.2+1640
 _ZN5nidas5dynld3raf10PIP_Serial8validateEv@Base 1.2+1640
 _ZN5nidas5dynld3raf10PIP_Serial9PIPLWCSLVE@Base 1.2+1640
 _ZN5nidas5dynld3raf10PIP_SerialC1Ev@Base 1.2+1640
 _ZN5nidas5dynld3raf10PIP_SerialC2Ev@Base 1.2+1640
 _ZN5nidas5dynld3raf10PIP_SerialD0Ev@Base 1.2+1640
 _ZN5nidas5dynld3raf10PIP_SerialD1Ev@Base 1.2+1640
 _ZN5nidas5dynld3raf10PIP_SerialD2Ev@Base 1.2+1640
 _ZN5nidas5dynld3raf10PPT_Serial4openEi@Base 1.2+1640
 _ZN5nidas5dynld3raf10PPT_Serial5closeEv@Base 1.2+1640
 _ZN5nidas5dynld3raf10PPT_Serial7processEPKNS_4core6SampleERNSt7__cxx114listIS6_SaIS6_EEE@Base 1.2+1640
 _ZN5nidas5dynld3raf10PPT_SerialC1Ev@Base 1.2+1640
 _ZN5nidas5dynld3raf10PPT_SerialC2Ev@Base 1.2+1640
 _ZN5nidas5dynld3raf10PPT_SerialD0Ev@Base 1.2+1640
 _ZN5nidas5dynld3raf10PPT_SerialD1Ev@Base 1.2+1640
 _ZN5nidas5dynld3raf10PPT_SerialD2Ev@Base 1.2+1640
 _ZN5nidas5dynld3raf10SyncServer10disconnectEPNS_4core12SampleOutputE@Base 1.2+1640
 _ZN5nidas5dynld3raf10SyncServer10openStreamEv@Base 1.2+1640
 _ZN5nidas5dynld3raf10SyncServer10signalStopEv@Base 1.2+1640
 _ZN5nidas5dynld3raf10SyncServer11initProjectEv@Base 1.2+1640
 _ZN5nidas5dynld3raf10SyncServer11initSensorsERNS0_17SampleInputStreamE@Base 1.2+1640
 _ZN5nidas5dynld3raf10SyncServer12handleSampleEPNS_4core6SampleE@Base 1.2+1640
 _ZN5nidas5dynld3raf10SyncServer13getTimeWindowEPNS_4util5UTimeES5_@Base 1.2+1640
 _ZN5nidas5dynld3raf10SyncServer13setTimeWindowENS_4util5UTimeES4_@Base 1.2+1640
 _ZN5nidas5dynld3raf10SyncServer18SORTER_LENGTH_SECSE@Base 1.2+1640
 _ZN5nidas5dynld3raf10SyncServer22RAW_SORTER_LENGTH_SECSE@Base 1.2+1640
 _ZN5nidas5dynld3raf10SyncServer3runEv@Base 1.2+1640
 _ZN5nidas5dynld3raf10SyncServer4initEv@Base 1.2+1640
 _ZN5nidas5dynld3raf10SyncServer4readEb@Base 1.2+1640
 _ZN5nidas5dynld3raf10SyncServer4stopEv@Base 1.2+1640
 _ZN5nidas5dynld3raf10SyncServer7connectEPNS_4core12SampleOutputE@Base 1.2+1640
 _ZN5nidas5dynld3raf10SyncServer9interruptEv@Base 1.2+1640
 _ZN5nidas5dynld3raf10SyncServerC1Ev@Base 1.2+1640
 _ZN5nidas5dynld3raf10SyncServerC2Ev@Base 1.2+1640
 _ZN5nidas5dynld3raf10SyncServerD0Ev@Base 1.2+1640
 _ZN5nidas5dynld3raf10SyncServerD1Ev@Base 1.2+1640
 _ZN5nidas5dynld3raf10SyncServerD2Ev@Base 1.2+1640
 _ZN5nidas5dynld3raf10TwoD32_USB12_blankStringE@Base 1.2+1640
 _ZN5nidas5dynld3raf10TwoD32_USB12processImageEPKNS_4core6SampleERNSt7__cxx114listIS6_SaIS6_EEEi@Base 1.2+1640
 _ZN5nidas5dynld3raf10TwoD32_USB13_overldStringE@Base 1.2+1640
 _ZN5nidas5dynld3raf10TwoD32_USB7processEPKNS_4core6SampleERNSt7__cxx114listIS6_SaIS6_EEE@Base 1.2+1640
 _ZN5nidas5dynld3raf10TwoD32_USBC1Ev@Base 1.2+1640
 _ZN5nidas5dynld3raf10TwoD32_USBC2Ev@Base 1.2+1640
 _ZN5nidas5dynld3raf10TwoD32_USBD0Ev@Base 1.2+1640
 _ZN5nidas5dynld3raf10TwoD32_USBD1Ev@Base 1.2+1640
 _ZN5nidas5dynld3raf10TwoD32_USBD2Ev@Base 1.2+1640
 _ZN5nidas5dynld3raf10TwoD64_USB10processSOREPKNS_4core6SampleERNSt7__cxx114listIS6_SaIS6_EEE@Base 1.2+1640
 _ZN5nidas5dynld3raf10TwoD64_USB11_syncStringE@Base 1.2+1640
 _ZN5nidas5dynld3raf10TwoD64_USB12_blankStringE@Base 1.2+1640
 _ZN5nidas5dynld3raf10TwoD64_USB13_overldStringE@Base 1.2+1640
 _ZN5nidas5dynld3raf10TwoD64_USB15init_parametersEv@Base 1.2+1640
 _ZN5nidas5dynld3raf10TwoD64_USB18processImageRecordEPKNS_4core6SampleERNSt7__cxx114listIS6_SaIS6_EEEi@Base 1.2+1640
 _ZN5nidas5dynld3raf10TwoD64_USB7processEPKNS_4core6SampleERNSt7__cxx114listIS6_SaIS6_EEE@Base 1.2+1640
 _ZN5nidas5dynld3raf10TwoD64_USBC1Ev@Base 1.2+1640
 _ZN5nidas5dynld3raf10TwoD64_USBC2Ev@Base 1.2+1640
 _ZN5nidas5dynld3raf10TwoD64_USBD0Ev@Base 1.2+1640
 _ZN5nidas5dynld3raf10TwoD64_USBD1Ev@Base 1.2+1640
 _ZN5nidas5dynld3raf10TwoD64_USBD2Ev@Base 1.2+1640
 _ZN5nidas5dynld3raf10TwoD_House7V5_INDXE@Base 1.2+1640
 _ZN5nidas5dynld3raf10TwoD_House7processEPKNS_4core6SampleERNSt7__cxx114listIS6_SaIS6_EEE@Base 1.2+1640
 _ZN5nidas5dynld3raf10TwoD_House8EE1_INDXE@Base 1.2+1640
 _ZN5nidas5dynld3raf10TwoD_House8TMP_INDXE@Base 1.2+1640
 _ZN5nidas5dynld3raf10TwoD_House8V15_INDXE@Base 1.2+1640
 _ZN5nidas5dynld3raf10TwoD_House9EE32_INDXE@Base 1.2+1640
 _ZN5nidas5dynld3raf10TwoD_House9VN15_INDXE@Base 1.2+1640
 _ZN5nidas5dynld3raf10TwoD_HouseC1Ev@Base 1.2+1640
 _ZN5nidas5dynld3raf10TwoD_HouseC2Ev@Base 1.2+1640
 _ZN5nidas5dynld3raf10TwoD_HouseD0Ev@Base 1.2+1640
 _ZN5nidas5dynld3raf10TwoD_HouseD1Ev@Base 1.2+1640
 _ZN5nidas5dynld3raf10TwoD_HouseD2Ev@Base 1.2+1640
 _ZN5nidas5dynld3raf11BCPD_Serial10FiveVdcRefE@Base 1.2+1640
 _ZN5nidas5dynld3raf11BCPD_Serial10P_APD_TempE@Base 1.2+1640
 _ZN5nidas5dynld3raf11BCPD_Serial10S_APD_TempE@Base 1.2+1640
 _ZN5nidas5dynld3raf11BCPD_Serial14sendInitStringEv@Base 1.2+1640
 _ZN5nidas5dynld3raf11BCPD_Serial7processEPKNS_4core6SampleERNSt7__cxx114listIS6_SaIS6_EEE@Base 1.2+1640
 _ZN5nidas5dynld3raf11BCPD_Serial8validateEv@Base 1.2+1640
 _ZN5nidas5dynld3raf11BCPD_Serial9BoardTempE@Base 1.2+1640
 _ZN5nidas5dynld3raf11BCPD_Serial9P_APD_VdcE@Base 1.2+1640
 _ZN5nidas5dynld3raf11BCPD_Serial9S_APD_VdcE@Base 1.2+1640
 _ZN5nidas5dynld3raf11BCPD_SerialC1Ev@Base 1.2+1640
 _ZN5nidas5dynld3raf11BCPD_SerialC2Ev@Base 1.2+1640
 _ZN5nidas5dynld3raf11BCPD_SerialD0Ev@Base 1.2+1640
 _ZN5nidas5dynld3raf11BCPD_SerialD1Ev@Base 1.2+1640
 _ZN5nidas5dynld3raf11BCPD_SerialD2Ev@Base 1.2+1640
 _ZN5nidas5dynld3raf12CVIProcessor10disconnectEPNS_4core12SampleOutputE@Base 1.2+1640
 _ZN5nidas5dynld3raf12CVIProcessor13attachLVInputEPNS_4core12SampleSourceEPKNS3_9SampleTagE@Base 1.2+1640
 _ZN5nidas5dynld3raf12CVIProcessor13connectSourceEPNS_4core12SampleSourceE@Base 1.2+1640
 _ZN5nidas5dynld3raf12CVIProcessor14fromDOMElementEPKN11xercesc_3_210DOMElementE@Base 1.2+1640
 _ZN5nidas5dynld3raf12CVIProcessor16disconnectSourceEPNS_4core12SampleSourceE@Base 1.2+1640
 _ZN5nidas5dynld3raf12CVIProcessor21addRequestedSampleTagEPNS_4core9SampleTagE@Base 1.2+1640
 _ZN5nidas5dynld3raf12CVIProcessor5flushEv@Base 1.2+1640
 _ZN5nidas5dynld3raf12CVIProcessor7connectEPNS_4core12SampleOutputE@Base 1.2+1640
 _ZN5nidas5dynld3raf12CVIProcessor7receiveEPKNS_4core6SampleE@Base 1.2+1640
 _ZN5nidas5dynld3raf12CVIProcessorC1Ev@Base 1.2+1640
 _ZN5nidas5dynld3raf12CVIProcessorC2Ev@Base 1.2+1640
 _ZN5nidas5dynld3raf12CVIProcessorD0Ev@Base 1.2+1640
 _ZN5nidas5dynld3raf12CVIProcessorD1Ev@Base 1.2+1640
 _ZN5nidas5dynld3raf12CVIProcessorD2Ev@Base 1.2+1640
 _ZN5nidas5dynld3raf12CVI_LV_Input13buildIODeviceEv@Base 1.2+1640
 _ZN5nidas5dynld3raf12CVI_LV_Input4openEi@Base 1.2+1640
 _ZN5nidas5dynld3raf12CVI_LV_Input7CVTdiffEf@Base 1.2+1640
 _ZN5nidas5dynld3raf12CVI_LV_Input7processEPKNS_4core6SampleERNSt7__cxx114listIS6_SaIS6_EEE@Base 1.2+1640
 _ZN5nidas5dynld3raf12CVI_LV_InputC1Ev@Base 1.2+1640
 _ZN5nidas5dynld3raf12CVI_LV_InputC2Ev@Base 1.2+1640
 _ZN5nidas5dynld3raf12CVI_LV_InputD0Ev@Base 1.2+1640
 _ZN5nidas5dynld3raf12CVI_LV_InputD1Ev@Base 1.2+1640
 _ZN5nidas5dynld3raf12CVI_LV_InputD2Ev@Base 1.2+1640
 _ZN5nidas5dynld3raf12UHSAS_Serial10findMarkerEPKhS4_Phi@Base 1.2+1640
 _ZN5nidas5dynld3raf12UHSAS_Serial10fromLittleE@Base 1.2+1640
 _ZN5nidas5dynld3raf12UHSAS_Serial14sendInitStringEv@Base 1.2+1640
 _ZN5nidas5dynld3raf12UHSAS_Serial4initEv@Base 1.2+1640
 _ZN5nidas5dynld3raf12UHSAS_Serial4openEi@Base 1.2+1640
 _ZN5nidas5dynld3raf12UHSAS_Serial7processEPKNS_4core6SampleERNSt7__cxx114listIS6_SaIS6_EEE@Base 1.2+1640
 _ZN5nidas5dynld3raf12UHSAS_SerialC1Ev@Base 1.2+1640
 _ZN5nidas5dynld3raf12UHSAS_SerialC2Ev@Base 1.2+1640
 _ZN5nidas5dynld3raf12UHSAS_SerialD0Ev@Base 1.2+1640
 _ZN5nidas5dynld3raf12UHSAS_SerialD1Ev@Base 1.2+1640
 _ZN5nidas5dynld3raf12UHSAS_SerialD2Ev@Base 1.2+1640
 _ZN5nidas5dynld3raf12VCSEL_Serial17derivedDataNotifyEPKNS_4core17DerivedDataReaderE@Base 1.2+1640
 _ZN5nidas5dynld3raf12VCSEL_Serial22sendAmbientTemperatureEf@Base 1.2+1640
 _ZN5nidas5dynld3raf12VCSEL_Serial4openEi@Base 1.2+1640
 _ZN5nidas5dynld3raf12VCSEL_Serial5closeEv@Base 1.2+1640
 _ZN5nidas5dynld3raf12VCSEL_Serial7processEPKNS_4core6SampleERNSt7__cxx114listIS6_SaIS6_EEE@Base 1.2+1640
 _ZN5nidas5dynld3raf12VCSEL_SerialC1Ev@Base 1.2+1640
 _ZN5nidas5dynld3raf12VCSEL_SerialC2Ev@Base 1.2+1640
 _ZN5nidas5dynld3raf12VCSEL_SerialD0Ev@Base 1.2+1640
 _ZN5nidas5dynld3raf12VCSEL_SerialD1Ev@Base 1.2+1640
 _ZN5nidas5dynld3raf12VCSEL_SerialD2Ev@Base 1.2+1640
 _ZN5nidas5dynld3raf13DSMMesaSensor13buildIODeviceEv@Base 1.2+1640
 _ZN5nidas5dynld3raf13DSMMesaSensor14fromDOMElementEPKN11xercesc_3_210DOMElementE@Base 1.2+1640
 _ZN5nidas5dynld3raf13DSMMesaSensor14selectfiletypeEP8_IO_FILERKNSt7__cxx1112basic_stringIcSt11char_traitsIcESaIcEEE@Base 1.2+1640
 _ZN5nidas5dynld3raf13DSMMesaSensor18buildSampleScannerEv@Base 1.2+1640
 _ZN5nidas5dynld3raf13DSMMesaSensor20sendFPGACodeToDriverEv@Base 1.2+1640
 _ZN5nidas5dynld3raf13DSMMesaSensor4openEi@Base 1.2+1640
 _ZN5nidas5dynld3raf13DSMMesaSensor7processEPKNS_4core6SampleERNSt7__cxx114listIS6_SaIS6_EEE@Base 1.2+1640
 _ZN5nidas5dynld3raf13DSMMesaSensorC1Ev@Base 1.2+1640
 _ZN5nidas5dynld3raf13DSMMesaSensorC2Ev@Base 1.2+1640
 _ZN5nidas5dynld3raf13DSMMesaSensorD0Ev@Base 1.2+1640
 _ZN5nidas5dynld3raf13DSMMesaSensorD1Ev@Base 1.2+1640
 _ZN5nidas5dynld3raf13DSMMesaSensorD2Ev@Base 1.2+1640
 _ZN5nidas5dynld3raf13IRS_HW_YG185412processLabelEiPNS_4core10sampleTypeE@Base 1.2+1640
 _ZN5nidas5dynld3raf13IRS_HW_YG1854D0Ev@Base 1.2+1640
 _ZN5nidas5dynld3raf13IRS_HW_YG1854D1Ev@Base 1.2+1640
 _ZN5nidas5dynld3raf13IRS_HW_YG1854D2Ev@Base 1.2+1640
 _ZN5nidas5dynld3raf13LamsNetSensor11_fromLittleE@Base 1.2+1640
 _ZN5nidas5dynld3raf13LamsNetSensor7processEPKNS_4core6SampleERNSt7__cxx114listIS6_SaIS6_EEE@Base 1.2+1640
 _ZN5nidas5dynld3raf13LamsNetSensorC1Ev@Base 1.2+1640
 _ZN5nidas5dynld3raf13LamsNetSensorC2Ev@Base 1.2+1640
 _ZN5nidas5dynld3raf13LamsNetSensorD0Ev@Base 1.2+1640
 _ZN5nidas5dynld3raf13LamsNetSensorD1Ev@Base 1.2+1640
 _ZN5nidas5dynld3raf13LamsNetSensorD2Ev@Base 1.2+1640
 _ZN5nidas5dynld3raf13SPP100_Serial14sendInitStringEv@Base 1.2+1640
 _ZN5nidas5dynld3raf13SPP100_Serial7processEPKNS_4core6SampleERNSt7__cxx114listIS6_SaIS6_EEE@Base 1.2+1640
 _ZN5nidas5dynld3raf13SPP100_Serial8validateEv@Base 1.2+1640
 _ZN5nidas5dynld3raf13SPP100_Serial9FREF_INDXE@Base 1.2+1640
 _ZN5nidas5dynld3raf13SPP100_Serial9FTMP_INDXE@Base 1.2+1640
 _ZN5nidas5dynld3raf13SPP100_SerialC1Ev@Base 1.2+1640
 _ZN5nidas5dynld3raf13SPP100_SerialC2Ev@Base 1.2+1640
 _ZN5nidas5dynld3raf13SPP100_SerialD0Ev@Base 1.2+1640
 _ZN5nidas5dynld3raf13SPP100_SerialD1Ev@Base 1.2+1640
 _ZN5nidas5dynld3raf13SPP100_SerialD2Ev@Base 1.2+1640
 _ZN5nidas5dynld3raf13SPP200_Serial10PFLWS_INDXE@Base 1.2+1640
 _ZN5nidas5dynld3raf13SPP200_Serial14sendInitStringEv@Base 1.2+1640
 _ZN5nidas5dynld3raf13SPP200_Serial7processEPKNS_4core6SampleERNSt7__cxx114listIS6_SaIS6_EEE@Base 1.2+1640
 _ZN5nidas5dynld3raf13SPP200_Serial8validateEv@Base 1.2+1640
 _ZN5nidas5dynld3raf13SPP200_Serial9PFLW_INDXE@Base 1.2+1640
 _ZN5nidas5dynld3raf13SPP200_Serial9PHGB_INDXE@Base 1.2+1640
 _ZN5nidas5dynld3raf13SPP200_Serial9PLGB_INDXE@Base 1.2+1640
 _ZN5nidas5dynld3raf13SPP200_Serial9PMGB_INDXE@Base 1.2+1640
 _ZN5nidas5dynld3raf13SPP200_Serial9PREF_INDXE@Base 1.2+1640
 _ZN5nidas5dynld3raf13SPP200_Serial9PTMP_INDXE@Base 1.2+1640
 _ZN5nidas5dynld3raf13SPP200_SerialC1Ev@Base 1.2+1640
 _ZN5nidas5dynld3raf13SPP200_SerialC2Ev@Base 1.2+1640
 _ZN5nidas5dynld3raf13SPP200_SerialD0Ev@Base 1.2+1640
 _ZN5nidas5dynld3raf13SPP200_SerialD1Ev@Base 1.2+1640
 _ZN5nidas5dynld3raf13SPP200_SerialD2Ev@Base 1.2+1640
 _ZN5nidas5dynld3raf13SPP300_Serial14sendInitStringEv@Base 1.2+1640
 _ZN5nidas5dynld3raf13SPP300_Serial7processEPKNS_4core6SampleERNSt7__cxx114listIS6_SaIS6_EEE@Base 1.2+1640
 _ZN5nidas5dynld3raf13SPP300_Serial8validateEv@Base 1.2+1640
 _ZN5nidas5dynld3raf13SPP300_Serial9FREF_INDXE@Base 1.2+1640
 _ZN5nidas5dynld3raf13SPP300_Serial9FTMP_INDXE@Base 1.2+1640
 _ZN5nidas5dynld3raf13SPP300_SerialC1Ev@Base 1.2+1640
 _ZN5nidas5dynld3raf13SPP300_SerialC2Ev@Base 1.2+1640
 _ZN5nidas5dynld3raf13SPP300_SerialD0Ev@Base 1.2+1640
 _ZN5nidas5dynld3raf13SPP300_SerialD1Ev@Base 1.2+1640
 _ZN5nidas5dynld3raf13SPP300_SerialD2Ev@Base 1.2+1640
 _ZN5nidas5dynld3raf13SidsNetSensor11_fromLittleE@Base 1.2+1640
 _ZN5nidas5dynld3raf13SidsNetSensor13countParticleERKNS2_8ParticleE@Base 1.2+1640
 _ZN5nidas5dynld3raf13SidsNetSensor13createSamplesExRNSt7__cxx114listIPKNS_4core6SampleESaIS8_EEE@Base 1.2+1640
 _ZN5nidas5dynld3raf13SidsNetSensor4initEv@Base 1.2+1640
 _ZN5nidas5dynld3raf13SidsNetSensor7processEPKNS_4core6SampleERNSt7__cxx114listIS6_SaIS6_EEE@Base 1.2+1640
 _ZN5nidas5dynld3raf13SidsNetSensor8_fromBigE@Base 1.2+1640
 _ZN5nidas5dynld3raf13SidsNetSensor9clearDataEv@Base 1.2+1640
 _ZN5nidas5dynld3raf13SidsNetSensorC1Ev@Base 1.2+1640
 _ZN5nidas5dynld3raf13SidsNetSensorC2Ev@Base 1.2+1640
 _ZN5nidas5dynld3raf13SidsNetSensorD0Ev@Base 1.2+1640
 _ZN5nidas5dynld3raf13SidsNetSensorD1Ev@Base 1.2+1640
 _ZN5nidas5dynld3raf13SidsNetSensorD2Ev@Base 1.2+1640
 _ZN5nidas5dynld3raf13TwoD64_USB_v310TASToTap2DEPvf@Base 1.2+1640
 _ZN5nidas5dynld3raf13TwoD64_USB_v310processSOREPKNS_4core6SampleERNSt7__cxx114listIS6_SaIS6_EEE@Base 1.2+1640
 _ZN5nidas5dynld3raf13TwoD64_USB_v315init_parametersEv@Base 1.2+1640
 _ZN5nidas5dynld3raf13TwoD64_USB_v38validateEv@Base 1.2+1640
 _ZN5nidas5dynld3raf13TwoD64_USB_v3C1Ev@Base 1.2+1640
 _ZN5nidas5dynld3raf13TwoD64_USB_v3C2Ev@Base 1.2+1640
 _ZN5nidas5dynld3raf13TwoD64_USB_v3D0Ev@Base 1.2+1640
 _ZN5nidas5dynld3raf13TwoD64_USB_v3D1Ev@Base 1.2+1640
 _ZN5nidas5dynld3raf13TwoD64_USB_v3D2Ev@Base 1.2+1640
 _ZN5nidas5dynld3raf13VCSEL2_Serial17derivedDataNotifyEPKNS_4core17DerivedDataReaderE@Base 1.2+1640
 _ZN5nidas5dynld3raf13VCSEL2_Serial23sendTemperaturePressureEff@Base 1.2+1640
 _ZN5nidas5dynld3raf13VCSEL2_Serial4openEi@Base 1.2+1640
 _ZN5nidas5dynld3raf13VCSEL2_Serial5closeEv@Base 1.2+1640
 _ZN5nidas5dynld3raf13VCSEL2_SerialC1Ev@Base 1.2+1640
 _ZN5nidas5dynld3raf13VCSEL2_SerialC2Ev@Base 1.2+1640
 _ZN5nidas5dynld3raf13VCSEL2_SerialD0Ev@Base 1.2+1640
 _ZN5nidas5dynld3raf13VCSEL2_SerialD1Ev@Base 1.2+1640
 _ZN5nidas5dynld3raf13VCSEL2_SerialD2Ev@Base 1.2+1640
 _ZN5nidas5dynld3raf14DSMArincSensor11printStatusERSo@Base 1.2+1640
 _ZN5nidas5dynld3raf14DSMArincSensor11processAltaExPhiRNSt7__cxx114listIPKNS_4core6SampleESaIS9_EEE@Base 1.2+1640
 _ZN5nidas5dynld3raf14DSMArincSensor13buildIODeviceEv@Base 1.2+1640
 _ZN5nidas5dynld3raf14DSMArincSensor14fromDOMElementEPKN11xercesc_3_210DOMElementE@Base 1.2+1640
 _ZN5nidas5dynld3raf14DSMArincSensor18buildSampleScannerEv@Base 1.2+1640
 _ZN5nidas5dynld3raf14DSMArincSensor26registerWithUDPArincSensorEv@Base 1.2+1640
 _ZN5nidas5dynld3raf14DSMArincSensor4initEv@Base 1.2+1640
 _ZN5nidas5dynld3raf14DSMArincSensor4openEi@Base 1.2+1640
 _ZN5nidas5dynld3raf14DSMArincSensor5closeEv@Base 1.2+1640
 _ZN5nidas5dynld3raf14DSMArincSensor7processEPKNS_4core6SampleERNSt7__cxx114listIS6_SaIS6_EEE@Base 1.2+1640
 _ZN5nidas5dynld3raf14DSMArincSensorC1Ev@Base 1.2+1640
 _ZN5nidas5dynld3raf14DSMArincSensorC2Ev@Base 1.2+1640
 _ZN5nidas5dynld3raf14DSMArincSensorD0Ev@Base 1.2+1640
 _ZN5nidas5dynld3raf14DSMArincSensorD1Ev@Base 1.2+1640
 _ZN5nidas5dynld3raf14DSMArincSensorD2Ev@Base 1.2+1640
 _ZN5nidas5dynld3raf14PSI9116_Sensor10startPurgeEv@Base 1.2+1640
 _ZN5nidas5dynld3raf14PSI9116_Sensor11sendCommandERKNSt7__cxx1112basic_stringIcSt11char_traitsIcESaIcEEEi@Base 1.2+1640
 _ZN5nidas5dynld3raf14PSI9116_Sensor11stopStreamsEv@Base 1.2+1640
 _ZN5nidas5dynld3raf14PSI9116_Sensor12startStreamsEv@Base 1.2+1640
 _ZN5nidas5dynld3raf14PSI9116_Sensor13buildIODeviceEv@Base 1.2+1640
 _ZN5nidas5dynld3raf14PSI9116_Sensor13executeXmlRpcERN6XmlRpc11XmlRpcValueES5_@Base 1.2+1640
 _ZN5nidas5dynld3raf14PSI9116_Sensor4openEi@Base 1.2+1640
 _ZN5nidas5dynld3raf14PSI9116_Sensor7processEPKNS_4core6SampleERNSt7__cxx114listIS6_SaIS6_EEE@Base 1.2+1640
 _ZN5nidas5dynld3raf14PSI9116_Sensor8validateEv@Base 1.2+1640
 _ZN5nidas5dynld3raf14PSI9116_Sensor9stopPurgeEv@Base 1.2+1640
 _ZN5nidas5dynld3raf14PSI9116_SensorC1Ev@Base 1.2+1640
 _ZN5nidas5dynld3raf14PSI9116_SensorC2Ev@Base 1.2+1640
 _ZN5nidas5dynld3raf14PSI9116_SensorD0Ev@Base 1.2+1640
 _ZN5nidas5dynld3raf14PSI9116_SensorD1Ev@Base 1.2+1640
 _ZN5nidas5dynld3raf14PSI9116_SensorD2Ev@Base 1.2+1640
 _ZN5nidas5dynld3raf14UDPArincSensor10decodeIRIGEPh@Base 1.2+1640
 _ZN5nidas5dynld3raf14UDPArincSensor10nextSampleEv@Base 1.2+1640
 _ZN5nidas5dynld3raf14UDPArincSensor11decodeTIMERERK3rxp@Base 1.2+1640
 _ZN5nidas5dynld3raf14UDPArincSensor11printStatusERSo@Base 1.2+1640
 _ZN5nidas5dynld3raf14UDPArincSensor12MAX_CHANNELSE@Base 1.2+1640
 _ZN5nidas5dynld3raf14UDPArincSensor13extractStatusEPKci@Base 1.2+1640
 _ZN5nidas5dynld3raf14UDPArincSensor4openEi@Base 1.2+1640
 _ZN5nidas5dynld3raf14UDPArincSensor5closeEv@Base 1.2+1640
 _ZN5nidas5dynld3raf14UDPArincSensor7processEPKNS_4core6SampleERNSt7__cxx114listIS6_SaIS6_EEE@Base 1.2+1640
 _ZN5nidas5dynld3raf14UDPArincSensor8validateEv@Base 1.2+1640
 _ZN5nidas5dynld3raf14UDPArincSensor9bigEndianE@Base 1.2+1640
 _ZN5nidas5dynld3raf14UDPArincSensorC1Ev@Base 1.2+1640
 _ZN5nidas5dynld3raf14UDPArincSensorC2Ev@Base 1.2+1640
 _ZN5nidas5dynld3raf14UDPArincSensorD0Ev@Base 1.2+1640
 _ZN5nidas5dynld3raf14UDPArincSensorD1Ev@Base 1.2+1640
 _ZN5nidas5dynld3raf14UDPArincSensorD2Ev@Base 1.2+1640
 _ZN5nidas5dynld3raf15DSMAnalogSensor11getA2DSetupERN6XmlRpc11XmlRpcValueES5_@Base 1.2+1640
 _ZN5nidas5dynld3raf15DSMAnalogSensor11printStatusERSo@Base 1.2+1640
 _ZN5nidas5dynld3raf15DSMAnalogSensor11readCalFileEx@Base 1.2+1640
 _ZN5nidas5dynld3raf15DSMAnalogSensor11testVoltageERN6XmlRpc11XmlRpcValueES5_@Base 1.2+1640
 _ZN5nidas5dynld3raf15DSMAnalogSensor12DEGC_PER_CNTE@Base 1.2+1640
 _ZN5nidas5dynld3raf15DSMAnalogSensor13buildIODeviceEv@Base 1.2+1640
 _ZN5nidas5dynld3raf15DSMAnalogSensor13executeXmlRpcERN6XmlRpc11XmlRpcValueES5_@Base 1.2+1640
 _ZN5nidas5dynld3raf15DSMAnalogSensor13voltageActualEf@Base 1.2+1640
 _ZN5nidas5dynld3raf15DSMAnalogSensor14readFilterFileERKNSt7__cxx1112basic_stringIcSt11char_traitsIcESaIcEEEPti@Base 1.2+1640
 _ZN5nidas5dynld3raf15DSMAnalogSensor16setA2DParametersEiii@Base 1.2+1640
 _ZN5nidas5dynld3raf15DSMAnalogSensor18buildSampleScannerEv@Base 1.2+1640
 _ZN5nidas5dynld3raf15DSMAnalogSensor18processTemperatureEPKNS_4core6SampleERNSt7__cxx114listIS6_SaIS6_EEE@Base 1.2+1640
 _ZN5nidas5dynld3raf15DSMAnalogSensor21TemperatureTableGain4E@Base 1.2+1640
 _ZN5nidas5dynld3raf15DSMAnalogSensor23setConversionCorrectionEiff@Base 1.2+1640
 _ZN5nidas5dynld3raf15DSMAnalogSensor31TemperatureChamberVoltagesGain4E@Base 1.2+1640
 _ZN5nidas5dynld3raf15DSMAnalogSensor4initEv@Base 1.2+1640
 _ZN5nidas5dynld3raf15DSMAnalogSensor4openEi@Base 1.2+1640
 _ZN5nidas5dynld3raf15DSMAnalogSensor5closeEv@Base 1.2+1640
 _ZN5nidas5dynld3raf15DSMAnalogSensor7getTempEv@Base 1.2+1640
 _ZN5nidas5dynld3raf15DSMAnalogSensor7processEPKNS_4core6SampleERNSt7__cxx114listIS6_SaIS6_EEE@Base 1.2+1640
 _ZN5nidas5dynld3raf15DSMAnalogSensor8validateEv@Base 1.2+1640
 _ZN5nidas5dynld3raf15DSMAnalogSensorC1Ev@Base 1.2+1640
 _ZN5nidas5dynld3raf15DSMAnalogSensorC2Ev@Base 1.2+1640
 _ZN5nidas5dynld3raf15DSMAnalogSensorD0Ev@Base 1.2+1640
 _ZN5nidas5dynld3raf15DSMAnalogSensorD1Ev@Base 1.2+1640
 _ZN5nidas5dynld3raf15DSMAnalogSensorD2Ev@Base 1.2+1640
 _ZN5nidas5dynld3raf15IRS_HW_HG2001GD12processLabelEiPNS_4core10sampleTypeE@Base 1.2+1640
 _ZN5nidas5dynld3raf15IRS_HW_HG2001GDD0Ev@Base 1.2+1640
 _ZN5nidas5dynld3raf15IRS_HW_HG2001GDD1Ev@Base 1.2+1640
 _ZN5nidas5dynld3raf15IRS_HW_HG2001GDD2Ev@Base 1.2+1640
 _ZN5nidas5dynld3raf15TwoD_Processing10saveBufferEPKhS4_@Base 1.2+1640
 _ZN5nidas5dynld3raf15TwoD_Processing11setupBufferEPPKhS5_@Base 1.2+1640
 _ZN5nidas5dynld3raf15TwoD_Processing13countParticleERKNS2_8ParticleEf@Base 1.2+1640
 _ZN5nidas5dynld3raf15TwoD_Processing13createSamplesExRNSt7__cxx114listIPKNS_4core6SampleESaIS8_EEE@Base 1.2+1640
 _ZN5nidas5dynld3raf15TwoD_Processing20processParticleSliceERNS2_8ParticleEPKh@Base 1.2+1640
 _ZN5nidas5dynld3raf15TwoD_Processing9clearDataEv@Base 1.2+1640
 _ZN5nidas5dynld3raf15TwoD_ProcessingC1Ev@Base 1.2+1640
 _ZN5nidas5dynld3raf15TwoD_ProcessingC2Ev@Base 1.2+1640
 _ZN5nidas5dynld3raf15TwoD_ProcessingD0Ev@Base 1.2+1640
 _ZN5nidas5dynld3raf15TwoD_ProcessingD1Ev@Base 1.2+1640
 _ZN5nidas5dynld3raf15TwoD_ProcessingD2Ev@Base 1.2+1640
 _ZN5nidas5dynld3raf16ADC_HW_EB702259712processLabelEiPNS_4core10sampleTypeE@Base 1.2+1640
 _ZN5nidas5dynld3raf16ADC_HW_EB7022597D0Ev@Base 1.2+1640
 _ZN5nidas5dynld3raf16ADC_HW_EB7022597D1Ev@Base 1.2+1640
 _ZN5nidas5dynld3raf16ADC_HW_EB7022597D2Ev@Base 1.2+1640
 _ZN5nidas5dynld3raf16LSZ_HW_EB703223912processLabelEiPNS_4core10sampleTypeE@Base 1.2+1640
 _ZN5nidas5dynld3raf16LSZ_HW_EB7032239D0Ev@Base 1.2+1640
 _ZN5nidas5dynld3raf16LSZ_HW_EB7032239D1Ev@Base 1.2+1640
 _ZN5nidas5dynld3raf16LSZ_HW_EB7032239D2Ev@Base 1.2+1640
 _ZN5nidas5dynld3raf16SyncRecordReader10nextSampleEv@Base 1.2+1640
 _ZN5nidas5dynld3raf16SyncRecordReader10scanHeaderEPKNS_4core6SampleE@Base 1.2+1640
 _ZN5nidas5dynld3raf16SyncRecordReader11endOfStreamEv@Base 1.2+1640
 _ZN5nidas5dynld3raf16SyncRecordReader12getLagOffsetEPKNS_4core8VariableE@Base 1.2+1640
 _ZN5nidas5dynld3raf16SyncRecordReader12getVariablesB5cxx11Ev@Base 1.2+1640
 _ZN5nidas5dynld3raf16SyncRecordReader15getQuotedStringERNSt7__cxx1119basic_istringstreamIcSt11char_traitsIcESaIcEEE@Base 1.2+1640
 _ZN5nidas5dynld3raf16SyncRecordReader16getSyncRecOffsetEPKNS_4core8VariableE@Base 1.2+1640
 _ZN5nidas5dynld3raf16SyncRecordReader21readKeyedQuotedValuesERNSt7__cxx1119basic_istringstreamIcSt11char_traitsIcESaIcEEE@Base 1.2+1640
 _ZN5nidas5dynld3raf16SyncRecordReader4initEv@Base 1.2+1640
 _ZN5nidas5dynld3raf16SyncRecordReader4readEPxPdj@Base 1.2+1640
 _ZN5nidas5dynld3raf16SyncRecordReader5flushEv@Base 1.2+1640
 _ZN5nidas5dynld3raf16SyncRecordReader7receiveEPKNS_4core6SampleE@Base 1.2+1640
 _ZN5nidas5dynld3raf16SyncRecordReaderC1EPNS1_10SyncServerE@Base 1.2+1640
 _ZN5nidas5dynld3raf16SyncRecordReaderC1EPNS_4core9IOChannelE@Base 1.2+1640
 _ZN5nidas5dynld3raf16SyncRecordReaderC2EPNS1_10SyncServerE@Base 1.2+1640
 _ZN5nidas5dynld3raf16SyncRecordReaderC2EPNS_4core9IOChannelE@Base 1.2+1640
 _ZN5nidas5dynld3raf16SyncRecordReaderD0Ev@Base 1.2+1640
 _ZN5nidas5dynld3raf16SyncRecordReaderD1Ev@Base 1.2+1640
 _ZN5nidas5dynld3raf16SyncRecordReaderD2Ev@Base 1.2+1640
 _ZN5nidas5dynld3raf16SyncRecordSource10disconnectEPNS_4core12SampleSourceE@Base 1.2+1640
 _ZN5nidas5dynld3raf16SyncRecordSource10nextRecordERNS1_8SyncInfoE@Base 1.2+1640
 _ZN5nidas5dynld3raf16SyncRecordSource10prevRecordERNS1_8SyncInfoE@Base 1.2+1640
 _ZN5nidas5dynld3raf16SyncRecordSource12addSampleTagEPKNS_4core9SampleTagE@Base 1.2+1640
 _ZN5nidas5dynld3raf16SyncRecordSource12createHeaderERSo@Base 1.2+1640
 _ZN5nidas5dynld3raf16SyncRecordSource13advanceRecordEx@Base 1.2+1640
 _ZN5nidas5dynld3raf16SyncRecordSource14allocateRecordEix@Base 1.2+1640
 _ZN5nidas5dynld3raf16SyncRecordSource14sendSyncHeaderEv@Base 1.2+1640
 _ZN5nidas5dynld3raf16SyncRecordSource14sendSyncRecordEv@Base 1.2+1640
 _ZN5nidas5dynld3raf16SyncRecordSource15addSampleClientEPNS_4core12SampleClientE@Base 1.2+1640
 _ZN5nidas5dynld3raf16SyncRecordSource15nextRecordIndexEi@Base 1.2+1640
 _ZN5nidas5dynld3raf16SyncRecordSource15prevRecordIndexEi@Base 1.2+1640
 _ZN5nidas5dynld3raf16SyncRecordSource15removeSampleTagEPKNS_4core9SampleTagE@Base 1.2+1640
 _ZN5nidas5dynld3raf16SyncRecordSource16computeSlotIndexEPKNS_4core6SampleERNS1_8SyncInfoE@Base 1.2+1640
 _ZN5nidas5dynld3raf16SyncRecordSource18getRawSampleSourceEv@Base 1.2+1640
 _ZN5nidas5dynld3raf16SyncRecordSource18removeSampleClientEPNS_4core12SampleClientE@Base 1.2+1640
 _ZN5nidas5dynld3raf16SyncRecordSource19preLoadCalibrationsEx@Base 1.2+1640
 _ZN5nidas5dynld3raf16SyncRecordSource21addSampleClientForTagEPNS_4core12SampleClientEPKNS3_9SampleTagE@Base 1.2+1640
 _ZN5nidas5dynld3raf16SyncRecordSource24getProcessedSampleSourceEv@Base 1.2+1640
 _ZN5nidas5dynld3raf16SyncRecordSource24removeSampleClientForTagEPNS_4core12SampleClientEPKNS3_9SampleTagE@Base 1.2+1640
 _ZN5nidas5dynld3raf16SyncRecordSource25selectVariablesFromSensorEPNS_4core9DSMSensorERNSt7__cxx114listIPKNS3_8VariableESaISA_EEE@Base 1.2+1640
 _ZN5nidas5dynld3raf16SyncRecordSource26selectVariablesFromProjectEPNS_4core7ProjectERNSt7__cxx114listIPKNS3_8VariableESaISA_EEE@Base 1.2+1640
 _ZN5nidas5dynld3raf16SyncRecordSource3logERNS_4util10LogContextERKNSt7__cxx1112basic_stringIcSt11char_traitsIcESaIcEEEPKNS_4core6SampleERKNS1_8SyncInfoE@Base 1.2+1640
 _ZN5nidas5dynld3raf16SyncRecordSource3logERNS_4util10LogContextERKNSt7__cxx1112basic_stringIcSt11char_traitsIcESaIcEEERKNS1_8SyncInfoE@Base 1.2+1640
 _ZN5nidas5dynld3raf16SyncRecordSource4initEv@Base 1.2+1640
 _ZN5nidas5dynld3raf16SyncRecordSource4slogERNS_4core12SampleTracerERKNSt7__cxx1112basic_stringIcSt11char_traitsIcESaIcEEEPKNS3_6SampleERKNS1_8SyncInfoE@Base 1.2+1640
 _ZN5nidas5dynld3raf16SyncRecordSource5flushEv@Base 1.2+1640
 _ZN5nidas5dynld3raf16SyncRecordSource7connectEPNS_4core12SampleSourceE@Base 1.2+1640
 _ZN5nidas5dynld3raf16SyncRecordSource7receiveEPKNS_4core6SampleE@Base 1.2+1640
 _ZN5nidas5dynld3raf16SyncRecordSource9checkTimeEPKNS_4core6SampleERNS1_8SyncInfoERNS3_12SampleTracerERNS_4util10LogContextEi@Base 1.2+1640
 _ZN5nidas5dynld3raf16SyncRecordSourceC1Ev@Base 1.2+1640
 _ZN5nidas5dynld3raf16SyncRecordSourceC2Ev@Base 1.2+1640
 _ZN5nidas5dynld3raf16SyncRecordSourceD0Ev@Base 1.2+1640
 _ZN5nidas5dynld3raf16SyncRecordSourceD1Ev@Base 1.2+1640
 _ZN5nidas5dynld3raf16SyncRecordSourceD2Ev@Base 1.2+1640
 _ZN5nidas5dynld3raf17GPS_HW_HG2021GB0212processLabelEiPNS_4core10sampleTypeE@Base 1.2+1640
 _ZN5nidas5dynld3raf17GPS_HW_HG2021GB02D0Ev@Base 1.2+1640
 _ZN5nidas5dynld3raf17GPS_HW_HG2021GB02D1Ev@Base 1.2+1640
 _ZN5nidas5dynld3raf17GPS_HW_HG2021GB02D2Ev@Base 1.2+1640
 _ZN5nidas5dynld3raf18A2DBoardTempSensor13buildIODeviceEv@Base 1.2+1640
 _ZN5nidas5dynld3raf18A2DBoardTempSensor18buildSampleScannerEv@Base 1.2+1640
 _ZN5nidas5dynld3raf18A2DBoardTempSensor4initEv@Base 1.2+1640
 _ZN5nidas5dynld3raf18A2DBoardTempSensor4openEi@Base 1.2+1640
 _ZN5nidas5dynld3raf18A2DBoardTempSensor5closeEv@Base 1.2+1640
 _ZN5nidas5dynld3raf18A2DBoardTempSensor7processEPKNS_4core6SampleERNSt7__cxx114listIS6_SaIS6_EEE@Base 1.2+1640
 _ZN5nidas5dynld3raf18A2DBoardTempSensorC1Ev@Base 1.2+1640
 _ZN5nidas5dynld3raf18A2DBoardTempSensorC2Ev@Base 1.2+1640
 _ZN5nidas5dynld3raf18A2DBoardTempSensorD0Ev@Base 1.2+1640
 _ZN5nidas5dynld3raf18A2DBoardTempSensorD1Ev@Base 1.2+1640
 _ZN5nidas5dynld3raf18A2DBoardTempSensorD2Ev@Base 1.2+1640
 _ZN5nidas5dynld3raf18SyncRecordVariableD0Ev@Base 1.2+1640
 _ZN5nidas5dynld3raf18SyncRecordVariableD1Ev@Base 1.2+1640
 _ZN5nidas5dynld3raf18SyncRecordVariableD2Ev@Base 1.2+1640
 _ZN5nidas5dynld3raf19SyncRecordGenerator10disconnectEPNS_4core12SampleOutputE@Base 1.2+1640
 _ZN5nidas5dynld3raf19SyncRecordGenerator10sendHeaderExPNS_4core12SampleOutputE@Base 1.2+1640
 _ZN5nidas5dynld3raf19SyncRecordGenerator11printStatusERSofRi@Base 1.2+1640
 _ZN5nidas5dynld3raf19SyncRecordGenerator13connectSourceEPNS_4core12SampleSourceE@Base 1.2+1640
 _ZN5nidas5dynld3raf19SyncRecordGenerator15addSampleClientEPNS_4core12SampleClientE@Base 1.2+1640
 _ZN5nidas5dynld3raf19SyncRecordGenerator16disconnectSourceEPNS_4core12SampleSourceE@Base 1.2+1640
 _ZN5nidas5dynld3raf19SyncRecordGenerator18removeSampleClientEPNS_4core12SampleClientE@Base 1.2+1640
 _ZN5nidas5dynld3raf19SyncRecordGenerator21addSampleClientForTagEPNS_4core12SampleClientEPKNS3_9SampleTagE@Base 1.2+1640
 _ZN5nidas5dynld3raf19SyncRecordGenerator24removeSampleClientForTagEPNS_4core12SampleClientEPKNS3_9SampleTagE@Base 1.2+1640
 _ZN5nidas5dynld3raf19SyncRecordGenerator4initEx@Base 1.2+1640
 _ZN5nidas5dynld3raf19SyncRecordGenerator5flushEv@Base 1.2+1640
 _ZN5nidas5dynld3raf19SyncRecordGenerator7connectEPNS_4core12SampleOutputE@Base 1.2+1640
 _ZN5nidas5dynld3raf19SyncRecordGeneratorC1Ev@Base 1.2+1640
 _ZN5nidas5dynld3raf19SyncRecordGeneratorC2Ev@Base 1.2+1640
 _ZN5nidas5dynld3raf19SyncRecordGeneratorD0Ev@Base 1.2+1640
 _ZN5nidas5dynld3raf19SyncRecordGeneratorD1Ev@Base 1.2+1640
 _ZN5nidas5dynld3raf19SyncRecordGeneratorD2Ev@Base 1.2+1640
 _ZN5nidas5dynld3raf22SyncRecHeaderExceptionC1ERKNSt7__cxx1112basic_stringIcSt11char_traitsIcESaIcEEE@Base 1.2+1640
 _ZN5nidas5dynld3raf22SyncRecHeaderExceptionC1ERKNSt7__cxx1112basic_stringIcSt11char_traitsIcESaIcEEESA_@Base 1.2+1640
 _ZN5nidas5dynld3raf22SyncRecHeaderExceptionC2ERKNSt7__cxx1112basic_stringIcSt11char_traitsIcESaIcEEE@Base 1.2+1640
 _ZN5nidas5dynld3raf22SyncRecHeaderExceptionC2ERKNSt7__cxx1112basic_stringIcSt11char_traitsIcESaIcEEESA_@Base 1.2+1640
 _ZN5nidas5dynld3raf22SyncRecHeaderExceptionD0Ev@Base 1.2+1640
 _ZN5nidas5dynld3raf22SyncRecHeaderExceptionD1Ev@Base 1.2+1640
 _ZN5nidas5dynld3raf22SyncRecHeaderExceptionD2Ev@Base 1.2+1640
 _ZN5nidas5dynld3raf5TwoDS11printStatusERSo@Base 1.2+1640
 _ZN5nidas5dynld3raf5TwoDS15init_parametersEv@Base 1.2+1640
 _ZN5nidas5dynld3raf5TwoDS18processImageRecordEPKNS_4core6SampleERNSt7__cxx114listIS6_SaIS6_EEE@Base 1.2+1640
 _ZN5nidas5dynld3raf5TwoDS19processHousekeepingEPKNS_4core6SampleERNSt7__cxx114listIS6_SaIS6_EEE@Base 1.2+1640
 _ZN5nidas5dynld3raf5TwoDS4initEv@Base 1.2+1640
 _ZN5nidas5dynld3raf5TwoDS7processEPKNS_4core6SampleERNSt7__cxx114listIS6_SaIS6_EEE@Base 1.2+1640
 _ZN5nidas5dynld3raf5TwoDSC1Ev@Base 1.2+1640
 _ZN5nidas5dynld3raf5TwoDSC2Ev@Base 1.2+1640
 _ZN5nidas5dynld3raf5TwoDSD0Ev@Base 1.2+1640
 _ZN5nidas5dynld3raf5TwoDSD1Ev@Base 1.2+1640
 _ZN5nidas5dynld3raf5TwoDSD2Ev@Base 1.2+1640
 _ZN5nidas5dynld3raf6Watlow11_fromLittleE@Base 1.2+1640
 _ZN5nidas5dynld3raf6Watlow12CRC16_fasterEPKhi@Base 1.2+1640
 _ZN5nidas5dynld3raf6Watlow5CRC16EPKhi@Base 1.2+1640
 _ZN5nidas5dynld3raf6Watlow7processEPKNS_4core6SampleERNSt7__cxx114listIS6_SaIS6_EEE@Base 1.2+1640
 _ZN5nidas5dynld3raf6Watlow8_fromBigE@Base 1.2+1640
 _ZN5nidas5dynld3raf6Watlow8checkCRCEPKhii@Base 1.2+1640
 _ZN5nidas5dynld3raf6WatlowC1Ev@Base 1.2+1640
 _ZN5nidas5dynld3raf6WatlowC2Ev@Base 1.2+1640
 _ZN5nidas5dynld3raf6WatlowD0Ev@Base 1.2+1640
 _ZN5nidas5dynld3raf6WatlowD1Ev@Base 1.2+1640
 _ZN5nidas5dynld3raf6WatlowD2Ev@Base 1.2+1640
 _ZN5nidas5dynld3raf8Aircraft11getAircraftEPNS_4core7ProjectE@Base 1.2+1640
 _ZN5nidas5dynld3raf8Aircraft12addParameterEPNS_4core9ParameterE@Base 1.2+1640
 _ZN5nidas5dynld3raf8Aircraft13setTailNumberERKNSt7__cxx1112basic_stringIcSt11char_traitsIcESaIcEEE@Base 1.2+1640
 _ZN5nidas5dynld3raf8AircraftC1Ev@Base 1.2+1640
 _ZN5nidas5dynld3raf8AircraftC2Ev@Base 1.2+1640
 _ZN5nidas5dynld3raf8AircraftD0Ev@Base 1.2+1640
 _ZN5nidas5dynld3raf8AircraftD1Ev@Base 1.2+1640
 _ZN5nidas5dynld3raf8AircraftD2Ev@Base 1.2+1640
 _ZN5nidas5dynld3raf8SyncInfo11addVariableEPKNS_4core8VariableE@Base 1.2+1640
 _ZN5nidas5dynld3raf8SyncInfo13advanceRecordEi@Base 1.2+1640
 _ZN5nidas5dynld3raf8SyncInfo13decrementSlotEv@Base 1.2+1640
 _ZN5nidas5dynld3raf8SyncInfo13incrementSlotEv@Base 1.2+1640
 _ZN5nidas5dynld3raf8SyncInfo16computeSlotIndexEPKNS_4core6SampleE@Base 1.2+1640
 _ZN5nidas5dynld3raf8SyncInfo24checkNonIntRateIncrementEv@Base 1.2+1640
 _ZN5nidas5dynld3raf8SyncInfo7nassignE@Base 1.2+1640
 _ZN5nidas5dynld3raf8SyncInfoC1ERKS2_@Base 1.2+1640
 _ZN5nidas5dynld3raf8SyncInfoC1EjfPNS1_16SyncRecordSourceE@Base 1.2+1640
 _ZN5nidas5dynld3raf8SyncInfoC2ERKS2_@Base 1.2+1640
 _ZN5nidas5dynld3raf8SyncInfoC2EjfPNS1_16SyncRecordSourceE@Base 1.2+1640
 _ZN5nidas5dynld3raf8SyncInfoD1Ev@Base 1.2+1640
 _ZN5nidas5dynld3raf8SyncInfoD2Ev@Base 1.2+1640
 _ZN5nidas5dynld3raf8SyncInfoaSERKS2_@Base 1.2+1640
 _ZN5nidas5dynld3raf8TwoD_USB10TASToTap2DEPvf@Base 1.2+1640
 _ZN5nidas5dynld3raf8TwoD_USB11printStatusERSo@Base 1.2+1640
 _ZN5nidas5dynld3raf8TwoD_USB12littleEndianE@Base 1.2+1640
 _ZN5nidas5dynld3raf8TwoD_USB13buildIODeviceEv@Base 1.2+1640
 _ZN5nidas5dynld3raf8TwoD_USB15init_parametersEv@Base 1.2+1640
 _ZN5nidas5dynld3raf8TwoD_USB16sendTrueAirspeedEf@Base 1.2+1640
 _ZN5nidas5dynld3raf8TwoD_USB17derivedDataNotifyEPKNS_4core17DerivedDataReaderE@Base 1.2+1640
 _ZN5nidas5dynld3raf8TwoD_USB18buildSampleScannerEv@Base 1.2+1640
 _ZN5nidas5dynld3raf8TwoD_USB19DefaultTrueAirspeedE@Base 1.2+1640
 _ZN5nidas5dynld3raf8TwoD_USB4initEv@Base 1.2+1640
 _ZN5nidas5dynld3raf8TwoD_USB4openEi@Base 1.2+1640
 _ZN5nidas5dynld3raf8TwoD_USB5closeEv@Base 1.2+1640
 _ZN5nidas5dynld3raf8TwoD_USB9bigEndianE@Base 1.2+1640
 _ZN5nidas5dynld3raf8TwoD_USBC1Ev@Base 1.2+1640
 _ZN5nidas5dynld3raf8TwoD_USBC2Ev@Base 1.2+1640
 _ZN5nidas5dynld3raf8TwoD_USBD0Ev@Base 1.2+1640
 _ZN5nidas5dynld3raf8TwoD_USBD1Ev@Base 1.2+1640
 _ZN5nidas5dynld3raf8TwoD_USBD2Ev@Base 1.2+1640
 _ZN5nidas5dynld3raf9AlicatSDI11computeFlowEv@Base 1.2+1640
 _ZN5nidas5dynld3raf9AlicatSDI17derivedDataNotifyEPKNS_4core17DerivedDataReaderE@Base 1.2+1640
 _ZN5nidas5dynld3raf9AlicatSDI4TstdE@Base 1.2+1640
 _ZN5nidas5dynld3raf9AlicatSDI4openEi@Base 1.2+1640
 _ZN5nidas5dynld3raf9AlicatSDI5closeEv@Base 1.2+1640
 _ZN5nidas5dynld3raf9AlicatSDI8sendFlowEf@Base 1.2+1640
 _ZN5nidas5dynld3raf9AlicatSDI8validateEv@Base 1.2+1640
 _ZN5nidas5dynld3raf9AlicatSDIC1Ev@Base 1.2+1640
 _ZN5nidas5dynld3raf9AlicatSDIC2Ev@Base 1.2+1640
 _ZN5nidas5dynld3raf9AlicatSDID0Ev@Base 1.2+1640
 _ZN5nidas5dynld3raf9AlicatSDID1Ev@Base 1.2+1640
 _ZN5nidas5dynld3raf9AlicatSDID2Ev@Base 1.2+1640
 _ZN5nidas5dynld3raf9Arinc_IRS14fromDOMElementEPKN11xercesc_3_210DOMElementE@Base 1.2+1640
 _ZN5nidas5dynld3raf9Arinc_IRSC1Ev@Base 1.2+1640
 _ZN5nidas5dynld3raf9Arinc_IRSC2Ev@Base 1.2+1640
 _ZN5nidas5dynld3raf9CVIOutput12setIOChannelEPNS_4core9IOChannelE@Base 1.2+1640
 _ZN5nidas5dynld3raf9CVIOutput17derivedDataNotifyEPKNS_4core17DerivedDataReaderE@Base 1.2+1640
 _ZN5nidas5dynld3raf9CVIOutput17requestConnectionEPNS_4core25SampleConnectionRequesterE@Base 1.2+1640
 _ZN5nidas5dynld3raf9CVIOutput21addRequestedSampleTagEPNS_4core9SampleTagE@Base 1.2+1640
 _ZN5nidas5dynld3raf9CVIOutput5cloneEPNS_4core9IOChannelE@Base 1.2+1640
 _ZN5nidas5dynld3raf9CVIOutput5flushEv@Base 1.2+1640
 _ZN5nidas5dynld3raf9CVIOutput7receiveEPKNS_4core6SampleE@Base 1.2+1640
 _ZN5nidas5dynld3raf9CVIOutputC1EPNS_4core9IOChannelEPNS3_25SampleConnectionRequesterE@Base 1.2+1640
 _ZN5nidas5dynld3raf9CVIOutputC1ERS2_PNS_4core9IOChannelE@Base 1.2+1640
 _ZN5nidas5dynld3raf9CVIOutputC1Ev@Base 1.2+1640
 _ZN5nidas5dynld3raf9CVIOutputC2EPNS_4core9IOChannelEPNS3_25SampleConnectionRequesterE@Base 1.2+1640
 _ZN5nidas5dynld3raf9CVIOutputC2ERS2_PNS_4core9IOChannelE@Base 1.2+1640
 _ZN5nidas5dynld3raf9CVIOutputC2Ev@Base 1.2+1640
 _ZN5nidas5dynld3raf9CVIOutputD0Ev@Base 1.2+1640
 _ZN5nidas5dynld3raf9CVIOutputD1Ev@Base 1.2+1640
 _ZN5nidas5dynld3raf9CVIOutputD2Ev@Base 1.2+1640
 _ZN5nidas5dynld3raf9Extract2D10sendHeaderExPNS_4core12SampleOutputE@Base 1.2+1640
 _ZN5nidas5dynld3raf9Extract2D11interruptedE@Base 1.2+1640
 _ZN5nidas5dynld3raf9Extract2D12setTimeStampERNS1_7P2d_recEPNS_4core6SampleE@Base 1.2+1640
 _ZN5nidas5dynld3raf9Extract2D12setTimeStampERNS1_8PADS_recEPNS_4core6SampleE@Base 1.2+1640
 _ZN5nidas5dynld3raf9Extract2D12setupSignalsEv@Base 1.2+1640
 _ZN5nidas5dynld3raf9Extract2D14parseRunstringEiPPc@Base 1.2+1640
 _ZN5nidas5dynld3raf9Extract2D5usageEPKc@Base 1.2+1640
 _ZN5nidas5dynld3raf9Extract2D9sigActionEiP9siginfo_tPv@Base 1.2+1640
 _ZN5nidas5dynld3raf9Extract2DC1Ev@Base 1.2+1640
 _ZN5nidas5dynld3raf9Extract2DC2Ev@Base 1.2+1640
 _ZN5nidas5dynld3raf9PHIPS_UDP18buildSampleScannerEv@Base 1.2+1640
 _ZN5nidas5dynld3raf9PHIPS_UDP7processEPKNS_4core6SampleERNSt7__cxx114listIS6_SaIS6_EEE@Base 1.2+1640
 _ZN5nidas5dynld3raf9PHIPS_UDP9scanValueEPKc@Base 1.2+1640
 _ZN5nidas5dynld3raf9PHIPS_UDPC1Ev@Base 1.2+1640
 _ZN5nidas5dynld3raf9PHIPS_UDPC2Ev@Base 1.2+1640
 _ZN5nidas5dynld3raf9PHIPS_UDPD0Ev@Base 1.2+1640
 _ZN5nidas5dynld3raf9PHIPS_UDPD1Ev@Base 1.2+1640
 _ZN5nidas5dynld3raf9PHIPS_UDPD2Ev@Base 1.2+1640
 _ZN5nidas5dynld3raf9PIP_Image12littleEndianE@Base 1.2+1640
 _ZN5nidas5dynld3raf9PIP_Image7processEPKNS_4core6SampleERNSt7__cxx114listIS6_SaIS6_EEE@Base 1.2+1640
 _ZN5nidas5dynld3raf9PIP_Image9bigEndianE@Base 1.2+1640
 _ZN5nidas5dynld3raf9PIP_ImageC1Ev@Base 1.2+1640
 _ZN5nidas5dynld3raf9PIP_ImageC2Ev@Base 1.2+1640
 _ZN5nidas5dynld3raf9PIP_ImageD0Ev@Base 1.2+1640
 _ZN5nidas5dynld3raf9PIP_ImageD1Ev@Base 1.2+1640
 _ZN5nidas5dynld3raf9PIP_ImageD2Ev@Base 1.2+1640
 _ZN5nidas5dynld3raf9SppSerial15computeCheckSumEPKhi@Base 1.2+1640
 _ZN5nidas5dynld3raf9SppSerial21appendDataAndFindGoodEPKNS_4core6SampleE@Base 1.2+1640
 _ZN5nidas5dynld3raf9SppSerial25sendInitPacketAndCheckAckEPvii@Base 1.2+1640
 _ZN5nidas5dynld3raf9SppSerial8validateEv@Base 1.2+1640
 _ZN5nidas5dynld3raf9SppSerialC1ERKNSt7__cxx1112basic_stringIcSt11char_traitsIcESaIcEEE@Base 1.2+1640
 _ZN5nidas5dynld3raf9SppSerialC2ERKNSt7__cxx1112basic_stringIcSt11char_traitsIcESaIcEEE@Base 1.2+1640
 _ZN5nidas5dynld3raf9SppSerialD0Ev@Base 1.2+1640
 _ZN5nidas5dynld3raf9SppSerialD1Ev@Base 1.2+1640
 _ZN5nidas5dynld3raf9SppSerialD2Ev@Base 1.2+1640
 _ZN5nidas5dynld4isff10ATIK_Sonic15checkSampleTagsEv@Base 1.2+1640
 _ZN5nidas5dynld4isff10ATIK_Sonic15parseParametersEv@Base 1.2+1640
 _ZN5nidas5dynld4isff10ATIK_Sonic22removeShadowCorrectionExPf@Base 1.2+1640
 _ZN5nidas5dynld4isff10ATIK_Sonic26transducerShadowCorrectionExPf@Base 1.2+1640
 _ZN5nidas5dynld4isff10ATIK_Sonic7GAMMA_RE@Base 1.2+1640
 _ZN5nidas5dynld4isff10ATIK_Sonic7processEPKNS_4core6SampleERNSt7__cxx114listIS6_SaIS6_EEE@Base 1.2+1640
 _ZN5nidas5dynld4isff10ATIK_SonicC1Ev@Base 1.2+1640
 _ZN5nidas5dynld4isff10ATIK_SonicC2Ev@Base 1.2+1640
 _ZN5nidas5dynld4isff10ATIK_SonicD0Ev@Base 1.2+1640
 _ZN5nidas5dynld4isff10ATIK_SonicD1Ev@Base 1.2+1640
 _ZN5nidas5dynld4isff10ATIK_SonicD2Ev@Base 1.2+1640
 _ZN5nidas5dynld4isff10CS_Krypton10fromStringERKNSt7__cxx1112basic_stringIcSt11char_traitsIcESaIcEEE@Base 1.2+1640
 _ZN5nidas5dynld4isff10CS_Krypton11parseFieldsEPNS_4core7CalFileE@Base 1.2+1640
 _ZN5nidas5dynld4isff10CS_Krypton13setPathLengthEf@Base 1.2+1640
 _ZN5nidas5dynld4isff10CS_Krypton14fromDOMElementEPKN11xercesc_3_210DOMElementE@Base 1.2+1640
 _ZN5nidas5dynld4isff10CS_Krypton5resetEv@Base 1.2+1640
 _ZN5nidas5dynld4isff10CS_Krypton5setKwEf@Base 1.2+1640
 _ZN5nidas5dynld4isff10CS_Krypton5setV0Ef@Base 1.2+1640
 _ZN5nidas5dynld4isff10CS_Krypton7convertExd@Base 1.2+1640
 _ZN5nidas5dynld4isff10CS_Krypton7setBiasEf@Base 1.2+1640
 _ZN5nidas5dynld4isff10CS_KryptonC1Ev@Base 1.2+1640
 _ZN5nidas5dynld4isff10CS_KryptonC2Ev@Base 1.2+1640
 _ZN5nidas5dynld4isff10CS_KryptonD0Ev@Base 1.2+1640
 _ZN5nidas5dynld4isff10CS_KryptonD1Ev@Base 1.2+1640
 _ZN5nidas5dynld4isff10CS_KryptonD2Ev@Base 1.2+1640
 _ZN5nidas5dynld4isff10RebsLinear7convertExf@Base 1.2+1640
 _ZN5nidas5dynld4isff10RebsLinear8toStringB5cxx11Ev@Base 1.2+1640
 _ZN5nidas5dynld4isff10RebsLinearC1Ev@Base 1.2+1640
 _ZN5nidas5dynld4isff10RebsLinearC2Ev@Base 1.2+1640
 _ZN5nidas5dynld4isff10RebsLinearD0Ev@Base 1.2+1640
 _ZN5nidas5dynld4isff10RebsLinearD1Ev@Base 1.2+1640
 _ZN5nidas5dynld4isff10RebsLinearD2Ev@Base 1.2+1640
 _ZN5nidas5dynld4isff10WindTilter13computeMatrixEv@Base 1.2+1640
 _ZN5nidas5dynld4isff10WindTilterC1Ev@Base 1.2+1640
 _ZN5nidas5dynld4isff10WindTilterC2Ev@Base 1.2+1640
 _ZN5nidas5dynld4isff10WisardMote10_typeNamesB5cxx11E@Base 1.2+1640
 _ZN5nidas5dynld4isff10WisardMote10_unpackMapE@Base 1.2+1640
 _ZN5nidas5dynld4isff10WisardMote10fromLittleE@Base 1.2+1640
 _ZN5nidas5dynld4isff10WisardMote10readMoteIdERPKcS4_@Base 1.2+1640
 _ZN5nidas5dynld4isff10WisardMote10unpackCNR2EPKcS4_jPKNS2_13MessageHeaderEPNS_4core9SampleTagEPNS8_7SampleTIfEE@Base 1.2+1640
 _ZN5nidas5dynld4isff10WisardMote10unpackNR01EPKcS4_jPKNS2_13MessageHeaderEPNS_4core9SampleTagEPNS8_7SampleTIfEE@Base 1.2+1640
 _ZN5nidas5dynld4isff10WisardMote10unpackRnetEPKcS4_jPKNS2_13MessageHeaderEPNS_4core9SampleTagEPNS8_7SampleTIfEE@Base 1.2+1640
 _ZN5nidas5dynld4isff10WisardMote10unpackRsw2EPKcS4_jPKNS2_13MessageHeaderEPNS_4core9SampleTagEPNS8_7SampleTIfEE@Base 1.2+1640
 _ZN5nidas5dynld4isff10WisardMote10unpackTP01EPKcS4_jPKNS2_13MessageHeaderEPNS_4core9SampleTagEPNS8_7SampleTIfEE@Base 1.2+1640
 _ZN5nidas5dynld4isff10WisardMote10unpackXbeeEPKcS4_jPKNS2_13MessageHeaderEPNS_4core9SampleTagEPNS8_7SampleTIfEE@Base 1.2+1640
 _ZN5nidas5dynld4isff10WisardMote11initFuncMapEv@Base 1.2+1640
 _ZN5nidas5dynld4isff10WisardMote11unpackGsoilEPKcS4_jPKNS2_13MessageHeaderEPNS_4core9SampleTagEPNS8_7SampleTIfEE@Base 1.2+1640
 _ZN5nidas5dynld4isff10WisardMote11unpackInt16EPKcS4_jPKNS2_13MessageHeaderEPNS_4core9SampleTagEPNS8_7SampleTIfEE@Base 1.2+1640
 _ZN5nidas5dynld4isff10WisardMote11unpackInt32EPKcS4_jPKNS2_13MessageHeaderEPNS_4core9SampleTagEPNS8_7SampleTIfEE@Base 1.2+1640
 _ZN5nidas5dynld4isff10WisardMote11unpackPowerEPKcS4_jPKNS2_13MessageHeaderEPNS_4core9SampleTagEPNS8_7SampleTIfEE@Base 1.2+1640
 _ZN5nidas5dynld4isff10WisardMote11unpackQsoilEPKcS4_jPKNS2_13MessageHeaderEPNS_4core9SampleTagEPNS8_7SampleTIfEE@Base 1.2+1640
 _ZN5nidas5dynld4isff10WisardMote11unpackRlwKZEPKcS4_jPKNS2_13MessageHeaderEPNS_4core9SampleTagEPNS8_7SampleTIfEE@Base 1.2+1640
 _ZN5nidas5dynld4isff10WisardMote11unpackTsoilEPKcS4_jPKNS2_13MessageHeaderEPNS_4core9SampleTagEPNS8_7SampleTIfEE@Base 1.2+1640
 _ZN5nidas5dynld4isff10WisardMote12unpackStatusEPKcS4_jPKNS2_13MessageHeaderEPNS_4core9SampleTagEPNS8_7SampleTIfEE@Base 1.2+1640
 _ZN5nidas5dynld4isff10WisardMote12unpackUint16EPKcS4_jPKNS2_13MessageHeaderEPNS_4core9SampleTagEPNS8_7SampleTIfEE@Base 1.2+1640
 _ZN5nidas5dynld4isff10WisardMote12unpackUint32EPKcS4_jPKNS2_13MessageHeaderEPNS_4core9SampleTagEPNS8_7SampleTIfEE@Base 1.2+1640
 _ZN5nidas5dynld4isff10WisardMote13unpack10thSecEPKcS4_jPKNS2_13MessageHeaderEPNS_4core9SampleTagEPNS8_7SampleTIfEE@Base 1.2+1640
 _ZN5nidas5dynld4isff10WisardMote13unpackPicTimeEPKcS4_jPKNS2_13MessageHeaderEPNS_4core9SampleTagEPNS8_7SampleTIfEE@Base 1.2+1640
 _ZN5nidas5dynld4isff10WisardMote14unpack100thSecEPKcS4_jPKNS2_13MessageHeaderEPNS_4core9SampleTagEPNS8_7SampleTIfEE@Base 1.2+1640
 _ZN5nidas5dynld4isff10WisardMote14unpackAccumSecEPKcS4_jPKNS2_13MessageHeaderEPNS_4core9SampleTagEPNS8_7SampleTIfEE@Base 1.2+1640
 _ZN5nidas5dynld4isff10WisardMote15createSampleTagERNS1_8SampInfoEii@Base 1.2+1640
 _ZN5nidas5dynld4isff10WisardMote16_functionsMappedE@Base 1.2+1640
 _ZN5nidas5dynld4isff10WisardMote16addMoteSampleTagEPNS_4core9SampleTagE@Base 1.2+1640
 _ZN5nidas5dynld4isff10WisardMote16createSampleTagsEPKNS_4core9SampleTagERKSt6vectorIiSaIiEERNSt7__cxx114listIPS4_SaISE_EEE@Base 1.2+1640
 _ZN5nidas5dynld4isff10WisardMote17_processorSensorsE@Base 1.2+1640
 _ZN5nidas5dynld4isff10WisardMote19unpackPicTimeFieldsEPKcS4_jPKNS2_13MessageHeaderEPNS_4core9SampleTagEPNS8_7SampleTIfEE@Base 1.2+1640
 _ZN5nidas5dynld4isff10WisardMote20addImpliedSampleTagsERKSt6vectorIiSaIiEE@Base 1.2+1640
 _ZN5nidas5dynld4isff10WisardMote20checkLessUsedSensorsEv@Base 1.2+1640
 _ZN5nidas5dynld4isff10WisardMote6_sampsE@Base 1.2+1640
 _ZN5nidas5dynld4isff10WisardMote7convertEPNS_4core9SampleTagEPNS3_7SampleTIfEEPf@Base 1.2+1640
 _ZN5nidas5dynld4isff10WisardMote7processEPKNS_4core6SampleERNSt7__cxx114listIS6_SaIS6_EEE@Base 1.2+1640
 _ZN5nidas5dynld4isff10WisardMote8checkCRCEPKcS4_x@Base 1.2+1640
 _ZN5nidas5dynld4isff10WisardMote8checkEOMEPKcS4_x@Base 1.2+1640
 _ZN5nidas5dynld4isff10WisardMote8readHeadERPKcS4_xPNS2_13MessageHeaderE@Base 1.2+1640
 _ZN5nidas5dynld4isff10WisardMote8validateEv@Base 1.2+1640
 _ZN5nidas5dynld4isff10WisardMote9unpackRlwEPKcS4_jPKNS2_13MessageHeaderEPNS_4core9SampleTagEPNS8_7SampleTIfEE@Base 1.2+1640
 _ZN5nidas5dynld4isff10WisardMote9unpackRswEPKcS4_jPKNS2_13MessageHeaderEPNS_4core9SampleTagEPNS8_7SampleTIfEE@Base 1.2+1640
 _ZN5nidas5dynld4isff10WisardMote9unpackTRHEPKcS4_jPKNS2_13MessageHeaderEPNS_4core9SampleTagEPNS8_7SampleTIfEE@Base 1.2+1640
 _ZN5nidas5dynld4isff10WisardMoteC1Ev@Base 1.2+1640
 _ZN5nidas5dynld4isff10WisardMoteC2Ev@Base 1.2+1640
 _ZN5nidas5dynld4isff10WisardMoteD0Ev@Base 1.2+1640
 _ZN5nidas5dynld4isff10WisardMoteD1Ev@Base 1.2+1640
 _ZN5nidas5dynld4isff10WisardMoteD2Ev@Base 1.2+1640
 _ZN5nidas5dynld4isff11CSAT3_Sonic10querySonicERiRcRNSt7__cxx1112basic_stringIcSt11char_traitsIcESaIcEEESB_S3_S3_@Base 1.2+1640
 _ZN5nidas5dynld4isff11CSAT3_Sonic12terminalModeEv@Base 1.2+1640
 _ZN5nidas5dynld4isff11CSAT3_Sonic15checkSampleTagsEv@Base 1.2+1640
 _ZN5nidas5dynld4isff11CSAT3_Sonic15getSerialNumberERKNSt7__cxx1112basic_stringIcSt11char_traitsIcESaIcEEERj@Base 1.2+1640
 _ZN5nidas5dynld4isff11CSAT3_Sonic15parseParametersEv@Base 1.2+1640
 _ZN5nidas5dynld4isff11CSAT3_Sonic15sendRateCommandB5cxx11EPKc@Base 1.2+1640
 _ZN5nidas5dynld4isff11CSAT3_Sonic25correctTcForPathCurvatureEffff@Base 1.2+1640
 _ZN5nidas5dynld4isff11CSAT3_Sonic4openEi@Base 1.2+1640
 _ZN5nidas5dynld4isff11CSAT3_Sonic7GAMMA_RE@Base 1.2+1640
 _ZN5nidas5dynld4isff11CSAT3_Sonic7processEPKNS_4core6SampleERNSt7__cxx114listIS6_SaIS6_EEE@Base 1.2+1640
 _ZN5nidas5dynld4isff11CSAT3_Sonic8dataModeEv@Base 1.2+1640
 _ZN5nidas5dynld4isff11CSAT3_SonicC1Ev@Base 1.2+1640
 _ZN5nidas5dynld4isff11CSAT3_SonicC2Ev@Base 1.2+1640
 _ZN5nidas5dynld4isff11CSAT3_SonicD0Ev@Base 1.2+1640
 _ZN5nidas5dynld4isff11CSAT3_SonicD1Ev@Base 1.2+1640
 _ZN5nidas5dynld4isff11CSAT3_SonicD2Ev@Base 1.2+1640
 _ZN5nidas5dynld4isff11CU_Coldwire17reportBadChecksumEv@Base 1.2+1640
 _ZN5nidas5dynld4isff11CU_Coldwire7processEPKNS_4core6SampleERNSt7__cxx114listIS6_SaIS6_EEE@Base 1.2+1640
 _ZN5nidas5dynld4isff11CU_Coldwire8checksumEPKhS4_@Base 1.2+1640
 _ZN5nidas5dynld4isff11CU_Coldwire8validateEv@Base 1.2+1640
 _ZN5nidas5dynld4isff11CU_ColdwireC1Ev@Base 1.2+1640
 _ZN5nidas5dynld4isff11CU_ColdwireC2Ev@Base 1.2+1640
 _ZN5nidas5dynld4isff11CU_ColdwireD0Ev@Base 1.2+1640
 _ZN5nidas5dynld4isff11CU_ColdwireD1Ev@Base 1.2+1640
 _ZN5nidas5dynld4isff11CU_ColdwireD2Ev@Base 1.2+1640
 _ZN5nidas5dynld4isff11WindRotator15setAngleDegreesEd@Base 1.2+1640
 _ZN5nidas5dynld4isff11WindRotatorC1Ev@Base 1.2+1640
 _ZN5nidas5dynld4isff11WindRotatorC2Ev@Base 1.2+1640
 _ZN5nidas5dynld4isff12WindOrienter14setOrientationERKNSt7__cxx1112basic_stringIcSt11char_traitsIcESaIcEEESA_@Base 1.2+1640
 _ZN5nidas5dynld4isff12WindOrienter15handleParameterEPKNS_4core9ParameterERKNSt7__cxx1112basic_stringIcSt11char_traitsIcESaIcEEE@Base 1.2+1640
 _ZN5nidas5dynld4isff12WindOrienter16applyOrientationEPf@Base 1.2+1640
 _ZN5nidas5dynld4isff12WindOrienterC1Ev@Base 1.2+1640
 _ZN5nidas5dynld4isff12WindOrienterC2Ev@Base 1.2+1640
 _ZN5nidas5dynld4isff13GroundStationC1Ev@Base 1.2+1640
 _ZN5nidas5dynld4isff13GroundStationC2Ev@Base 1.2+1640
 _ZN5nidas5dynld4isff13GroundStationD0Ev@Base 1.2+1640
 _ZN5nidas5dynld4isff13GroundStationD1Ev@Base 1.2+1640
 _ZN5nidas5dynld4isff13GroundStationD2Ev@Base 1.2+1640
 _ZN5nidas5dynld4isff14CSI_CRX_Binary12reportBadCRCEv@Base 1.2+1640
 _ZN5nidas5dynld4isff14CSI_CRX_Binary7processEPKNS_4core6SampleERNSt7__cxx114listIS6_SaIS6_EEE@Base 1.2+1640
 _ZN5nidas5dynld4isff14CSI_CRX_Binary8validateEv@Base 1.2+1640
 _ZN5nidas5dynld4isff14CSI_CRX_Binary9signatureEPKhS4_@Base 1.2+1640
 _ZN5nidas5dynld4isff14CSI_CRX_BinaryC1Ev@Base 1.2+1640
 _ZN5nidas5dynld4isff14CSI_CRX_BinaryC2Ev@Base 1.2+1640
 _ZN5nidas5dynld4isff14CSI_CRX_BinaryD0Ev@Base 1.2+1640
 _ZN5nidas5dynld4isff14CSI_CRX_BinaryD1Ev@Base 1.2+1640
 _ZN5nidas5dynld4isff14CSI_CRX_BinaryD2Ev@Base 1.2+1640
 _ZN5nidas5dynld4isff14CSI_IRGA_Sonic12reportBadCRCEv@Base 1.2+1640
 _ZN5nidas5dynld4isff14CSI_IRGA_Sonic15checkSampleTagsEv@Base 1.2+1640
 _ZN5nidas5dynld4isff14CSI_IRGA_Sonic15parseParametersEv@Base 1.2+1640
 _ZN5nidas5dynld4isff14CSI_IRGA_Sonic4openEi@Base 1.2+1640
 _ZN5nidas5dynld4isff14CSI_IRGA_Sonic7processEPKNS_4core6SampleERNSt7__cxx114listIS6_SaIS6_EEE@Base 1.2+1640
 _ZN5nidas5dynld4isff14CSI_IRGA_Sonic9signatureEPKhS4_@Base 1.2+1640
 _ZN5nidas5dynld4isff14CSI_IRGA_SonicC1Ev@Base 1.2+1640
 _ZN5nidas5dynld4isff14CSI_IRGA_SonicC2Ev@Base 1.2+1640
 _ZN5nidas5dynld4isff14CSI_IRGA_SonicD0Ev@Base 1.2+1640
 _ZN5nidas5dynld4isff14CSI_IRGA_SonicD1Ev@Base 1.2+1640
 _ZN5nidas5dynld4isff14CSI_IRGA_SonicD2Ev@Base 1.2+1640
 _ZN5nidas5dynld4isff15SonicAnemometerD0Ev@Base 1.2+1640
 _ZN5nidas5dynld4isff15SonicAnemometerD1Ev@Base 1.2+1640
 _ZN5nidas5dynld4isff15SonicAnemometerD2Ev@Base 1.2+1640
 _ZN5nidas5dynld4isff5metek14Apply3DCorrectEPf@Base 1.2+1640
 _ZN5nidas5dynld4isff5metek14Apply3DCorrectERNS2_4uvwtE@Base 1.2+1640
 _ZN5nidas5dynld4isff5metek14CalcCorrectionEPddPA7_Kd@Base 1.2+1640
 _ZN5nidas5dynld4isff5metek18CorrectTemperatureERNS2_4uvwtE@Base 1.2+1640
 _ZN5nidas5dynld4isff5metek19Remove2DCorrectionsERNS2_4uvwtE@Base 1.2+1640
 _ZN5nidas5dynld4isff6Wind2D10setDirNameERKNSt7__cxx1112basic_stringIcSt11char_traitsIcESaIcEEE@Base 1.2+1640
 _ZN5nidas5dynld4isff6Wind2D12setSpeedNameERKNSt7__cxx1112basic_stringIcSt11char_traitsIcESaIcEEE@Base 1.2+1640
 _ZN5nidas5dynld4isff6Wind2D14fromDOMElementEPKN11xercesc_3_210DOMElementE@Base 1.2+1640
 _ZN5nidas5dynld4isff6Wind2D15validateSscanfsEv@Base 1.2+1640
 _ZN5nidas5dynld4isff6Wind2D7processEPKNS_4core6SampleERNSt7__cxx114listIS6_SaIS6_EEE@Base 1.2+1640
 _ZN5nidas5dynld4isff6Wind2D8setUNameERKNSt7__cxx1112basic_stringIcSt11char_traitsIcESaIcEEE@Base 1.2+1640
 _ZN5nidas5dynld4isff6Wind2D8setVNameERKNSt7__cxx1112basic_stringIcSt11char_traitsIcESaIcEEE@Base 1.2+1640
 _ZN5nidas5dynld4isff6Wind2D8validateEv@Base 1.2+1640
 _ZN5nidas5dynld4isff6Wind2DC1Ev@Base 1.2+1640
 _ZN5nidas5dynld4isff6Wind2DC2Ev@Base 1.2+1640
 _ZN5nidas5dynld4isff6Wind2DD0Ev@Base 1.2+1640
 _ZN5nidas5dynld4isff6Wind2DD1Ev@Base 1.2+1640
 _ZN5nidas5dynld4isff6Wind2DD2Ev@Base 1.2+1640
 _ZN5nidas5dynld4isff6Wind3D15checkSampleTagsEv@Base 1.2+1640
 _ZN5nidas5dynld4isff6Wind3D15parseParametersEv@Base 1.2+1640
 _ZN5nidas5dynld4isff6Wind3D15validateSscanfsEv@Base 1.2+1640
 _ZN5nidas5dynld4isff6Wind3D16applyOrientationExPf@Base 1.2+1640
 _ZN5nidas5dynld4isff6Wind3D20offsetsTiltAndRotateExPf@Base 1.2+1640
 _ZN5nidas5dynld4isff6Wind3D21getTransducerRotationEx@Base 1.2+1640
 _ZN5nidas5dynld4isff6Wind3D24readOffsetsAnglesCalFileEx@Base 1.2+1640
 _ZN5nidas5dynld4isff6Wind3D26transducerShadowCorrectionExPf@Base 1.2+1640
 _ZN5nidas5dynld4isff6Wind3D7despikeExPfiPb@Base 1.2+1640
 _ZN5nidas5dynld4isff6Wind3D7processEPKNS_4core6SampleERNSt7__cxx114listIS6_SaIS6_EEE@Base 1.2+1640
 _ZN5nidas5dynld4isff6Wind3D7setBiasEid@Base 1.2+1640
 _ZN5nidas5dynld4isff6Wind3D8validateEv@Base 1.2+1640
 _ZN5nidas5dynld4isff6Wind3DC1Ev@Base 1.2+1640
 _ZN5nidas5dynld4isff6Wind3DC2Ev@Base 1.2+1640
 _ZN5nidas5dynld4isff6Wind3DD0Ev@Base 1.2+1640
 _ZN5nidas5dynld4isff6Wind3DD1Ev@Base 1.2+1640
 _ZN5nidas5dynld4isff6Wind3DD2Ev@Base 1.2+1640
 _ZN5nidas5dynld4isff7MOSMote14MOS_TimeSyncer12looperNotifyEv@Base 1.2+1640
 _ZN5nidas5dynld4isff7MOSMote14MOS_TimeSyncerD0Ev@Base 1.2+1640
 _ZN5nidas5dynld4isff7MOSMote14MOS_TimeSyncerD1Ev@Base 1.2+1640
 _ZN5nidas5dynld4isff7MOSMote14MOS_TimeSyncerD2Ev@Base 1.2+1640
 _ZN5nidas5dynld4isff7MOSMote4openEi@Base 1.2+1640
 _ZN5nidas5dynld4isff7MOSMote5closeEv@Base 1.2+1640
 _ZN5nidas5dynld4isff7MOSMote7processEPKNS_4core6SampleERNSt7__cxx114listIS6_SaIS6_EEE@Base 1.2+1640
 _ZN5nidas5dynld4isff7MOSMoteC1Ev@Base 1.2+1640
 _ZN5nidas5dynld4isff7MOSMoteC2Ev@Base 1.2+1640
 _ZN5nidas5dynld4isff7MOSMoteD0Ev@Base 1.2+1640
 _ZN5nidas5dynld4isff7MOSMoteD1Ev@Base 1.2+1640
 _ZN5nidas5dynld4isff7MOSMoteD2Ev@Base 1.2+1640
 _ZN5nidas5dynld4isff8NCAR_TRH10handleRawTEPNS_4core7CalFileE@Base 1.2+1640
 _ZN5nidas5dynld4isff8NCAR_TRH10ifanFilterERNSt7__cxx114listIPKNS_4core6SampleESaIS8_EEE@Base 1.2+1640
 _ZN5nidas5dynld4isff8NCAR_TRH11convertNextERKNS_4core13VariableIndexE@Base 1.2+1640
 _ZN5nidas5dynld4isff8NCAR_TRH11handleRawRHEPNS_4core7CalFileE@Base 1.2+1640
 _ZN5nidas5dynld4isff8NCAR_TRH11tempFromRawEd@Base 1.2+1640
 _ZN5nidas5dynld4isff8NCAR_TRH15convertVariableEPNS_4core7SampleTIfEEPNS3_8VariableEPf@Base 1.2+1640
 _ZN5nidas5dynld4isff8NCAR_TRH20getRawRHCoefficientsEv@Base 1.2+1640
 _ZN5nidas5dynld4isff8NCAR_TRH20setRawRHCoefficientsEPfS3_@Base 1.2+1640
 _ZN5nidas5dynld4isff8NCAR_TRH22getRawTempCoefficientsEv@Base 1.2+1640
 _ZN5nidas5dynld4isff8NCAR_TRH22setRawTempCoefficientsEPfS3_@Base 1.2+1640
 _ZN5nidas5dynld4isff8NCAR_TRH7processEPKNS_4core6SampleERNSt7__cxx114listIS6_SaIS6_EEE@Base 1.2+1640
 _ZN5nidas5dynld4isff8NCAR_TRH8validateEv@Base 1.2+1640
 _ZN5nidas5dynld4isff8NCAR_TRH9rhFromRawEdd@Base 1.2+1640
 _ZN5nidas5dynld4isff8NCAR_TRHC1Ev@Base 1.2+1640
 _ZN5nidas5dynld4isff8NCAR_TRHC2Ev@Base 1.2+1640
 _ZN5nidas5dynld4isff8NCAR_TRHD0Ev@Base 1.2+1640
 _ZN5nidas5dynld4isff8NCAR_TRHD1Ev@Base 1.2+1640
 _ZN5nidas5dynld4isff8NCAR_TRHD2Ev@Base 1.2+1640
 _ZN5nidas5dynld4isff8PropVaneD0Ev@Base 1.2+1640
 _ZN5nidas5dynld4isff8PropVaneD1Ev@Base 1.2+1640
 _ZN5nidas5dynld4isff8PropVaneD2Ev@Base 1.2+1640
 _ZN5nidas5dynld4isff9DAUSensor12addSampleTagEPNS_4core9SampleTagE@Base 1.2+1640
 _ZN5nidas5dynld4isff9DAUSensor14fromDOMElementEPKN11xercesc_3_210DOMElementE@Base 1.2+1640
 _ZN5nidas5dynld4isff9DAUSensor4initEv@Base 1.2+1640
 _ZN5nidas5dynld4isff9DAUSensor7processEPKNS_4core6SampleERNSt7__cxx114listIS6_SaIS6_EEE@Base 1.2+1640
 _ZN5nidas5dynld4isff9DAUSensorC1Ev@Base 1.2+1640
 _ZN5nidas5dynld4isff9DAUSensorC2Ev@Base 1.2+1640
 _ZN5nidas5dynld4isff9DAUSensorD0Ev@Base 1.2+1640
 _ZN5nidas5dynld4isff9DAUSensorD1Ev@Base 1.2+1640
 _ZN5nidas5dynld4isff9DAUSensorD2Ev@Base 1.2+1640
 _ZN5nidas5dynld4isff9Licor75007processEPKNS_4core6SampleERNSt7__cxx114listIS6_SaIS6_EEE@Base 1.2+1640
 _ZN5nidas5dynld4isff9Licor75008validateEv@Base 1.2+1640
 _ZN5nidas5dynld4isff9Licor7500C1Ev@Base 1.2+1640
 _ZN5nidas5dynld4isff9Licor7500C2Ev@Base 1.2+1640
 _ZN5nidas5dynld4isff9Licor7500D0Ev@Base 1.2+1640
 _ZN5nidas5dynld4isff9Licor7500D1Ev@Base 1.2+1640
 _ZN5nidas5dynld4isff9Licor7500D2Ev@Base 1.2+1640
 _ZN5nidas5dynld5Uio484openERKNSt7__cxx1112basic_stringIcSt11char_traitsIcESaIcEEE@Base 1.2+1640
 _ZN5nidas5dynld5Uio485closeEv@Base 1.2+1640
 _ZN5nidas5dynld5Uio487getPinsEv@Base 1.2+1640
 _ZN5nidas5dynld5Uio487setPinsERKNS_4util8BitArrayE@Base 1.2+1640
 _ZN5nidas5dynld5Uio487setPinsERKNS_4util8BitArrayES5_@Base 1.2+1640
 _ZN5nidas5dynld5Uio489clearPinsERKNS_4util8BitArrayE@Base 1.2+1640
 _ZN5nidas5dynld5Uio48C1Ei@Base 1.2+1640
 _ZN5nidas5dynld5Uio48C2Ei@Base 1.2+1640
 _ZN5nidas5dynld5Uio48D1Ev@Base 1.2+1640
 _ZN5nidas5dynld5Uio48D2Ev@Base 1.2+1640
 _ZN5nidas5dynld7FileSetD0Ev@Base 1.2+1640
 _ZN5nidas5dynld7FileSetD1Ev@Base 1.2+1640
 _ZN5nidas5dynld7FileSetD2Ev@Base 1.2+1640
 _ZN5nidas5dynld8ViperDIO10getOutputsEv@Base 1.2+1640
 _ZN5nidas5dynld8ViperDIO10setOutputsERKNS_4util8BitArrayE@Base 1.2+1640
 _ZN5nidas5dynld8ViperDIO10setOutputsERKNS_4util8BitArrayES5_@Base 1.2+1640
 _ZN5nidas5dynld8ViperDIO12clearOutputsERKNS_4util8BitArrayE@Base 1.2+1640
 _ZN5nidas5dynld8ViperDIO4openEv@Base 1.2+1640
 _ZN5nidas5dynld8ViperDIO5closeEv@Base 1.2+1640
 _ZN5nidas5dynld8ViperDIO9getInputsEv@Base 1.2+1640
 _ZN5nidas5dynld8ViperDIOC1Ev@Base 1.2+1640
 _ZN5nidas5dynld8ViperDIOC2Ev@Base 1.2+1640
 _ZN5nidas5dynld8ViperDIOD1Ev@Base 1.2+1640
 _ZN5nidas5dynld8ViperDIOD2Ev@Base 1.2+1640
 _ZN5nidas5dynld9A2DSensor14initParametersEv@Base 1.2+1640
 _ZN5nidas5dynld9A2DSensor15A2DBoxcarConfigD0Ev@Base 1.2+1640
 _ZN5nidas5dynld9A2DSensor15A2DBoxcarConfigD1Ev@Base 1.2+1640
 _ZN5nidas5dynld9A2DSensor15A2DBoxcarConfigD2Ev@Base 1.2+1640
 _ZN5nidas5dynld9A2DSensor15A2DSampleConfig3cfgEv@Base 1.2+1640
 _ZN5nidas5dynld9A2DSensor15A2DSampleConfigD0Ev@Base 1.2+1640
 _ZN5nidas5dynld9A2DSensor15A2DSampleConfigD1Ev@Base 1.2+1640
 _ZN5nidas5dynld9A2DSensor15A2DSampleConfigD2Ev@Base 1.2+1640
 _ZN5nidas5dynld9A2DSensor16A2DTimeAvgConfigD0Ev@Base 1.2+1640
 _ZN5nidas5dynld9A2DSensor16A2DTimeAvgConfigD1Ev@Base 1.2+1640
 _ZN5nidas5dynld9A2DSensor16A2DTimeAvgConfigD2Ev@Base 1.2+1640
 _ZN5nidas5dynld9A2DSensor16setA2DParametersEiii@Base 1.2+1640
 _ZN5nidas5dynld9A2DSensor23setConversionCorrectionEiff@Base 1.2+1640
 _ZN5nidas5dynld9A2DSensor4initEv@Base 1.2+1640
 _ZN5nidas5dynld9A2DSensor4openEi@Base 1.2+1640
 _ZN5nidas5dynld9A2DSensor5closeEv@Base 1.2+1640
 _ZN5nidas5dynld9A2DSensor7processEPKNS_4core6SampleERNSt7__cxx114listIS5_SaIS5_EEE@Base 1.2+1640
 _ZN5nidas5dynld9A2DSensor8validateEv@Base 1.2+1640
 _ZN5nidas5dynld9A2DSensorC1Ev@Base 1.2+1640
 _ZN5nidas5dynld9A2DSensorC2Ev@Base 1.2+1640
 _ZN5nidas5dynld9A2DSensorD0Ev@Base 1.2+1640
 _ZN5nidas5dynld9A2DSensorD1Ev@Base 1.2+1640
 _ZN5nidas5dynld9A2DSensorD2Ev@Base 1.2+1640
 _ZN5nidas5dynld9ChronyLog17printChronyStatusERSo@Base 1.2+1640
 _ZN5nidas5dynld9ChronyLog4initEv@Base 1.2+1640
 _ZN5nidas5dynld9ChronyLog7processEPKNS_4core6SampleERNSt7__cxx114listIS5_SaIS5_EEE@Base 1.2+1640
 _ZN5nidas5dynld9ChronyLogC1Ev@Base 1.2+1640
 _ZN5nidas5dynld9ChronyLogC2Ev@Base 1.2+1640
 _ZN5nidas5dynld9ChronyLogD0Ev@Base 1.2+1640
 _ZN5nidas5dynld9ChronyLogD1Ev@Base 1.2+1640
 _ZN5nidas5dynld9ChronyLogD2Ev@Base 1.2+1640
 _ZN5nidas5dynld9DSC_Event11printStatusERSo@Base 1.2+1640
 _ZN5nidas5dynld9DSC_Event13buildIODeviceEv@Base 1.2+1640
 _ZN5nidas5dynld9DSC_Event18buildSampleScannerEv@Base 1.2+1640
 _ZN5nidas5dynld9DSC_Event4initEv@Base 1.2+1640
 _ZN5nidas5dynld9DSC_Event4openEi@Base 1.2+1640
 _ZN5nidas5dynld9DSC_Event5closeEv@Base 1.2+1640
 _ZN5nidas5dynld9DSC_Event7processEPKNS_4core6SampleERNSt7__cxx114listIS5_SaIS5_EEE@Base 1.2+1640
 _ZN5nidas5dynld9DSC_EventC1Ev@Base 1.2+1640
 _ZN5nidas5dynld9DSC_EventC2Ev@Base 1.2+1640
 _ZN5nidas5dynld9DSC_EventD0Ev@Base 1.2+1640
 _ZN5nidas5dynld9DSC_EventD1Ev@Base 1.2+1640
 _ZN5nidas5dynld9DSC_EventD2Ev@Base 1.2+1640
 _ZN5nidas5dynld9ModbusRTU12ModbusThread3runEv@Base 1.2+1640
 _ZN5nidas5dynld9ModbusRTU12ModbusThreadD0Ev@Base 1.2+1640
 _ZN5nidas5dynld9ModbusRTU12ModbusThreadD1Ev@Base 1.2+1640
 _ZN5nidas5dynld9ModbusRTU12ModbusThreadD2Ev@Base 1.2+1640
 _ZN5nidas5dynld9ModbusRTU13buildIODeviceEv@Base 1.2+1640
 _ZN5nidas5dynld9ModbusRTU14ModbusIODevice4openEi@Base 1.2+1640
 _ZN5nidas5dynld9ModbusRTU14ModbusIODeviceD0Ev@Base 1.2+1640
 _ZN5nidas5dynld9ModbusRTU14ModbusIODeviceD1Ev@Base 1.2+1640
 _ZN5nidas5dynld9ModbusRTU14ModbusIODeviceD2Ev@Base 1.2+1640
 _ZN5nidas5dynld9ModbusRTU18buildSampleScannerEv@Base 1.2+1640
 _ZN5nidas5dynld9ModbusRTU26ModbusMessageStreamScanner16nextSampleSepBOMEPNS_4core9DSMSensorE@Base 1.2+1640
 _ZN5nidas5dynld9ModbusRTU26ModbusMessageStreamScannerD0Ev@Base 1.2+1640
 _ZN5nidas5dynld9ModbusRTU26ModbusMessageStreamScannerD1Ev@Base 1.2+1640
 _ZN5nidas5dynld9ModbusRTU26ModbusMessageStreamScannerD2Ev@Base 1.2+1640
 _ZN5nidas5dynld9ModbusRTU4initEv@Base 1.2+1640
 _ZN5nidas5dynld9ModbusRTU4openEi@Base 1.2+1640
 _ZN5nidas5dynld9ModbusRTU5closeEv@Base 1.2+1640
 _ZN5nidas5dynld9ModbusRTU7processEPKNS_4core6SampleERNSt7__cxx114listIS5_SaIS5_EEE@Base 1.2+1640
 _ZN5nidas5dynld9ModbusRTU8validateEv@Base 1.2+1640
 _ZN5nidas5dynld9ModbusRTUC1Ev@Base 1.2+1640
 _ZN5nidas5dynld9ModbusRTUC2Ev@Base 1.2+1640
 _ZN5nidas5dynld9ModbusRTUD0Ev@Base 1.2+1640
 _ZN5nidas5dynld9ModbusRTUD1Ev@Base 1.2+1640
 _ZN5nidas5dynld9ModbusRTUD2Ev@Base 1.2+1640
 _ZN5nidas5dynld9WxtSensor10scanSampleEPNS_4core11AsciiSscanfEPKcPf@Base 1.2+1640
 _ZN5nidas5dynld9WxtSensor15validateSscanfsEv@Base 1.2+1640
 _ZN5nidas5dynld9WxtSensor18wxtValidateSscanfsEv@Base 1.2+1640
 _ZN5nidas5dynld9WxtSensor4initEv@Base 1.2+1640
 _ZN5nidas5dynld9WxtSensor7processEPKNS_4core6SampleERNSt7__cxx114listIS5_SaIS5_EEE@Base 1.2+1640
 _ZN5nidas5dynld9WxtSensor8setUNameERKNSt7__cxx1112basic_stringIcSt11char_traitsIcESaIcEEE@Base 1.2+1640
 _ZN5nidas5dynld9WxtSensor8setVNameERKNSt7__cxx1112basic_stringIcSt11char_traitsIcESaIcEEE@Base 1.2+1640
 _ZN5nidas5dynld9WxtSensorC1Ev@Base 1.2+1640
 _ZN5nidas5dynld9WxtSensorC2Ev@Base 1.2+1640
 _ZN5nidas5dynld9WxtSensorD0Ev@Base 1.2+1640
 _ZN5nidas5dynld9WxtSensorD1Ev@Base 1.2+1640
 _ZN5nidas5dynld9WxtSensorD2Ev@Base 1.2+1640
 _ZN6XmlRpc11XmlRpcValueC1ERKNSt7__cxx1112basic_stringIcSt11char_traitsIcESaIcEEE@Base 1.2+1640
 _ZN6XmlRpc11XmlRpcValueC2ERKNSt7__cxx1112basic_stringIcSt11char_traitsIcESaIcEEE@Base 1.2+1640
 _ZN6XmlRpc11XmlRpcValueixEPKc@Base 1.2+1640
 _ZNK5nidas4core10DSMService12getDSMServerEv@Base 1.2+1640
 _ZNK5nidas4core10DSMService13getProcessorsB5cxx11Ev@Base 1.2+1640
 _ZNK5nidas4core10ParameterTINSt7__cxx1112basic_stringIcSt11char_traitsIcESaIcEEEE9getLengthEv@Base 1.2+1640
 _ZNK5nidas4core10SamplePoolINS0_7SampleTIcEEE14getNSamplesOutEv@Base 1.2+1640
 _ZNK5nidas4core10SamplePoolINS0_7SampleTIcEEE16getNSamplesAllocEv@Base 1.2+1640
 _ZNK5nidas4core10SamplePoolINS0_7SampleTIcEEE18getNLargeSamplesInEv@Base 1.2+1640
 _ZNK5nidas4core10SamplePoolINS0_7SampleTIcEEE18getNSmallSamplesInEv@Base 1.2+1640
 _ZNK5nidas4core10SamplePoolINS0_7SampleTIcEEE19getNMediumSamplesInEv@Base 1.2+1640
 _ZNK5nidas4core10SamplePoolINS0_7SampleTIdEEE14getNSamplesOutEv@Base 1.2+1640
 _ZNK5nidas4core10SamplePoolINS0_7SampleTIdEEE16getNSamplesAllocEv@Base 1.2+1640
 _ZNK5nidas4core10SamplePoolINS0_7SampleTIdEEE18getNLargeSamplesInEv@Base 1.2+1640
 _ZNK5nidas4core10SamplePoolINS0_7SampleTIdEEE18getNSmallSamplesInEv@Base 1.2+1640
 _ZNK5nidas4core10SamplePoolINS0_7SampleTIdEEE19getNMediumSamplesInEv@Base 1.2+1640
 _ZNK5nidas4core10SamplePoolINS0_7SampleTIfEEE14getNSamplesOutEv@Base 1.2+1640
 _ZNK5nidas4core10SamplePoolINS0_7SampleTIfEEE16getNSamplesAllocEv@Base 1.2+1640
 _ZNK5nidas4core10SamplePoolINS0_7SampleTIfEEE18getNLargeSamplesInEv@Base 1.2+1640
 _ZNK5nidas4core10SamplePoolINS0_7SampleTIfEEE18getNSmallSamplesInEv@Base 1.2+1640
 _ZNK5nidas4core10SamplePoolINS0_7SampleTIfEEE19getNMediumSamplesInEv@Base 1.2+1640
 _ZNK5nidas4core10SamplePoolINS0_7SampleTIjEEE14getNSamplesOutEv@Base 1.2+1640
 _ZNK5nidas4core10SamplePoolINS0_7SampleTIjEEE16getNSamplesAllocEv@Base 1.2+1640
 _ZNK5nidas4core10SamplePoolINS0_7SampleTIjEEE18getNLargeSamplesInEv@Base 1.2+1640
 _ZNK5nidas4core10SamplePoolINS0_7SampleTIjEEE18getNSmallSamplesInEv@Base 1.2+1640
 _ZNK5nidas4core10SamplePoolINS0_7SampleTIjEEE19getNMediumSamplesInEv@Base 1.2+1640
 _ZNK5nidas4core11McSocketUDP7getNameB5cxx11Ev@Base 1.2+1640
 _ZNK5nidas4core12Bzip2FileSet5cloneEv@Base 1.2+1640
 _ZNK5nidas4core12SampleSorter10getHeapMaxEv@Base 1.2+1640
 _ZNK5nidas4core12SampleSorter11getHeapSizeEv@Base 1.2+1640
 _ZNK5nidas4core12SampleSorter19getNumFutureSamplesEv@Base 1.2+1640
 _ZNK5nidas4core12SampleSorter22getNumDiscardedSamplesEv@Base 1.2+1640
 _ZNK5nidas4core12SampleSorter4sizeEv@Base 1.2+1640
 _ZNK5nidas4core12SerialSensor11isPromptingEv@Base 1.2+1640
 _ZNK5nidas4core12UnixIODevice10getWriteFdEv@Base 1.2+1640
 _ZNK5nidas4core12UnixIODevice9getReadFdEv@Base 1.2+1640
 _ZNK5nidas4core12XMLException5cloneEv@Base 1.2+1640
 _ZNK5nidas4core13UnixIOChannel7getNameB5cxx11Ev@Base 1.2+1640
 _ZNK5nidas4core15CharacterSensor10isPromptedEv@Base 1.2+1640
 _ZNK5nidas4core15CharacterSensor11isPromptingEv@Base 1.2+1640
 _ZNK5nidas4core16SampleOutputBase10getLatencyEv@Base 1.2+1640
 _ZNK5nidas4core16SampleOutputBase11getOriginalEv@Base 1.2+1640
 _ZNK5nidas4core16SampleOutputBase12getDSMConfigEv@Base 1.2+1640
 _ZNK5nidas4core16SampleOutputBase12getIOChannelEv@Base 1.2+1640
 _ZNK5nidas4core16SampleOutputBase5isRawEv@Base 1.2+1640
 _ZNK5nidas4core16SampleOutputBase7getNameB5cxx11Ev@Base 1.2+1640
 _ZNK5nidas4core17SampleIOProcessor10getOutputsB5cxx11Ev@Base 1.2+1640
 _ZNK5nidas4core17SampleIOProcessor10getServiceEv@Base 1.2+1640
 _ZNK5nidas4core17SampleIOProcessor10isOptionalEv@Base 1.2+1640
 _ZNK5nidas4core17SampleIOProcessor12getDSMConfigEv@Base 1.2+1640
 _ZNK5nidas4core17SampleIOProcessor13getSampleTagsB5cxx11Ev@Base 1.2+1640
 _ZNK5nidas4core17SampleIOProcessor14getClientCountEv@Base 1.2+1640
 _ZNK5nidas4core17SampleIOProcessor14getSampleStatsEv@Base 1.2+1640
 _ZNK5nidas4core17SampleIOProcessor20getSampleTagIteratorEv@Base 1.2+1640
 _ZNK5nidas4core17TCPSocketIODevice10getWriteFdEv@Base 1.2+1640
 _ZNK5nidas4core17TCPSocketIODevice9getReadFdEv@Base 1.2+1640
 _ZNK5nidas4core17UDPSocketIODevice10getWriteFdEv@Base 1.2+1640
 _ZNK5nidas4core17UDPSocketIODevice9getReadFdEv@Base 1.2+1640
 _ZNK5nidas4core17VariableConverter8getUnitsB5cxx11Ev@Base 1.2+1640
 _ZNK5nidas4core20MessageStreamScanner16getMessageLengthEv@Base 1.2+1640
 _ZNK5nidas4core20MessageStreamScanner16getNullTerminateEv@Base 1.2+1640
 _ZNK5nidas4core20MessageStreamScanner19getMessageSeparatorB5cxx11Ev@Base 1.2+1640
 _ZNK5nidas4core20MessageStreamScanner24getMessageSeparatorAtEOMEv@Base 1.2+1640
 _ZNK5nidas4core20ServerSocketIODevice10getWriteFdEv@Base 1.2+1640
 _ZNK5nidas4core20ServerSocketIODevice9getReadFdEv@Base 1.2+1640
 _ZNK5nidas4core21SampleLengthException5cloneEv@Base 1.2+1640
 _ZNK5nidas4core4Site27getApplyVariableConversionsEv@Base 1.2+1640
 _ZNK5nidas4core7FileSet10isNewInputEv@Base 1.2+1640
 _ZNK5nidas4core7FileSet13isNonBlockingEv@Base 1.2+1640
 _ZNK5nidas4core7FileSet21getReconnectDelaySecsEv@Base 1.2+1640
 _ZNK5nidas4core7FileSet5cloneEv@Base 1.2+1640
 _ZNK5nidas4core7FileSet5getFdEv@Base 1.2+1640
 _ZNK5nidas4core7SampleTIcE12getDataValueEj@Base 1.2+1640
 _ZNK5nidas4core7SampleTIcE13freeReferenceEv@Base 1.2+1640
 _ZNK5nidas4core7SampleTIcE13getDataLengthEv@Base 1.2+1640
 _ZNK5nidas4core7SampleTIcE14getAllocLengthEv@Base 1.2+1640
 _ZNK5nidas4core7SampleTIcE18getAllocByteLengthEv@Base 1.2+1640
 _ZNK5nidas4core7SampleTIcE19getConstVoidDataPtrEv@Base 1.2+1640
 _ZNK5nidas4core7SampleTIcE7getTypeEv@Base 1.2+1640
 _ZNK5nidas4core7SampleTIdE12getDataValueEj@Base 1.2+1640
 _ZNK5nidas4core7SampleTIdE13freeReferenceEv@Base 1.2+1640
 _ZNK5nidas4core7SampleTIdE13getDataLengthEv@Base 1.2+1640
 _ZNK5nidas4core7SampleTIdE14getAllocLengthEv@Base 1.2+1640
 _ZNK5nidas4core7SampleTIdE18getAllocByteLengthEv@Base 1.2+1640
 _ZNK5nidas4core7SampleTIdE19getConstVoidDataPtrEv@Base 1.2+1640
 _ZNK5nidas4core7SampleTIdE7getTypeEv@Base 1.2+1640
 _ZNK5nidas4core7SampleTIfE12getDataValueEj@Base 1.2+1640
 _ZNK5nidas4core7SampleTIfE13freeReferenceEv@Base 1.2+1640
 _ZNK5nidas4core7SampleTIfE13getDataLengthEv@Base 1.2+1640
 _ZNK5nidas4core7SampleTIfE14getAllocLengthEv@Base 1.2+1640
 _ZNK5nidas4core7SampleTIfE18getAllocByteLengthEv@Base 1.2+1640
 _ZNK5nidas4core7SampleTIfE19getConstVoidDataPtrEv@Base 1.2+1640
 _ZNK5nidas4core7SampleTIfE7getTypeEv@Base 1.2+1640
 _ZNK5nidas4core7SampleTIjE12getDataValueEj@Base 1.2+1640
 _ZNK5nidas4core7SampleTIjE13freeReferenceEv@Base 1.2+1640
 _ZNK5nidas4core7SampleTIjE13getDataLengthEv@Base 1.2+1640
 _ZNK5nidas4core7SampleTIjE14getAllocLengthEv@Base 1.2+1640
 _ZNK5nidas4core7SampleTIjE18getAllocByteLengthEv@Base 1.2+1640
 _ZNK5nidas4core7SampleTIjE19getConstVoidDataPtrEv@Base 1.2+1640
 _ZNK5nidas4core7SampleTIjE7getTypeEv@Base 1.2+1640
 _ZNK5nidas4core8IODevice17getBytesAvailableEv@Base 1.2+1640
 _ZNK5nidas4core8IODevice7getNameB5cxx11Ev@Base 1.2+1640
 _ZNK5nidas4core8McSocket7getNameB5cxx11Ev@Base 1.2+1640
 _ZNK5nidas4core9DSMSensor10getLagSecsEv@Base 1.2+1640
 _ZNK5nidas4core9DSMSensor10getLatencyEv@Base 1.2+1640
 _ZNK5nidas4core9DSMSensor10getWriteFdEv@Base 1.2+1640
 _ZNK5nidas4core9DSMSensor11getLagUsecsEv@Base 1.2+1640
 _ZNK5nidas4core9DSMSensor11getTypeNameB5cxx11Ev@Base 1.2+1640
 _ZNK5nidas4core9DSMSensor12getClassNameB5cxx11Ev@Base 1.2+1640
 _ZNK5nidas4core9DSMSensor13getDeviceNameB5cxx11Ev@Base 1.2+1640
 _ZNK5nidas4core9DSMSensor13getSampleTagsB5cxx11Ev@Base 1.2+1640
 _ZNK5nidas4core9DSMSensor14getCatalogNameB5cxx11Ev@Base 1.2+1640
 _ZNK5nidas4core9DSMSensor14getClientCountEv@Base 1.2+1640
 _ZNK5nidas4core9DSMSensor14getDefaultModeEv@Base 1.2+1640
 _ZNK5nidas4core9DSMSensor14getSampleStatsEv@Base 1.2+1640
 _ZNK5nidas4core9DSMSensor15getTimeoutMsecsEv@Base 1.2+1640
 _ZNK5nidas4core9DSMSensor17getBytesAvailableEv@Base 1.2+1640
 _ZNK5nidas4core9DSMSensor19reopenOnIOExceptionEv@Base 1.2+1640
 _ZNK5nidas4core9DSMSensor20getSampleTagIteratorEv@Base 1.2+1640
 _ZNK5nidas4core9DSMSensor21getDriverTimeTagUsecsEv@Base 1.2+1640
 _ZNK5nidas4core9DSMSensor27getApplyVariableConversionsEv@Base 1.2+1640
 _ZNK5nidas4core9DSMSensor7getNameB5cxx11Ev@Base 1.2+1640
 _ZNK5nidas4core9DSMSensor9getReadFdEv@Base 1.2+1640
 _ZNK5nidas4core9IOChannel10isNewInputEv@Base 1.2+1640
 _ZNK5nidas4core9IOChannel12getDSMConfigEv@Base 1.2+1640
 _ZNK5nidas4core9IOChannel13getBufferSizeEv@Base 1.2+1640
 _ZNK5nidas4core9IOChannel14getRequestTypeEv@Base 1.2+1640
 _ZNK5nidas4core9IOChannel16writeNidasHeaderEv@Base 1.2+1640
 _ZNK5nidas4core9IOChannel17getConnectionInfoEv@Base 1.2+1640
 _ZNK5nidas4core9IOChannel21getReconnectDelaySecsEv@Base 1.2+1640
 _ZNK5nidas4core9SampleTag7getRateEv@Base 1.2+1640
 _ZNK5nidas4core9SampleTag9getPeriodEv@Base 1.2+1640
 _ZNK5nidas4util10LogContext3logEv@Base 1.2+1640
 _ZNK5nidas4util11IOException5cloneEv@Base 1.2+1640
 _ZNK5nidas4util15Inet4PacketInfo12getInterfaceEv@Base 1.2+1640
 _ZNK5nidas4util15Inet4PacketInfo15getLocalAddressEv@Base 1.2+1640
 _ZNK5nidas4util15Inet4PacketInfo21getDestinationAddressEv@Base 1.2+1640
 _ZNK5nidas4util15Inet4PacketInfo8getFlagsEv@Base 1.2+1640
 _ZNK5nidas4util25InvalidParameterException5cloneEv@Base 1.2+1640
 _ZNK5nidas4util6Thread10isDetachedEv@Base 1.2+1640
 _ZNK5nidas4util6Thread13isInterruptedEv@Base 1.2+1640
 _ZNK5nidas4util6Thread8isJoinedEv@Base 1.2+1640
 _ZNK5nidas4util6Thread9isRunningEv@Base 1.2+1640
 _ZNK5nidas4util9Exception4whatEv@Base 1.2+1640
 _ZNK5nidas4util9Exception5cloneEv@Base 1.2+1640
 _ZNK5nidas4util9Exception8getErrnoEv@Base 1.2+1640
 _ZNK5nidas4util9Exception8toStringB5cxx11Ev@Base 1.2+1640
 _ZNK5nidas5dynld13DSC_A2DSensor17getMaxNumChannelsEv@Base 1.2+1640
 _ZNK5nidas5dynld13DSC_A2DSensor18getBasicConversionEiRfS2_@Base 1.2+1640
 _ZNK5nidas5dynld13DSC_AnalogOut13getMaxVoltageEi@Base 1.2+1640
 _ZNK5nidas5dynld13DSC_AnalogOut13getMinVoltageEi@Base 1.2+1640
 _ZNK5nidas5dynld15DSC_FreqCounter19calculatePeriodUsecEPKNS_4core6SampleE@Base 1.2+1640
 _ZNK5nidas5dynld15DSC_FreqCounter19calculatePeriodUsecEjj@Base 1.2+1640
 _ZNK5nidas5dynld16XMLConfigService14getRequestTypeEv@Base 1.2+1640
 _ZNK5nidas5dynld17SampleInputStream11getOriginalEv@Base 1.2+1640
 _ZNK5nidas5dynld17SampleInputStream12getDSMConfigEv@Base 1.2+1640
 _ZNK5nidas5dynld17SampleInputStream13getSampleTagsB5cxx11Ev@Base 1.2+1640
 _ZNK5nidas5dynld17SampleInputStream13isNonBlockingEv@Base 1.2+1640
 _ZNK5nidas5dynld17SampleInputStream14getClientCountEv@Base 1.2+1640
 _ZNK5nidas5dynld17SampleInputStream14getSampleStatsEv@Base 1.2+1640
 _ZNK5nidas5dynld17SampleInputStream20getSampleTagIteratorEv@Base 1.2+1640
 _ZNK5nidas5dynld17SampleInputStream5getFdEv@Base 1.2+1640
 _ZNK5nidas5dynld17SampleInputStream7getNameB5cxx11Ev@Base 1.2+1640
 _ZNK5nidas5dynld17WatchedFileSensor10getWriteFdEv@Base 1.2+1640
 _ZNK5nidas5dynld17WatchedFileSensor9getReadFdEv@Base 1.2+1640
 _ZNK5nidas5dynld18StatisticsCruncher13getSampleTagsB5cxx11Ev@Base 1.2+1640
 _ZNK5nidas5dynld18StatisticsCruncher14getClientCountEv@Base 1.2+1640
 _ZNK5nidas5dynld18StatisticsCruncher14getSampleStatsEv@Base 1.2+1640
 _ZNK5nidas5dynld18StatisticsCruncher20getSampleTagIteratorEv@Base 1.2+1640
 _ZNK5nidas5dynld19XMLConfigAllService14getRequestTypeEv@Base 1.2+1640
 _ZNK5nidas5dynld21RawSampleOutputStream5isRawEv@Base 1.2+1640
 _ZNK5nidas5dynld3raf10A2D_Serial10dumpConfigEv@Base 1.2+1640
 _ZNK5nidas5dynld3raf10A2D_Serial10getBipolarEi@Base 1.2+1640
 _ZNK5nidas5dynld3raf10A2D_Serial15samplingChannelEi@Base 1.2+1640
 _ZNK5nidas5dynld3raf10A2D_Serial16applyCalibrationEfRKSt6vectorIfSaIfEE@Base 1.2+1640
 _ZNK5nidas5dynld3raf10A2D_Serial7getGainEi@Base 1.2+1640
 _ZNK5nidas5dynld3raf10CDP_Serial9packetLenEv@Base 1.2+1640
 _ZNK5nidas5dynld3raf10PIP_Serial9packetLenEv@Base 1.2+1640
 _ZNK5nidas5dynld3raf10TwoD32_USB14NumberOfDiodesEv@Base 1.2+1640
 _ZNK5nidas5dynld3raf10TwoD64_USB14NumberOfDiodesEv@Base 1.2+1640
 _ZNK5nidas5dynld3raf11BCPD_Serial9packetLenEv@Base 1.2+1640
 _ZNK5nidas5dynld3raf13SPP100_Serial9packetLenEv@Base 1.2+1640
 _ZNK5nidas5dynld3raf13SPP200_Serial9packetLenEv@Base 1.2+1640
 _ZNK5nidas5dynld3raf13SPP300_Serial9packetLenEv@Base 1.2+1640
 _ZNK5nidas5dynld3raf13SidsNetSensor18acceptThisParticleERKNS2_8ParticleE@Base 1.2+1640
 _ZNK5nidas5dynld3raf13TwoD64_USB_v310Tap2DToTASEPK9_Tap2D_v2@Base 1.2+1640
 _ZNK5nidas5dynld3raf15DSMAnalogSensor17getMaxNumChannelsEv@Base 1.2+1640
 _ZNK5nidas5dynld3raf15DSMAnalogSensor18getBasicConversionEiRfS3_@Base 1.2+1640
 _ZNK5nidas5dynld3raf15TwoD_Processing20acceptThisParticle1DERKNS2_8ParticleE@Base 1.2+1640
 _ZNK5nidas5dynld3raf15TwoD_Processing20acceptThisParticle2DERKNS2_8ParticleE@Base 1.2+1640
 _ZNK5nidas5dynld3raf16SyncRecordReader11getVariableERKNSt7__cxx1112basic_stringIcSt11char_traitsIcESaIcEEE@Base 1.2+1640
 _ZNK5nidas5dynld3raf16SyncRecordSource13getSampleTagsB5cxx11Ev@Base 1.2+1640
 _ZNK5nidas5dynld3raf16SyncRecordSource14getClientCountEv@Base 1.2+1640
 _ZNK5nidas5dynld3raf16SyncRecordSource14getSampleStatsEv@Base 1.2+1640
 _ZNK5nidas5dynld3raf16SyncRecordSource20getSampleTagIteratorEv@Base 1.2+1640
 _ZNK5nidas5dynld3raf19SyncRecordGenerator13getSampleTagsB5cxx11Ev@Base 1.2+1640
 _ZNK5nidas5dynld3raf19SyncRecordGenerator14getClientCountEv@Base 1.2+1640
 _ZNK5nidas5dynld3raf19SyncRecordGenerator14getSampleStatsEv@Base 1.2+1640
 _ZNK5nidas5dynld3raf19SyncRecordGenerator20getSampleTagIteratorEv@Base 1.2+1640
 _ZNK5nidas5dynld3raf5TwoDS14NumberOfDiodesEv@Base 1.2+1640
 _ZNK5nidas5dynld3raf8Aircraft13getTailNumberB5cxx11Ev@Base 1.2+1640
 _ZNK5nidas5dynld3raf8TwoD_USB10Tap2DToTASEPK9_Tap2D_v1@Base 1.2+1640
 _ZNK5nidas5dynld3raf8TwoD_USB10Tap2DToTASEPK9_Tap2D_v2@Base 1.2+1640
 _ZNK5nidas5dynld3raf9PIP_Image14NumberOfDiodesEv@Base 1.2+1640
 _ZNK5nidas5dynld4isff10CS_Krypton5cloneEv@Base 1.2+1640
 _ZNK5nidas5dynld4isff10CS_Krypton8toStringB5cxx11Ev@Base 1.2+1640
 _ZNK5nidas5dynld4isff10RebsLinear5cloneEv@Base 1.2+1640
 _ZNK5nidas5dynld4isff10WindTilter6rotateEPfS3_S3_@Base 1.2+1640
 _ZNK5nidas5dynld4isff11CSAT3_Sonic14getRateCommandEib@Base 1.2+1640
 _ZNK5nidas5dynld4isff11WindRotator15getAngleDegreesEv@Base 1.2+1640
 _ZNK5nidas5dynld4isff11WindRotator6rotateEPfS3_@Base 1.2+1640
 _ZNK5nidas5dynld9A2DSensor10getBipolarEi@Base 1.2+1640
 _ZNK5nidas5dynld9A2DSensor13getConversionEiRfS2_@Base 1.2+1640
 _ZNK5nidas5dynld9A2DSensor16getA2DParametersEiRiS2_@Base 1.2+1640
 _ZNK5nidas5dynld9A2DSensor7getGainEi@Base 1.2+1640
 _ZNKSt5ctypeIcE8do_widenEc@Base 1.2+1640
 _ZNSt11_Deque_baseIPKN5nidas4core6SampleESaIS4_EE17_M_initialize_mapEj@Base 1.2+1640
 _ZNSt11_Deque_baseIPKN5nidas4core6SampleESaIS4_EED1Ev@Base 1.2+1640
 _ZNSt11_Deque_baseIPKN5nidas4core6SampleESaIS4_EED2Ev@Base 1.2+1640
 _ZNSt13_Bvector_baseISaIbEE13_M_deallocateEv@Base 1.2+1640
 _ZNSt3mapINSt7__cxx1112basic_stringIcSt11char_traitsIcESaIcEEEPKN5nidas5dynld3raf18SyncRecordVariableESt4lessIS5_ESaISt4pairIKS5_SB_EEEixERSF_@Base 1.2+1640
 _ZNSt3mapINSt7__cxx1112basic_stringIcSt11char_traitsIcESaIcEEEPN5nidas5dynld3raf18SyncRecordVariableESt4lessIS5_ESaISt4pairIKS5_SA_EEEixERSE_@Base 1.2+1640
 _ZNSt3mapINSt7__cxx1112basic_stringIcSt11char_traitsIcESaIcEEEiSt4lessIS5_ESaISt4pairIKS5_iEEEixEOS5_@Base 1.2+1640
 _ZNSt3mapIiNSt7__cxx1112basic_stringIcSt11char_traitsIcESaIcEEESt4lessIiESaISt4pairIKiS5_EEED1Ev@Base 1.2+1640
 _ZNSt3mapIiNSt7__cxx1112basic_stringIcSt11char_traitsIcESaIcEEESt4lessIiESaISt4pairIKiS5_EEED2Ev@Base 1.2+1640
 _ZNSt3mapIiNSt7__cxx1112basic_stringIcSt11char_traitsIcESaIcEEESt4lessIiESaISt4pairIKiS5_EEEixEOi@Base 1.2+1640
 _ZNSt3mapIiS_IijSt4lessIiESaISt4pairIKijEEES1_SaIS2_IS3_S6_EEEixERS3_@Base 1.2+1640
 _ZNSt3mapIiSt4pairIMN5nidas5dynld4isff10WisardMoteEFPKcS6_S6_jPKNS4_13MessageHeaderEPNS1_4core9SampleTagEPNSA_7SampleTIfEEEjESt4lessIiESaIS0_IKiSI_EEED1Ev@Base 1.2+1640
 _ZNSt3mapIiSt4pairIMN5nidas5dynld4isff10WisardMoteEFPKcS6_S6_jPKNS4_13MessageHeaderEPNS1_4core9SampleTagEPNSA_7SampleTIfEEEjESt4lessIiESaIS0_IKiSI_EEED2Ev@Base 1.2+1640
 _ZNSt3mapIiSt4pairIMN5nidas5dynld4isff10WisardMoteEFPKcS6_S6_jPKNS4_13MessageHeaderEPNS1_4core9SampleTagEPNSA_7SampleTIfEEEjESt4lessIiESaIS0_IKiSI_EEEixEOi@Base 1.2+1640
 _ZNSt3mapIiiSt4lessIiESaISt4pairIKiiEEEixERS3_@Base 1.2+1640
 _ZNSt3mapIijSt4lessIiESaISt4pairIKijEEEixEOi@Base 1.2+1640
 _ZNSt3mapIijSt4lessIiESaISt4pairIKijEEEixERS3_@Base 1.2+1640
 _ZNSt3mapIjPN5nidas5dynld4isff10WisardMoteESt4lessIjESaISt4pairIKjS4_EEED1Ev@Base 1.2+1640
 _ZNSt3mapIjPN5nidas5dynld4isff10WisardMoteESt4lessIjESaISt4pairIKjS4_EEED2Ev@Base 1.2+1640
 _ZNSt5dequeIPKN5nidas4core6SampleESaIS4_EE16_M_push_back_auxIJRKS4_EEEvDpOT_@Base 1.2+1640
 _ZNSt6vectorIN5nidas4core13VariableIndexESaIS2_EE17_M_realloc_insertIJRKS2_EEEvN9__gnu_cxx17__normal_iteratorIPS2_S4_EEDpOT_@Base 1.2+1640
 _ZNSt6vectorIN5nidas5dynld9A2DSensor13A2DSampleInfoESaIS3_EE17_M_realloc_insertIJRKS3_EEEvN9__gnu_cxx17__normal_iteratorIPS3_S5_EEDpOT_@Base 1.2+1640
 _ZNSt6vectorINSt7__cxx1112basic_stringIcSt11char_traitsIcESaIcEEESaIS5_EE12emplace_backIJS5_EEEvDpOT_@Base 1.2+1640
 _ZNSt6vectorINSt7__cxx1112basic_stringIcSt11char_traitsIcESaIcEEESaIS5_EE17_M_realloc_insertIJRKS5_EEEvN9__gnu_cxx17__normal_iteratorIPS5_S7_EEDpOT_@Base 1.2+1640
 _ZNSt6vectorINSt7__cxx1112basic_stringIcSt11char_traitsIcESaIcEEESaIS5_EE17_M_realloc_insertIJS5_EEEvN9__gnu_cxx17__normal_iteratorIPS5_S7_EEDpOT_@Base 1.2+1640
 _ZNSt6vectorINSt7__cxx1112basic_stringIcSt11char_traitsIcESaIcEEESaIS5_EE8_M_eraseEN9__gnu_cxx17__normal_iteratorIPS5_S7_EE@Base 1.2+1640
 _ZNSt6vectorINSt7__cxx1112basic_stringIcSt11char_traitsIcESaIcEEESaIS5_EE9push_backERKS5_@Base 1.2+1640
 _ZNSt6vectorINSt7__cxx1112basic_stringIcSt11char_traitsIcESaIcEEESaIS5_EED1Ev@Base 1.2+1640
 _ZNSt6vectorINSt7__cxx1112basic_stringIcSt11char_traitsIcESaIcEEESaIS5_EED2Ev@Base 1.2+1640
 _ZNSt6vectorINSt7__cxx1112basic_stringIcSt11char_traitsIcESaIcEEESaIS5_EEaSERKS7_@Base 1.2+1640
 _ZNSt6vectorIPKN5nidas4core8VariableESaIS4_EE17_M_realloc_insertIJRKS4_EEEvN9__gnu_cxx17__normal_iteratorIPS4_S6_EEDpOT_@Base 1.2+1640
 _ZNSt6vectorIPN5nidas4core17VariableConverterESaIS3_EE17_M_realloc_insertIJS3_EEEvN9__gnu_cxx17__normal_iteratorIPS3_S5_EEDpOT_@Base 1.2+1640
 _ZNSt6vectorIPN5nidas4core9SampleTagESaIS3_EE17_M_realloc_insertIJRKS3_EEEvN9__gnu_cxx17__normal_iteratorIPS3_S5_EEDpOT_@Base 1.2+1640
 _ZNSt6vectorIPN5nidas5dynld9A2DSensor15A2DSampleConfigESaIS4_EE17_M_realloc_insertIJRKS4_EEEvN9__gnu_cxx17__normal_iteratorIPS4_S6_EEDpOT_@Base 1.2+1640
 _ZNSt6vectorIPjSaIS0_EE17_M_realloc_insertIJRKS0_EEEvN9__gnu_cxx17__normal_iteratorIPS0_S2_EEDpOT_@Base 1.2+1640
 _ZNSt6vectorIPjSaIS0_EEaSERKS2_@Base 1.2+1640
 _ZNSt6vectorIS_INSt7__cxx1112basic_stringIcSt11char_traitsIcESaIcEEESaIS5_EESaIS7_EE17_M_realloc_insertIJRKS7_EEEvN9__gnu_cxx17__normal_iteratorIPS7_S9_EEDpOT_@Base 1.2+1640
 _ZNSt6vectorISt4pairIPN5nidas4util6SocketEtESaIS5_EE17_M_realloc_insertIJRKS5_EEEvN9__gnu_cxx17__normal_iteratorIPS5_S7_EEDpOT_@Base 1.2+1640
 _ZNSt6vectorIbSaIbEE13_M_insert_auxESt13_Bit_iteratorb@Base 1.2+1640
 _ZNSt6vectorIcSaIcEE14_M_fill_insertEN9__gnu_cxx17__normal_iteratorIPcS1_EEjRKc@Base 1.2+1640
 _ZNSt6vectorIcSaIcEE6resizeEjRKc@Base 1.2+1640
 _ZNSt6vectorIfSaIfEE14_M_fill_insertEN9__gnu_cxx17__normal_iteratorIPfS1_EEjRKf@Base 1.2+1640
 _ZNSt6vectorIfSaIfEE17_M_default_appendEj@Base 1.2+1640
 _ZNSt6vectorIfSaIfEE17_M_realloc_insertIJRKfEEEvN9__gnu_cxx17__normal_iteratorIPfS1_EEDpOT_@Base 1.2+1640
 _ZNSt6vectorIfSaIfEE17_M_realloc_insertIJfEEEvN9__gnu_cxx17__normal_iteratorIPfS1_EEDpOT_@Base 1.2+1640
 _ZNSt6vectorIhSaIhEE13_M_assign_auxIPhEEvT_S4_St20forward_iterator_tag@Base 1.2+1640
 _ZNSt6vectorIhSaIhEE15_M_range_insertIPhEEvN9__gnu_cxx17__normal_iteratorIS3_S1_EET_S7_St20forward_iterator_tag@Base 1.2+1640
 _ZNSt6vectorIiSaIiEE12emplace_backIJiEEEvDpOT_@Base 1.2+1640
 _ZNSt6vectorIiSaIiEE17_M_realloc_insertIJRKiEEEvN9__gnu_cxx17__normal_iteratorIPiS1_EEDpOT_@Base 1.2+1640
 _ZNSt6vectorIiSaIiEE17_M_realloc_insertIJiEEEvN9__gnu_cxx17__normal_iteratorIPiS1_EEDpOT_@Base 1.2+1640
 _ZNSt6vectorIiSaIiEEaSERKS1_@Base 1.2+1640
 _ZNSt6vectorIjSaIjEE17_M_realloc_insertIJRKjEEEvN9__gnu_cxx17__normal_iteratorIPjS1_EEDpOT_@Base 1.2+1640
 _ZNSt6vectorIjSaIjEEaSERKS1_@Base 1.2+1640
 _ZNSt7__cxx1110_List_baseINS_12basic_stringIcSt11char_traitsIcESaIcEEESaIS5_EE8_M_clearEv@Base 1.2+1640
 _ZNSt7__cxx1115basic_stringbufIcSt11char_traitsIcESaIcEED0Ev@Base 1.2+1640
 _ZNSt7__cxx1115basic_stringbufIcSt11char_traitsIcESaIcEED1Ev@Base 1.2+1640
 _ZNSt7__cxx1115basic_stringbufIcSt11char_traitsIcESaIcEED2Ev@Base 1.2+1640
 _ZNSt8_Rb_treeIN5nidas4util18Inet4SocketAddressESt4pairIKS2_NS0_4core14ConnectionInfoEESt10_Select1stIS7_ESt4lessIS2_ESaIS7_EE22_M_emplace_hint_uniqueIJRKSt21piecewise_construct_tSt5tupleIJRS4_EESI_IJEEEEESt17_Rb_tree_iteratorIS7_ESt23_Rb_tree_const_iteratorIS7_EDpOT_@Base 1.2+1640
 _ZNSt8_Rb_treeIN5nidas4util18Inet4SocketAddressESt4pairIKS2_NS0_4core14ConnectionInfoEESt10_Select1stIS7_ESt4lessIS2_ESaIS7_EE24_M_get_insert_unique_posERS4_@Base 1.2+1640
 _ZNSt8_Rb_treeIN5nidas4util18Inet4SocketAddressESt4pairIKS2_NS0_4core14ConnectionInfoEESt10_Select1stIS7_ESt4lessIS2_ESaIS7_EE4findERS4_@Base 1.2+1640
 _ZNSt8_Rb_treeIN5nidas4util18Inet4SocketAddressESt4pairIKS2_NS0_4core14ConnectionInfoEESt10_Select1stIS7_ESt4lessIS2_ESaIS7_EE8_M_eraseEPSt13_Rb_tree_nodeIS7_E@Base 1.2+1640
 _ZNSt8_Rb_treeINSt7__cxx1112basic_stringIcSt11char_traitsIcESaIcEEES5_St9_IdentityIS5_ESt4lessIS5_ESaIS5_EE16_M_insert_uniqueIRKS5_EESt4pairISt17_Rb_tree_iteratorIS5_EbEOT_@Base 1.2+1640
 _ZNSt8_Rb_treeINSt7__cxx1112basic_stringIcSt11char_traitsIcESaIcEEES5_St9_IdentityIS5_ESt4lessIS5_ESaIS5_EE24_M_get_insert_unique_posERKS5_@Base 1.2+1640
 _ZNSt8_Rb_treeINSt7__cxx1112basic_stringIcSt11char_traitsIcESaIcEEES5_St9_IdentityIS5_ESt4lessIS5_ESaIS5_EE4findERKS5_@Base 1.2+1640
 _ZNSt8_Rb_treeINSt7__cxx1112basic_stringIcSt11char_traitsIcESaIcEEES5_St9_IdentityIS5_ESt4lessIS5_ESaIS5_EE8_M_eraseEPSt13_Rb_tree_nodeIS5_E@Base 1.2+1640
 _ZNSt8_Rb_treeINSt7__cxx1112basic_stringIcSt11char_traitsIcESaIcEEESt4pairIKS5_N6XmlRpc11XmlRpcValueEESt10_Select1stISA_ESt4lessIS5_ESaISA_EE24_M_get_insert_unique_posERS7_@Base 1.2+1640
 _ZNSt8_Rb_treeINSt7__cxx1112basic_stringIcSt11char_traitsIcESaIcEEESt4pairIKS5_PKN5nidas5dynld3raf18SyncRecordVariableEESt10_Select1stISE_ESt4lessIS5_ESaISE_EE24_M_get_insert_unique_posERS7_@Base 1.2+1640
 _ZNSt8_Rb_treeINSt7__cxx1112basic_stringIcSt11char_traitsIcESaIcEEESt4pairIKS5_PKN5nidas5dynld3raf18SyncRecordVariableEESt10_Select1stISE_ESt4lessIS5_ESaISE_EE8_M_eraseEPSt13_Rb_tree_nodeISE_E@Base 1.2+1640
 _ZNSt8_Rb_treeINSt7__cxx1112basic_stringIcSt11char_traitsIcESaIcEEESt4pairIKS5_PN5nidas5dynld3raf18SyncRecordVariableEESt10_Select1stISD_ESt4lessIS5_ESaISD_EE24_M_get_insert_unique_posERS7_@Base 1.2+1640
 _ZNSt8_Rb_treeINSt7__cxx1112basic_stringIcSt11char_traitsIcESaIcEEESt4pairIKS5_PN5nidas5dynld3raf18SyncRecordVariableEESt10_Select1stISD_ESt4lessIS5_ESaISD_EE4findERS7_@Base 1.2+1640
 _ZNSt8_Rb_treeINSt7__cxx1112basic_stringIcSt11char_traitsIcESaIcEEESt4pairIKS5_PN5nidas5dynld3raf18SyncRecordVariableEESt10_Select1stISD_ESt4lessIS5_ESaISD_EE8_M_eraseEPSt13_Rb_tree_nodeISD_E@Base 1.2+1640
 _ZNSt8_Rb_treeINSt7__cxx1112basic_stringIcSt11char_traitsIcESaIcEEESt4pairIKS5_S5_ESt10_Select1stIS8_ESt4lessIS5_ESaIS8_EE24_M_get_insert_unique_posERS7_@Base 1.2+1640
 _ZNSt8_Rb_treeINSt7__cxx1112basic_stringIcSt11char_traitsIcESaIcEEESt4pairIKS5_S5_ESt10_Select1stIS8_ESt4lessIS5_ESaIS8_EE8_M_eraseEPSt13_Rb_tree_nodeIS8_E@Base 1.2+1640
 _ZNSt8_Rb_treeINSt7__cxx1112basic_stringIcSt11char_traitsIcESaIcEEESt4pairIKS5_iESt10_Select1stIS8_ESt4lessIS5_ESaIS8_EE24_M_get_insert_unique_posERS7_@Base 1.2+1640
 _ZNSt8_Rb_treeINSt7__cxx1112basic_stringIcSt11char_traitsIcESaIcEEESt4pairIKS5_iESt10_Select1stIS8_ESt4lessIS5_ESaIS8_EE8_M_eraseEPSt13_Rb_tree_nodeIS8_E@Base 1.2+1640
 _ZNSt8_Rb_treeIPN5nidas4core11SampleInputESt4pairIKS3_PKNS1_9DSMConfigEESt10_Select1stIS9_ESt4lessIS3_ESaIS9_EE24_M_get_insert_unique_posERS5_@Base 1.2+1640
 _ZNSt8_Rb_treeIPN5nidas4core11SampleInputESt4pairIKS3_PKNS1_9DSMConfigEESt10_Select1stIS9_ESt4lessIS3_ESaIS9_EE5eraseERS5_@Base 1.2+1640
 _ZNSt8_Rb_treeIPN5nidas4core11SampleInputESt4pairIKS3_PKNS1_9DSMConfigEESt10_Select1stIS9_ESt4lessIS3_ESaIS9_EE8_M_eraseEPSt13_Rb_tree_nodeIS9_E@Base 1.2+1640
 _ZNSt8_Rb_treeIPN5nidas4core11SampleInputESt4pairIKS3_PNS0_5dynld16RawSampleService6WorkerEESt10_Select1stISA_ESt4lessIS3_ESaISA_EE24_M_get_insert_unique_posERS5_@Base 1.2+1640
 _ZNSt8_Rb_treeIPN5nidas4core11SampleInputESt4pairIKS3_PNS0_5dynld16RawSampleService6WorkerEESt10_Select1stISA_ESt4lessIS3_ESaISA_EE5eraseERS5_@Base 1.2+1640
 _ZNSt8_Rb_treeIPN5nidas4core11SampleInputESt4pairIKS3_PNS0_5dynld16RawSampleService6WorkerEESt10_Select1stISA_ESt4lessIS3_ESaISA_EE8_M_eraseEPSt13_Rb_tree_nodeISA_E@Base 1.2+1640
 _ZNSt8_Rb_treeIPN5nidas4core12SampleClientES3_St9_IdentityIS3_ESt4lessIS3_ESaIS3_EE8_M_eraseEPSt13_Rb_tree_nodeIS3_E@Base 1.2+1640
 _ZNSt8_Rb_treeIPN5nidas4core12SampleOutputES3_St9_IdentityIS3_ESt4lessIS3_ESaIS3_EE16_M_insert_uniqueIRKS3_EESt4pairISt17_Rb_tree_iteratorIS3_EbEOT_@Base 1.2+1640
 _ZNSt8_Rb_treeIPN5nidas4core12SampleOutputES3_St9_IdentityIS3_ESt4lessIS3_ESaIS3_EE5eraseERKS3_@Base 1.2+1640
 _ZNSt8_Rb_treeIPN5nidas4core12SampleOutputES3_St9_IdentityIS3_ESt4lessIS3_ESaIS3_EE8_M_eraseEPSt13_Rb_tree_nodeIS3_E@Base 1.2+1640
 _ZNSt8_Rb_treeIPN5nidas4core12SampleSourceES3_St9_IdentityIS3_ESt4lessIS3_ESaIS3_EE16_M_insert_uniqueIRKS3_EESt4pairISt17_Rb_tree_iteratorIS3_EbEOT_@Base 1.2+1640
 _ZNSt8_Rb_treeIPN5nidas4core12SampleSourceES3_St9_IdentityIS3_ESt4lessIS3_ESaIS3_EE5eraseERKS3_@Base 1.2+1640
 _ZNSt8_Rb_treeIPN5nidas4core12SampleSourceES3_St9_IdentityIS3_ESt4lessIS3_ESaIS3_EE8_M_eraseEPSt13_Rb_tree_nodeIS3_E@Base 1.2+1640
 _ZNSt8_Rb_treeIPN5nidas4core9DSMSensorES3_St9_IdentityIS3_ESt4lessIS3_ESaIS3_EE16_M_insert_uniqueIRKS3_EESt4pairISt17_Rb_tree_iteratorIS3_EbEOT_@Base 1.2+1640
 _ZNSt8_Rb_treeIPN5nidas4core9DSMSensorES3_St9_IdentityIS3_ESt4lessIS3_ESaIS3_EE8_M_eraseEPSt13_Rb_tree_nodeIS3_E@Base 1.2+1640
 _ZNSt8_Rb_treeIPN5nidas4core9SampleTagES3_St9_IdentityIS3_ENS0_5dynld3raf19SortByRateThenLabelESaIS3_EE24_M_get_insert_unique_posERKS3_@Base 1.2+1640
 _ZNSt8_Rb_treeIPN5nidas4core9SampleTagES3_St9_IdentityIS3_ENS0_5dynld3raf19SortByRateThenLabelESaIS3_EE8_M_eraseEPSt13_Rb_tree_nodeIS3_E@Base 1.2+1640
 _ZNSt8_Rb_treeIPvSt4pairIKS0_jESt10_Select1stIS3_ESt4lessIS0_ESaIS3_EE24_M_get_insert_unique_posERS2_@Base 1.2+1640
 _ZNSt8_Rb_treeIPvSt4pairIKS0_jESt10_Select1stIS3_ESt4lessIS0_ESaIS3_EE8_M_eraseEPSt13_Rb_tree_nodeIS3_E@Base 1.2+1640
 _ZNSt8_Rb_treeIPvSt4pairIKS0_xESt10_Select1stIS3_ESt4lessIS0_ESaIS3_EE24_M_get_insert_unique_posERS2_@Base 1.2+1640
 _ZNSt8_Rb_treeIPvSt4pairIKS0_xESt10_Select1stIS3_ESt4lessIS0_ESaIS3_EE8_M_eraseEPSt13_Rb_tree_nodeIS3_E@Base 1.2+1640
 _ZNSt8_Rb_treeIiSt4pairIKiNSt7__cxx1112basic_stringIcSt11char_traitsIcESaIcEEEESt10_Select1stIS8_ESt4lessIiESaIS8_EE14_M_insert_nodeEPSt18_Rb_tree_node_baseSG_PSt13_Rb_tree_nodeIS8_E@Base 1.2+1640
 _ZNSt8_Rb_treeIiSt4pairIKiNSt7__cxx1112basic_stringIcSt11char_traitsIcESaIcEEEESt10_Select1stIS8_ESt4lessIiESaIS8_EE24_M_get_insert_unique_posERS1_@Base 1.2+1640
 _ZNSt8_Rb_treeIiSt4pairIKiNSt7__cxx1112basic_stringIcSt11char_traitsIcESaIcEEEESt10_Select1stIS8_ESt4lessIiESaIS8_EE29_M_get_insert_hint_unique_posESt23_Rb_tree_const_iteratorIS8_ERS1_@Base 1.2+1640
 _ZNSt8_Rb_treeIiSt4pairIKiNSt7__cxx1112basic_stringIcSt11char_traitsIcESaIcEEEESt10_Select1stIS8_ESt4lessIiESaIS8_EE8_M_eraseEPSt13_Rb_tree_nodeIS8_E@Base 1.2+1640
 _ZNSt8_Rb_treeIiSt4pairIKiPN5nidas5dynld3raf14DSMArincSensorEESt10_Select1stIS7_ESt4lessIiESaIS7_EE24_M_get_insert_unique_posERS1_@Base 1.2+1640
 _ZNSt8_Rb_treeIiSt4pairIKiPN5nidas5dynld3raf14DSMArincSensorEESt10_Select1stIS7_ESt4lessIiESaIS7_EE8_M_eraseEPSt13_Rb_tree_nodeIS7_E@Base 1.2+1640
 _ZNSt8_Rb_treeIiSt4pairIKiS0_IMN5nidas5dynld4isff10WisardMoteEFPKcS7_S7_jPKNS5_13MessageHeaderEPNS2_4core9SampleTagEPNSB_7SampleTIfEEEjEESt10_Select1stISK_ESt4lessIiESaISK_EE14_M_insert_nodeEPSt18_Rb_tree_node_baseSS_PSt13_Rb_tree_nodeISK_E@Base 1.2+1640
 _ZNSt8_Rb_treeIiSt4pairIKiS0_IMN5nidas5dynld4isff10WisardMoteEFPKcS7_S7_jPKNS5_13MessageHeaderEPNS2_4core9SampleTagEPNSB_7SampleTIfEEEjEESt10_Select1stISK_ESt4lessIiESaISK_EE24_M_get_insert_unique_posERS1_@Base 1.2+1640
 _ZNSt8_Rb_treeIiSt4pairIKiS0_IMN5nidas5dynld4isff10WisardMoteEFPKcS7_S7_jPKNS5_13MessageHeaderEPNS2_4core9SampleTagEPNSB_7SampleTIfEEEjEESt10_Select1stISK_ESt4lessIiESaISK_EE29_M_get_insert_hint_unique_posESt23_Rb_tree_const_iteratorISK_ERS1_@Base 1.2+1640
 _ZNSt8_Rb_treeIiSt4pairIKiS0_IMN5nidas5dynld4isff10WisardMoteEFPKcS7_S7_jPKNS5_13MessageHeaderEPNS2_4core9SampleTagEPNSB_7SampleTIfEEEjEESt10_Select1stISK_ESt4lessIiESaISK_EE8_M_eraseEPSt13_Rb_tree_nodeISK_E@Base 1.2+1640
 _ZNSt8_Rb_treeIiSt4pairIKiSt3mapIiiSt4lessIiESaIS0_IS1_iEEEESt10_Select1stIS8_ES4_SaIS8_EE24_M_get_insert_unique_posERS1_@Base 1.2+1640
 _ZNSt8_Rb_treeIiSt4pairIKiSt3mapIiiSt4lessIiESaIS0_IS1_iEEEESt10_Select1stIS8_ES4_SaIS8_EE8_M_eraseEPSt13_Rb_tree_nodeIS8_E@Base 1.2+1640
 _ZNSt8_Rb_treeIiSt4pairIKiSt3mapIijSt4lessIiESaIS0_IS1_jEEEESt10_Select1stIS8_ES4_SaIS8_EE24_M_get_insert_unique_posERS1_@Base 1.2+1640
 _ZNSt8_Rb_treeIiSt4pairIKiSt3mapIijSt4lessIiESaIS0_IS1_jEEEESt10_Select1stIS8_ES4_SaIS8_EE8_M_eraseEPSt13_Rb_tree_nodeIS8_E@Base 1.2+1640
 _ZNSt8_Rb_treeIiSt4pairIKiiESt10_Select1stIS2_ESt4lessIiESaIS2_EE24_M_get_insert_unique_posERS1_@Base 1.2+1640
 _ZNSt8_Rb_treeIiSt4pairIKiiESt10_Select1stIS2_ESt4lessIiESaIS2_EE8_M_eraseEPSt13_Rb_tree_nodeIS2_E@Base 1.2+1640
 _ZNSt8_Rb_treeIiSt4pairIKijESt10_Select1stIS2_ESt4lessIiESaIS2_EE14_M_insert_nodeEPSt18_Rb_tree_node_baseSA_PSt13_Rb_tree_nodeIS2_E@Base 1.2+1640
 _ZNSt8_Rb_treeIiSt4pairIKijESt10_Select1stIS2_ESt4lessIiESaIS2_EE24_M_get_insert_unique_posERS1_@Base 1.2+1640
 _ZNSt8_Rb_treeIiSt4pairIKijESt10_Select1stIS2_ESt4lessIiESaIS2_EE29_M_get_insert_hint_unique_posESt23_Rb_tree_const_iteratorIS2_ERS1_@Base 1.2+1640
 _ZNSt8_Rb_treeIiSt4pairIKijESt10_Select1stIS2_ESt4lessIiESaIS2_EE8_M_eraseEPSt13_Rb_tree_nodeIS2_E@Base 1.2+1640
 _ZNSt8_Rb_treeIiiSt9_IdentityIiESt4lessIiESaIiEE16_M_insert_uniqueIRKiEESt4pairISt17_Rb_tree_iteratorIiEbEOT_@Base 1.2+1640
 _ZNSt8_Rb_treeIiiSt9_IdentityIiESt4lessIiESaIiEE8_M_eraseEPSt13_Rb_tree_nodeIiE@Base 1.2+1640
 _ZNSt8_Rb_treeIjSt4pairIKjN5nidas4core16SampleClientListEESt10_Select1stIS5_ESt4lessIjESaIS5_EE8_M_eraseEPSt13_Rb_tree_nodeIS5_E@Base 1.2+1640
 _ZNSt8_Rb_treeIjSt4pairIKjN5nidas5dynld18StatisticsCruncher10sampleInfoEESt10_Select1stIS6_ESt4lessIjESaIS6_EE24_M_get_insert_unique_posERS1_@Base 1.2+1640
 _ZNSt8_Rb_treeIjSt4pairIKjN5nidas5dynld18StatisticsCruncher10sampleInfoEESt10_Select1stIS6_ESt4lessIjESaIS6_EE8_M_eraseEPSt13_Rb_tree_nodeIS6_E@Base 1.2+1640
 _ZNSt8_Rb_treeIjSt4pairIKjN5nidas5dynld19StatisticsProcessor10OutputInfoEESt10_Select1stIS6_ESt4lessIjESaIS6_EE24_M_get_insert_unique_posERS1_@Base 1.2+1640
 _ZNSt8_Rb_treeIjSt4pairIKjN5nidas5dynld19StatisticsProcessor10OutputInfoEESt10_Select1stIS6_ESt4lessIjESaIS6_EE8_M_eraseEPSt13_Rb_tree_nodeIS6_E@Base 1.2+1640
 _ZNSt8_Rb_treeIjSt4pairIKjN5nidas5dynld3raf8SyncInfoEESt10_Select1stIS6_ESt4lessIjESaIS6_EE17_M_emplace_uniqueIJS0_IjS5_EEEES0_ISt17_Rb_tree_iteratorIS6_EbEDpOT_@Base 1.2+1640
 _ZNSt8_Rb_treeIjSt4pairIKjN5nidas5dynld3raf8SyncInfoEESt10_Select1stIS6_ESt4lessIjESaIS6_EE8_M_eraseEPSt13_Rb_tree_nodeIS6_E@Base 1.2+1640
 _ZNSt8_Rb_treeIjSt4pairIKjN5nidas5dynld4isff10WisardMote9TsoilDataEESt10_Select1stIS7_ESt4lessIjESaIS7_EE24_M_get_insert_unique_posERS1_@Base 1.2+1640
 _ZNSt8_Rb_treeIjSt4pairIKjN5nidas5dynld4isff10WisardMote9TsoilDataEESt10_Select1stIS7_ESt4lessIjESaIS7_EE8_M_eraseEPSt13_Rb_tree_nodeIS7_E@Base 1.2+1640
 _ZNSt8_Rb_treeIjSt4pairIKjPN5nidas4core15TimetagAdjusterEESt10_Select1stIS6_ESt4lessIjESaIS6_EE14_M_insert_nodeEPSt18_Rb_tree_node_baseSE_PSt13_Rb_tree_nodeIS6_E@Base 1.2+1640
 _ZNSt8_Rb_treeIjSt4pairIKjPN5nidas4core15TimetagAdjusterEESt10_Select1stIS6_ESt4lessIjESaIS6_EE24_M_get_insert_unique_posERS1_@Base 1.2+1640
 _ZNSt8_Rb_treeIjSt4pairIKjPN5nidas4core15TimetagAdjusterEESt10_Select1stIS6_ESt4lessIjESaIS6_EE29_M_get_insert_hint_unique_posESt23_Rb_tree_const_iteratorIS6_ERS1_@Base 1.2+1640
 _ZNSt8_Rb_treeIjSt4pairIKjPN5nidas4core15TimetagAdjusterEESt10_Select1stIS6_ESt4lessIjESaIS6_EE8_M_eraseEPSt13_Rb_tree_nodeIS6_E@Base 1.2+1640
 _ZNSt8_Rb_treeIjSt4pairIKjPN5nidas4core17VariableConverterEESt10_Select1stIS6_ESt4lessIjESaIS6_EE14_M_insert_nodeEPSt18_Rb_tree_node_baseSE_PSt13_Rb_tree_nodeIS6_E@Base 1.2+1640
 _ZNSt8_Rb_treeIjSt4pairIKjPN5nidas4core17VariableConverterEESt10_Select1stIS6_ESt4lessIjESaIS6_EE24_M_get_insert_unique_posERS1_@Base 1.2+1640
 _ZNSt8_Rb_treeIjSt4pairIKjPN5nidas4core17VariableConverterEESt10_Select1stIS6_ESt4lessIjESaIS6_EE29_M_get_insert_hint_unique_posESt23_Rb_tree_const_iteratorIS6_ERS1_@Base 1.2+1640
 _ZNSt8_Rb_treeIjSt4pairIKjPN5nidas4core17VariableConverterEESt10_Select1stIS6_ESt4lessIjESaIS6_EE8_M_eraseEPSt13_Rb_tree_nodeIS6_E@Base 1.2+1640
 _ZNSt8_Rb_treeIjSt4pairIKjPN5nidas4core9SampleTagEESt10_Select1stIS6_ESt4lessIjESaIS6_EE14_M_insert_nodeEPSt18_Rb_tree_node_baseSE_PSt13_Rb_tree_nodeIS6_E@Base 1.2+1640
 _ZNSt8_Rb_treeIjSt4pairIKjPN5nidas4core9SampleTagEESt10_Select1stIS6_ESt4lessIjESaIS6_EE24_M_get_insert_unique_posERS1_@Base 1.2+1640
 _ZNSt8_Rb_treeIjSt4pairIKjPN5nidas4core9SampleTagEESt10_Select1stIS6_ESt4lessIjESaIS6_EE29_M_get_insert_hint_unique_posESt23_Rb_tree_const_iteratorIS6_ERS1_@Base 1.2+1640
 _ZNSt8_Rb_treeIjSt4pairIKjPN5nidas4core9SampleTagEESt10_Select1stIS6_ESt4lessIjESaIS6_EE8_M_eraseEPSt13_Rb_tree_nodeIS6_E@Base 1.2+1640
 _ZNSt8_Rb_treeIjSt4pairIKjPN5nidas5dynld18StatisticsCruncherEESt10_Select1stIS6_ESt4lessIjESaIS6_EE24_M_get_insert_unique_posERS1_@Base 1.2+1640
 _ZNSt8_Rb_treeIjSt4pairIKjPN5nidas5dynld18StatisticsCruncherEESt10_Select1stIS6_ESt4lessIjESaIS6_EE8_M_eraseEPSt13_Rb_tree_nodeIS6_E@Base 1.2+1640
 _ZNSt8_Rb_treeIjSt4pairIKjPN5nidas5dynld4isff10WisardMoteEESt10_Select1stIS7_ESt4lessIjESaIS7_EE24_M_get_insert_unique_posERS1_@Base 1.2+1640
 _ZNSt8_Rb_treeIjSt4pairIKjPN5nidas5dynld4isff10WisardMoteEESt10_Select1stIS7_ESt4lessIjESaIS7_EE8_M_eraseEPSt13_Rb_tree_nodeIS7_E@Base 1.2+1640
 _ZNSt8_Rb_treeIjSt4pairIKjSt6vectorINSt7__cxx1112basic_stringIcSt11char_traitsIcESaIcEEESaIS8_EEESt10_Select1stISB_ESt4lessIjESaISB_EE14_M_insert_nodeEPSt18_Rb_tree_node_baseSJ_PSt13_Rb_tree_nodeISB_E@Base 1.2+1640
 _ZNSt8_Rb_treeIjSt4pairIKjSt6vectorINSt7__cxx1112basic_stringIcSt11char_traitsIcESaIcEEESaIS8_EEESt10_Select1stISB_ESt4lessIjESaISB_EE24_M_get_insert_unique_posERS1_@Base 1.2+1640
 _ZNSt8_Rb_treeIjSt4pairIKjSt6vectorINSt7__cxx1112basic_stringIcSt11char_traitsIcESaIcEEESaIS8_EEESt10_Select1stISB_ESt4lessIjESaISB_EE29_M_get_insert_hint_unique_posESt23_Rb_tree_const_iteratorISB_ERS1_@Base 1.2+1640
 _ZNSt8_Rb_treeIjSt4pairIKjSt6vectorINSt7__cxx1112basic_stringIcSt11char_traitsIcESaIcEEESaIS8_EEESt10_Select1stISB_ESt4lessIjESaISB_EE8_M_eraseEPSt13_Rb_tree_nodeISB_E@Base 1.2+1640
 _ZNSt8_Rb_treeIjSt4pairIKjbESt10_Select1stIS2_ESt4lessIjESaIS2_EE8_M_eraseEPSt13_Rb_tree_nodeIS2_E@Base 1.2+1640
 _ZNSt8_Rb_treeIjSt4pairIKjiESt10_Select1stIS2_ESt4lessIjESaIS2_EE24_M_get_insert_unique_posERS1_@Base 1.2+1640
 _ZNSt8_Rb_treeIjSt4pairIKjiESt10_Select1stIS2_ESt4lessIjESaIS2_EE8_M_eraseEPSt13_Rb_tree_nodeIS2_E@Base 1.2+1640
 _ZNSt8_Rb_treeIjSt4pairIKjxESt10_Select1stIS2_ESt4lessIjESaIS2_EE24_M_get_insert_unique_posERS1_@Base 1.2+1640
 _ZNSt8_Rb_treeIjSt4pairIKjxESt10_Select1stIS2_ESt4lessIjESaIS2_EE8_M_eraseEPSt13_Rb_tree_nodeIS2_E@Base 1.2+1640
 _ZNSt8_Rb_treeIjjSt9_IdentityIjESt4lessIjESaIjEE16_M_insert_uniqueIRKjEESt4pairISt17_Rb_tree_iteratorIjEbEOT_@Base 1.2+1640
 _ZNSt8_Rb_treeIjjSt9_IdentityIjESt4lessIjESaIjEE8_M_eraseEPSt13_Rb_tree_nodeIjE@Base 1.2+1640
 _ZSt9__find_ifIN9__gnu_cxx17__normal_iteratorIPN5nidas4core13VariableIndexESt6vectorIS4_SaIS4_EEEENS0_5__ops16_Iter_equals_valIKS4_EEET_SE_SE_T0_St26random_access_iterator_tag@Base 1.2+1640
 _ZStplIcSt11char_traitsIcESaIcEENSt7__cxx1112basic_stringIT_T0_T1_EEOS8_S9_@Base 1.2+1640
 _ZStplIcSt11char_traitsIcESaIcEENSt7__cxx1112basic_stringIT_T0_T1_EEPKS5_RKS8_@Base 1.2+1640
 _ZStplIcSt11char_traitsIcESaIcEENSt7__cxx1112basic_stringIT_T0_T1_EERKS8_PKS5_@Base 1.2+1640
 _ZStplIcSt11char_traitsIcESaIcEENSt7__cxx1112basic_stringIT_T0_T1_EERKS8_SA_@Base 1.2+1640
 _ZTI14SyncReaderStop@Base 1.2+1640
 _ZTIN11xercesc_3_210XMLDeleterE@Base 1.2+1640
 _ZTIN11xercesc_3_213XMLAttDefListE@Base 1.2+1640
 _ZTIN11xercesc_3_213XSerializableE@Base 1.2+1640
 _ZTIN11xercesc_3_27XMemoryE@Base 1.2+1640
 _ZTIN5nidas4core10ParameterTINSt7__cxx1112basic_stringIcSt11char_traitsIcESaIcEEEEE@Base 1.2+1640
 _ZTIN5nidas4core10SamplePoolINS0_7SampleTIcEEEE@Base 1.2+1640
 _ZTIN5nidas4core10SamplePoolINS0_7SampleTIdEEEE@Base 1.2+1640
 _ZTIN5nidas4core10SamplePoolINS0_7SampleTIfEEEE@Base 1.2+1640
 _ZTIN5nidas4core10SamplePoolINS0_7SampleTIjEEEE@Base 1.2+1640
 _ZTIN5nidas4core11McSocketUDP10MyMcSocketE@Base 1.2+1640
 _ZTIN5nidas4core11SampleInputE@Base 1.2+1640
 _ZTIN5nidas4core12HeaderSourceE@Base 1.2+1640
 _ZTIN5nidas4core12LooperClientE@Base 1.2+1640
 _ZTIN5nidas4core12SampleClientE@Base 1.2+1640
 _ZTIN5nidas4core12SampleSourceE@Base 1.2+1640
 _ZTIN5nidas4core12XMLExceptionE@Base 1.2+1640
 _ZTIN5nidas4core14CalFileHandlerE@Base 1.2+1640
 _ZTIN5nidas4core16ChronyStatusNodeE@Base 1.2+1640
 _ZTIN5nidas4core17DerivedDataClientE@Base 1.2+1640
 _ZTIN5nidas4core18IOChannelRequesterE@Base 1.2+1640
 _ZTIN5nidas4core19SamplePoolInterfaceE@Base 1.2+1640
 _ZTIN5nidas4core21SampleLengthExceptionE@Base 1.2+1640
 _ZTIN5nidas4core22CalFileHandlerFunctionISt9binder1stISt10mem_fun1_tIbNS_5dynld4isff8NCAR_TRHEPNS0_7CalFileEEEEE@Base 1.2+1640
 _ZTIN5nidas4core25SampleConnectionRequesterE@Base 1.2+1640
 _ZTIN5nidas4core6SampleE@Base 1.2+1640
 _ZTIN5nidas4core7SampleTIcEE@Base 1.2+1640
 _ZTIN5nidas4core7SampleTIdEE@Base 1.2+1640
 _ZTIN5nidas4core7SampleTIfEE@Base 1.2+1640
 _ZTIN5nidas4core7SampleTIjEE@Base 1.2+1640
 _ZTIN5nidas4core8IODeviceE@Base 1.2+1640
 _ZTIN5nidas4core8McSocket10MyMcSocketE@Base 1.2+1640
 _ZTIN5nidas4core9IOChannelE@Base 1.2+1640
 _ZTIN5nidas4core9ResamplerE@Base 1.2+1640
 _ZTIN5nidas4util11IOExceptionE@Base 1.2+1640
 _ZTIN5nidas4util12EOFExceptionE@Base 1.2+1640
 _ZTIN5nidas4util14ParseExceptionE@Base 1.2+1640
 _ZTIN5nidas4util15Inet4PacketInfoE@Base 1.2+1640
 _ZTIN5nidas4util18IOTimeoutExceptionE@Base 1.2+1640
 _ZTIN5nidas4util25InvalidParameterExceptionE@Base 1.2+1640
 _ZTIN5nidas4util8McSocketINS0_14DatagramSocketEEE@Base 1.2+1640
 _ZTIN5nidas4util8McSocketINS0_6SocketEEE@Base 1.2+1640
 _ZTIN5nidas4util9ExceptionE@Base 1.2+1640
 _ZTIN5nidas5dynld10IEEE_FloatE@Base 1.2+1640
 _ZTIN5nidas5dynld11AsciiOutputE@Base 1.2+1640
 _ZTIN5nidas5dynld11TSI_CPC3772E@Base 1.2+1640
 _ZTIN5nidas5dynld11Uio48Sensor10MyIODeviceE@Base 1.2+1640
 _ZTIN5nidas5dynld11Uio48Sensor14MyLooperClientE@Base 1.2+1640
 _ZTIN5nidas5dynld11Uio48SensorE@Base 1.2+1640
 _ZTIN5nidas5dynld12Bzip2FileSetE@Base 1.2+1640
 _ZTIN5nidas5dynld12IR104_RelaysE@Base 1.2+1640
 _ZTIN5nidas5dynld13DSC_A2DSensorE@Base 1.2+1640
 _ZTIN5nidas5dynld14SampleArchiverE@Base 1.2+1640
 _ZTIN5nidas5dynld15DSC_FreqCounterE@Base 1.2+1640
 _ZTIN5nidas5dynld15DSMSerialSensorE@Base 1.2+1640
 _ZTIN5nidas5dynld15GPS_NMEA_SerialE@Base 1.2+1640
 _ZTIN5nidas5dynld15ParoSci_202BG_PE@Base 1.2+1640
 _ZTIN5nidas5dynld15ParoSci_202BG_TE@Base 1.2+1640
 _ZTIN5nidas5dynld15SampleProcessorE@Base 1.2+1640
 _ZTIN5nidas5dynld15UDPSampleOutput17ConnectionMonitorE@Base 1.2+1640
 _ZTIN5nidas5dynld15UDPSampleOutput17XMLSocketListenerE@Base 1.2+1640
 _ZTIN5nidas5dynld15UDPSampleOutput18VariableListWorkerE@Base 1.2+1640
 _ZTIN5nidas5dynld15UDPSampleOutputE@Base 1.2+1640
 _ZTIN5nidas5dynld15UDPSocketSensorE@Base 1.2+1640
 _ZTIN5nidas5dynld16DSC_PulseCounterE@Base 1.2+1640
 _ZTIN5nidas5dynld16RawSampleService6WorkerE@Base 1.2+1640
 _ZTIN5nidas5dynld16RawSampleServiceE@Base 1.2+1640
 _ZTIN5nidas5dynld16XMLConfigService6WorkerE@Base 1.2+1640
 _ZTIN5nidas5dynld16XMLConfigServiceE@Base 1.2+1640
 _ZTIN5nidas5dynld17SampleInputStreamE@Base 1.2+1640
 _ZTIN5nidas5dynld17WatchedFileSensorE@Base 1.2+1640
 _ZTIN5nidas5dynld18GPS_Novatel_SerialE@Base 1.2+1640
 _ZTIN5nidas5dynld18SampleOutputStreamE@Base 1.2+1640
 _ZTIN5nidas5dynld18StatisticsCruncherE@Base 1.2+1640
 _ZTIN5nidas5dynld19StatisticsProcessorE@Base 1.2+1640
 _ZTIN5nidas5dynld19XMLConfigAllServiceE@Base 1.2+1640
 _ZTIN5nidas5dynld20RawSampleInputStreamE@Base 1.2+1640
 _ZTIN5nidas5dynld21RawSampleOutputStreamE@Base 1.2+1640
 _ZTIN5nidas5dynld3iss10TiltSensorE@Base 1.2+1640
 _ZTIN5nidas5dynld3iss11WICORSensorE@Base 1.2+1640
 _ZTIN5nidas5dynld3raf10A2D_SerialE@Base 1.2+1640
 _ZTIN5nidas5dynld3raf10CDP_SerialE@Base 1.2+1640
 _ZTIN5nidas5dynld3raf10IRIGSensorE@Base 1.2+1640
 _ZTIN5nidas5dynld3raf10LamsSensorE@Base 1.2+1640
 _ZTIN5nidas5dynld3raf10PIP_SerialE@Base 1.2+1640
 _ZTIN5nidas5dynld3raf10PPT_SerialE@Base 1.2+1640
 _ZTIN5nidas5dynld3raf10StopSignalE@Base 1.2+1640
 _ZTIN5nidas5dynld3raf10SyncServerE@Base 1.2+1640
 _ZTIN5nidas5dynld3raf10TwoD32_USBE@Base 1.2+1640
 _ZTIN5nidas5dynld3raf10TwoD64_USBE@Base 1.2+1640
 _ZTIN5nidas5dynld3raf10TwoD_HouseE@Base 1.2+1640
 _ZTIN5nidas5dynld3raf11BCPD_SerialE@Base 1.2+1640
 _ZTIN5nidas5dynld3raf12CVIProcessorE@Base 1.2+1640
 _ZTIN5nidas5dynld3raf12CVI_LV_InputE@Base 1.2+1640
 _ZTIN5nidas5dynld3raf12UHSAS_SerialE@Base 1.2+1640
 _ZTIN5nidas5dynld3raf12VCSEL_SerialE@Base 1.2+1640
 _ZTIN5nidas5dynld3raf13DSMMesaSensorE@Base 1.2+1640
 _ZTIN5nidas5dynld3raf13IRS_HW_YG1854E@Base 1.2+1640
 _ZTIN5nidas5dynld3raf13LamsNetSensorE@Base 1.2+1640
 _ZTIN5nidas5dynld3raf13SPP100_SerialE@Base 1.2+1640
 _ZTIN5nidas5dynld3raf13SPP200_SerialE@Base 1.2+1640
 _ZTIN5nidas5dynld3raf13SPP300_SerialE@Base 1.2+1640
 _ZTIN5nidas5dynld3raf13SidsNetSensorE@Base 1.2+1640
 _ZTIN5nidas5dynld3raf13TwoD64_USB_v3E@Base 1.2+1640
 _ZTIN5nidas5dynld3raf13VCSEL2_SerialE@Base 1.2+1640
 _ZTIN5nidas5dynld3raf14DSMArincSensorE@Base 1.2+1640
 _ZTIN5nidas5dynld3raf14PSI9116_SensorE@Base 1.2+1640
 _ZTIN5nidas5dynld3raf14UDPArincSensorE@Base 1.2+1640
 _ZTIN5nidas5dynld3raf15DSMAnalogSensorE@Base 1.2+1640
 _ZTIN5nidas5dynld3raf15IRS_HW_HG2001GDE@Base 1.2+1640
 _ZTIN5nidas5dynld3raf15TwoD_ProcessingE@Base 1.2+1640
 _ZTIN5nidas5dynld3raf16ADC_HW_EB7022597E@Base 1.2+1640
 _ZTIN5nidas5dynld3raf16LSZ_HW_EB7032239E@Base 1.2+1640
 _ZTIN5nidas5dynld3raf16SyncRecordReaderE@Base 1.2+1640
 _ZTIN5nidas5dynld3raf16SyncRecordSourceE@Base 1.2+1640
 _ZTIN5nidas5dynld3raf17GPS_HW_HG2021GB02E@Base 1.2+1640
 _ZTIN5nidas5dynld3raf18A2DBoardTempSensorE@Base 1.2+1640
 _ZTIN5nidas5dynld3raf18SyncRecordVariableE@Base 1.2+1640
 _ZTIN5nidas5dynld3raf19SyncRecordGeneratorE@Base 1.2+1640
 _ZTIN5nidas5dynld3raf22SyncRecHeaderExceptionE@Base 1.2+1640
 _ZTIN5nidas5dynld3raf5TwoDSE@Base 1.2+1640
 _ZTIN5nidas5dynld3raf6WatlowE@Base 1.2+1640
 _ZTIN5nidas5dynld3raf8AircraftE@Base 1.2+1640
 _ZTIN5nidas5dynld3raf8TwoD_USBE@Base 1.2+1640
 _ZTIN5nidas5dynld3raf9AlicatSDIE@Base 1.2+1640
 _ZTIN5nidas5dynld3raf9Arinc_IRSE@Base 1.2+1640
 _ZTIN5nidas5dynld3raf9CVIOutputE@Base 1.2+1640
 _ZTIN5nidas5dynld3raf9Extract2DE@Base 1.2+1640
 _ZTIN5nidas5dynld3raf9PHIPS_UDPE@Base 1.2+1640
 _ZTIN5nidas5dynld3raf9PIP_ImageE@Base 1.2+1640
 _ZTIN5nidas5dynld3raf9SppSerialE@Base 1.2+1640
 _ZTIN5nidas5dynld4isff10ATIK_SonicE@Base 1.2+1640
 _ZTIN5nidas5dynld4isff10CS_KryptonE@Base 1.2+1640
 _ZTIN5nidas5dynld4isff10RebsLinearE@Base 1.2+1640
 _ZTIN5nidas5dynld4isff10WisardMoteE@Base 1.2+1640
 _ZTIN5nidas5dynld4isff11CSAT3_SonicE@Base 1.2+1640
 _ZTIN5nidas5dynld4isff11CU_ColdwireE@Base 1.2+1640
 _ZTIN5nidas5dynld4isff13GroundStationE@Base 1.2+1640
 _ZTIN5nidas5dynld4isff14CSI_CRX_BinaryE@Base 1.2+1640
 _ZTIN5nidas5dynld4isff14CSI_IRGA_SonicE@Base 1.2+1640
 _ZTIN5nidas5dynld4isff15SonicAnemometerE@Base 1.2+1640
 _ZTIN5nidas5dynld4isff6Wind2DE@Base 1.2+1640
 _ZTIN5nidas5dynld4isff6Wind3DE@Base 1.2+1640
 _ZTIN5nidas5dynld4isff7MOSMote14MOS_TimeSyncerE@Base 1.2+1640
 _ZTIN5nidas5dynld4isff7MOSMoteE@Base 1.2+1640
 _ZTIN5nidas5dynld4isff8NCAR_TRHE@Base 1.2+1640
 _ZTIN5nidas5dynld4isff8PropVaneE@Base 1.2+1640
 _ZTIN5nidas5dynld4isff9DAUSensorE@Base 1.2+1640
 _ZTIN5nidas5dynld4isff9Licor7500E@Base 1.2+1640
 _ZTIN5nidas5dynld7FileSetE@Base 1.2+1640
 _ZTIN5nidas5dynld9A2DSensor15A2DBoxcarConfigE@Base 1.2+1640
 _ZTIN5nidas5dynld9A2DSensor15A2DSampleConfigE@Base 1.2+1640
 _ZTIN5nidas5dynld9A2DSensor16A2DTimeAvgConfigE@Base 1.2+1640
 _ZTIN5nidas5dynld9A2DSensorE@Base 1.2+1640
 _ZTIN5nidas5dynld9ChronyLogE@Base 1.2+1640
 _ZTIN5nidas5dynld9DSC_EventE@Base 1.2+1640
 _ZTIN5nidas5dynld9ModbusRTU12ModbusThreadE@Base 1.2+1640
 _ZTIN5nidas5dynld9ModbusRTU14ModbusIODeviceE@Base 1.2+1640
 _ZTIN5nidas5dynld9ModbusRTU26ModbusMessageStreamScannerE@Base 1.2+1640
 _ZTIN5nidas5dynld9ModbusRTUE@Base 1.2+1640
 _ZTIN5nidas5dynld9WxtSensorE@Base 1.2+1640
 _ZTS14SyncReaderStop@Base 1.2+1640
 _ZTSN11xercesc_3_210XMLDeleterE@Base 1.2+1640
 _ZTSN11xercesc_3_213XMLAttDefListE@Base 1.2+1640
 _ZTSN11xercesc_3_213XSerializableE@Base 1.2+1640
 _ZTSN11xercesc_3_27XMemoryE@Base 1.2+1640
 _ZTSN5nidas4core10ParameterTINSt7__cxx1112basic_stringIcSt11char_traitsIcESaIcEEEEE@Base 1.2+1640
 _ZTSN5nidas4core10SamplePoolINS0_7SampleTIcEEEE@Base 1.2+1640
 _ZTSN5nidas4core10SamplePoolINS0_7SampleTIdEEEE@Base 1.2+1640
 _ZTSN5nidas4core10SamplePoolINS0_7SampleTIfEEEE@Base 1.2+1640
 _ZTSN5nidas4core10SamplePoolINS0_7SampleTIjEEEE@Base 1.2+1640
 _ZTSN5nidas4core11McSocketUDP10MyMcSocketE@Base 1.2+1640
 _ZTSN5nidas4core11SampleInputE@Base 1.2+1640
 _ZTSN5nidas4core12HeaderSourceE@Base 1.2+1640
 _ZTSN5nidas4core12LooperClientE@Base 1.2+1640
 _ZTSN5nidas4core12SampleClientE@Base 1.2+1640
 _ZTSN5nidas4core12SampleSourceE@Base 1.2+1640
 _ZTSN5nidas4core12XMLExceptionE@Base 1.2+1640
 _ZTSN5nidas4core14CalFileHandlerE@Base 1.2+1640
 _ZTSN5nidas4core16ChronyStatusNodeE@Base 1.2+1640
 _ZTSN5nidas4core17DerivedDataClientE@Base 1.2+1640
 _ZTSN5nidas4core18IOChannelRequesterE@Base 1.2+1640
 _ZTSN5nidas4core19SamplePoolInterfaceE@Base 1.2+1640
 _ZTSN5nidas4core21SampleLengthExceptionE@Base 1.2+1640
 _ZTSN5nidas4core22CalFileHandlerFunctionISt9binder1stISt10mem_fun1_tIbNS_5dynld4isff8NCAR_TRHEPNS0_7CalFileEEEEE@Base 1.2+1640
 _ZTSN5nidas4core25SampleConnectionRequesterE@Base 1.2+1640
 _ZTSN5nidas4core6SampleE@Base 1.2+1640
 _ZTSN5nidas4core7SampleTIcEE@Base 1.2+1640
 _ZTSN5nidas4core7SampleTIdEE@Base 1.2+1640
 _ZTSN5nidas4core7SampleTIfEE@Base 1.2+1640
 _ZTSN5nidas4core7SampleTIjEE@Base 1.2+1640
 _ZTSN5nidas4core8IODeviceE@Base 1.2+1640
 _ZTSN5nidas4core8McSocket10MyMcSocketE@Base 1.2+1640
 _ZTSN5nidas4core9IOChannelE@Base 1.2+1640
 _ZTSN5nidas4core9ResamplerE@Base 1.2+1640
 _ZTSN5nidas4util11IOExceptionE@Base 1.2+1640
 _ZTSN5nidas4util12EOFExceptionE@Base 1.2+1640
 _ZTSN5nidas4util14ParseExceptionE@Base 1.2+1640
 _ZTSN5nidas4util15Inet4PacketInfoE@Base 1.2+1640
 _ZTSN5nidas4util18IOTimeoutExceptionE@Base 1.2+1640
 _ZTSN5nidas4util25InvalidParameterExceptionE@Base 1.2+1640
 _ZTSN5nidas4util8McSocketINS0_14DatagramSocketEEE@Base 1.2+1640
 _ZTSN5nidas4util8McSocketINS0_6SocketEEE@Base 1.2+1640
 _ZTSN5nidas4util9ExceptionE@Base 1.2+1640
 _ZTSN5nidas5dynld10IEEE_FloatE@Base 1.2+1640
 _ZTSN5nidas5dynld11AsciiOutputE@Base 1.2+1640
 _ZTSN5nidas5dynld11TSI_CPC3772E@Base 1.2+1640
 _ZTSN5nidas5dynld11Uio48Sensor10MyIODeviceE@Base 1.2+1640
 _ZTSN5nidas5dynld11Uio48Sensor14MyLooperClientE@Base 1.2+1640
 _ZTSN5nidas5dynld11Uio48SensorE@Base 1.2+1640
 _ZTSN5nidas5dynld12Bzip2FileSetE@Base 1.2+1640
 _ZTSN5nidas5dynld12IR104_RelaysE@Base 1.2+1640
 _ZTSN5nidas5dynld13DSC_A2DSensorE@Base 1.2+1640
 _ZTSN5nidas5dynld14SampleArchiverE@Base 1.2+1640
 _ZTSN5nidas5dynld15DSC_FreqCounterE@Base 1.2+1640
 _ZTSN5nidas5dynld15DSMSerialSensorE@Base 1.2+1640
 _ZTSN5nidas5dynld15GPS_NMEA_SerialE@Base 1.2+1640
 _ZTSN5nidas5dynld15ParoSci_202BG_PE@Base 1.2+1640
 _ZTSN5nidas5dynld15ParoSci_202BG_TE@Base 1.2+1640
 _ZTSN5nidas5dynld15SampleProcessorE@Base 1.2+1640
 _ZTSN5nidas5dynld15UDPSampleOutput17ConnectionMonitorE@Base 1.2+1640
 _ZTSN5nidas5dynld15UDPSampleOutput17XMLSocketListenerE@Base 1.2+1640
 _ZTSN5nidas5dynld15UDPSampleOutput18VariableListWorkerE@Base 1.2+1640
 _ZTSN5nidas5dynld15UDPSampleOutputE@Base 1.2+1640
 _ZTSN5nidas5dynld15UDPSocketSensorE@Base 1.2+1640
 _ZTSN5nidas5dynld16DSC_PulseCounterE@Base 1.2+1640
 _ZTSN5nidas5dynld16RawSampleService6WorkerE@Base 1.2+1640
 _ZTSN5nidas5dynld16RawSampleServiceE@Base 1.2+1640
 _ZTSN5nidas5dynld16XMLConfigService6WorkerE@Base 1.2+1640
 _ZTSN5nidas5dynld16XMLConfigServiceE@Base 1.2+1640
 _ZTSN5nidas5dynld17SampleInputStreamE@Base 1.2+1640
 _ZTSN5nidas5dynld17WatchedFileSensorE@Base 1.2+1640
 _ZTSN5nidas5dynld18GPS_Novatel_SerialE@Base 1.2+1640
 _ZTSN5nidas5dynld18SampleOutputStreamE@Base 1.2+1640
 _ZTSN5nidas5dynld18StatisticsCruncherE@Base 1.2+1640
 _ZTSN5nidas5dynld19StatisticsProcessorE@Base 1.2+1640
 _ZTSN5nidas5dynld19XMLConfigAllServiceE@Base 1.2+1640
 _ZTSN5nidas5dynld20RawSampleInputStreamE@Base 1.2+1640
 _ZTSN5nidas5dynld21RawSampleOutputStreamE@Base 1.2+1640
 _ZTSN5nidas5dynld3iss10TiltSensorE@Base 1.2+1640
 _ZTSN5nidas5dynld3iss11WICORSensorE@Base 1.2+1640
 _ZTSN5nidas5dynld3raf10A2D_SerialE@Base 1.2+1640
 _ZTSN5nidas5dynld3raf10CDP_SerialE@Base 1.2+1640
 _ZTSN5nidas5dynld3raf10IRIGSensorE@Base 1.2+1640
 _ZTSN5nidas5dynld3raf10LamsSensorE@Base 1.2+1640
 _ZTSN5nidas5dynld3raf10PIP_SerialE@Base 1.2+1640
 _ZTSN5nidas5dynld3raf10PPT_SerialE@Base 1.2+1640
 _ZTSN5nidas5dynld3raf10StopSignalE@Base 1.2+1640
 _ZTSN5nidas5dynld3raf10SyncServerE@Base 1.2+1640
 _ZTSN5nidas5dynld3raf10TwoD32_USBE@Base 1.2+1640
 _ZTSN5nidas5dynld3raf10TwoD64_USBE@Base 1.2+1640
 _ZTSN5nidas5dynld3raf10TwoD_HouseE@Base 1.2+1640
 _ZTSN5nidas5dynld3raf11BCPD_SerialE@Base 1.2+1640
 _ZTSN5nidas5dynld3raf12CVIProcessorE@Base 1.2+1640
 _ZTSN5nidas5dynld3raf12CVI_LV_InputE@Base 1.2+1640
 _ZTSN5nidas5dynld3raf12UHSAS_SerialE@Base 1.2+1640
 _ZTSN5nidas5dynld3raf12VCSEL_SerialE@Base 1.2+1640
 _ZTSN5nidas5dynld3raf13DSMMesaSensorE@Base 1.2+1640
 _ZTSN5nidas5dynld3raf13IRS_HW_YG1854E@Base 1.2+1640
 _ZTSN5nidas5dynld3raf13LamsNetSensorE@Base 1.2+1640
 _ZTSN5nidas5dynld3raf13SPP100_SerialE@Base 1.2+1640
 _ZTSN5nidas5dynld3raf13SPP200_SerialE@Base 1.2+1640
 _ZTSN5nidas5dynld3raf13SPP300_SerialE@Base 1.2+1640
 _ZTSN5nidas5dynld3raf13SidsNetSensorE@Base 1.2+1640
 _ZTSN5nidas5dynld3raf13TwoD64_USB_v3E@Base 1.2+1640
 _ZTSN5nidas5dynld3raf13VCSEL2_SerialE@Base 1.2+1640
 _ZTSN5nidas5dynld3raf14DSMArincSensorE@Base 1.2+1640
 _ZTSN5nidas5dynld3raf14PSI9116_SensorE@Base 1.2+1640
 _ZTSN5nidas5dynld3raf14UDPArincSensorE@Base 1.2+1640
 _ZTSN5nidas5dynld3raf15DSMAnalogSensorE@Base 1.2+1640
 _ZTSN5nidas5dynld3raf15IRS_HW_HG2001GDE@Base 1.2+1640
 _ZTSN5nidas5dynld3raf15TwoD_ProcessingE@Base 1.2+1640
 _ZTSN5nidas5dynld3raf16ADC_HW_EB7022597E@Base 1.2+1640
 _ZTSN5nidas5dynld3raf16LSZ_HW_EB7032239E@Base 1.2+1640
 _ZTSN5nidas5dynld3raf16SyncRecordReaderE@Base 1.2+1640
 _ZTSN5nidas5dynld3raf16SyncRecordSourceE@Base 1.2+1640
 _ZTSN5nidas5dynld3raf17GPS_HW_HG2021GB02E@Base 1.2+1640
 _ZTSN5nidas5dynld3raf18A2DBoardTempSensorE@Base 1.2+1640
 _ZTSN5nidas5dynld3raf18SyncRecordVariableE@Base 1.2+1640
 _ZTSN5nidas5dynld3raf19SyncRecordGeneratorE@Base 1.2+1640
 _ZTSN5nidas5dynld3raf22SyncRecHeaderExceptionE@Base 1.2+1640
 _ZTSN5nidas5dynld3raf5TwoDSE@Base 1.2+1640
 _ZTSN5nidas5dynld3raf6WatlowE@Base 1.2+1640
 _ZTSN5nidas5dynld3raf8AircraftE@Base 1.2+1640
 _ZTSN5nidas5dynld3raf8TwoD_USBE@Base 1.2+1640
 _ZTSN5nidas5dynld3raf9AlicatSDIE@Base 1.2+1640
 _ZTSN5nidas5dynld3raf9Arinc_IRSE@Base 1.2+1640
 _ZTSN5nidas5dynld3raf9CVIOutputE@Base 1.2+1640
 _ZTSN5nidas5dynld3raf9Extract2DE@Base 1.2+1640
 _ZTSN5nidas5dynld3raf9PHIPS_UDPE@Base 1.2+1640
 _ZTSN5nidas5dynld3raf9PIP_ImageE@Base 1.2+1640
 _ZTSN5nidas5dynld3raf9SppSerialE@Base 1.2+1640
 _ZTSN5nidas5dynld4isff10ATIK_SonicE@Base 1.2+1640
 _ZTSN5nidas5dynld4isff10CS_KryptonE@Base 1.2+1640
 _ZTSN5nidas5dynld4isff10RebsLinearE@Base 1.2+1640
 _ZTSN5nidas5dynld4isff10WisardMoteE@Base 1.2+1640
 _ZTSN5nidas5dynld4isff11CSAT3_SonicE@Base 1.2+1640
 _ZTSN5nidas5dynld4isff11CU_ColdwireE@Base 1.2+1640
 _ZTSN5nidas5dynld4isff13GroundStationE@Base 1.2+1640
 _ZTSN5nidas5dynld4isff14CSI_CRX_BinaryE@Base 1.2+1640
 _ZTSN5nidas5dynld4isff14CSI_IRGA_SonicE@Base 1.2+1640
 _ZTSN5nidas5dynld4isff15SonicAnemometerE@Base 1.2+1640
 _ZTSN5nidas5dynld4isff6Wind2DE@Base 1.2+1640
 _ZTSN5nidas5dynld4isff6Wind3DE@Base 1.2+1640
 _ZTSN5nidas5dynld4isff7MOSMote14MOS_TimeSyncerE@Base 1.2+1640
 _ZTSN5nidas5dynld4isff7MOSMoteE@Base 1.2+1640
 _ZTSN5nidas5dynld4isff8NCAR_TRHE@Base 1.2+1640
 _ZTSN5nidas5dynld4isff8PropVaneE@Base 1.2+1640
 _ZTSN5nidas5dynld4isff9DAUSensorE@Base 1.2+1640
 _ZTSN5nidas5dynld4isff9Licor7500E@Base 1.2+1640
 _ZTSN5nidas5dynld7FileSetE@Base 1.2+1640
 _ZTSN5nidas5dynld9A2DSensor15A2DBoxcarConfigE@Base 1.2+1640
 _ZTSN5nidas5dynld9A2DSensor15A2DSampleConfigE@Base 1.2+1640
 _ZTSN5nidas5dynld9A2DSensor16A2DTimeAvgConfigE@Base 1.2+1640
 _ZTSN5nidas5dynld9A2DSensorE@Base 1.2+1640
 _ZTSN5nidas5dynld9ChronyLogE@Base 1.2+1640
 _ZTSN5nidas5dynld9DSC_EventE@Base 1.2+1640
 _ZTSN5nidas5dynld9ModbusRTU12ModbusThreadE@Base 1.2+1640
 _ZTSN5nidas5dynld9ModbusRTU14ModbusIODeviceE@Base 1.2+1640
 _ZTSN5nidas5dynld9ModbusRTU26ModbusMessageStreamScannerE@Base 1.2+1640
 _ZTSN5nidas5dynld9ModbusRTUE@Base 1.2+1640
 _ZTSN5nidas5dynld9WxtSensorE@Base 1.2+1640
 _ZTTN5nidas5dynld3iss11WICORSensorE@Base 1.2+1640
 _ZTV14SyncReaderStop@Base 1.2+1640
 _ZTVN11xercesc_3_210XMLDeleterE@Base 1.2+1640
 _ZTVN11xercesc_3_213XMLAttDefListE@Base 1.2+1640
 _ZTVN5nidas4core10ParameterTINSt7__cxx1112basic_stringIcSt11char_traitsIcESaIcEEEEE@Base 1.2+1640
 _ZTVN5nidas4core10SamplePoolINS0_7SampleTIcEEEE@Base 1.2+1640
 _ZTVN5nidas4core10SamplePoolINS0_7SampleTIdEEEE@Base 1.2+1640
 _ZTVN5nidas4core10SamplePoolINS0_7SampleTIfEEEE@Base 1.2+1640
 _ZTVN5nidas4core10SamplePoolINS0_7SampleTIjEEEE@Base 1.2+1640
 _ZTVN5nidas4core11McSocketUDP10MyMcSocketE@Base 1.2+1640
 _ZTVN5nidas4core12XMLExceptionE@Base 1.2+1640
 _ZTVN5nidas4core21SampleLengthExceptionE@Base 1.2+1640
 _ZTVN5nidas4core22CalFileHandlerFunctionISt9binder1stISt10mem_fun1_tIbNS_5dynld4isff8NCAR_TRHEPNS0_7CalFileEEEEE@Base 1.2+1640
 _ZTVN5nidas4core6SampleE@Base 1.2+1640
 _ZTVN5nidas4core7SampleTIcEE@Base 1.2+1640
 _ZTVN5nidas4core7SampleTIdEE@Base 1.2+1640
 _ZTVN5nidas4core7SampleTIfEE@Base 1.2+1640
 _ZTVN5nidas4core7SampleTIjEE@Base 1.2+1640
 _ZTVN5nidas4core8IODeviceE@Base 1.2+1640
 _ZTVN5nidas4core8McSocket10MyMcSocketE@Base 1.2+1640
 _ZTVN5nidas4core9IOChannelE@Base 1.2+1640
 _ZTVN5nidas4util11IOExceptionE@Base 1.2+1640
 _ZTVN5nidas4util12EOFExceptionE@Base 1.2+1640
 _ZTVN5nidas4util15Inet4PacketInfoE@Base 1.2+1640
 _ZTVN5nidas4util18IOTimeoutExceptionE@Base 1.2+1640
 _ZTVN5nidas4util25InvalidParameterExceptionE@Base 1.2+1640
 _ZTVN5nidas4util8McSocketINS0_14DatagramSocketEEE@Base 1.2+1640
 _ZTVN5nidas4util8McSocketINS0_6SocketEEE@Base 1.2+1640
 _ZTVN5nidas4util9ExceptionE@Base 1.2+1640
 _ZTVN5nidas5dynld10IEEE_FloatE@Base 1.2+1640
 _ZTVN5nidas5dynld11AsciiOutputE@Base 1.2+1640
 _ZTVN5nidas5dynld11TSI_CPC3772E@Base 1.2+1640
 _ZTVN5nidas5dynld11Uio48Sensor10MyIODeviceE@Base 1.2+1640
 _ZTVN5nidas5dynld11Uio48Sensor14MyLooperClientE@Base 1.2+1640
 _ZTVN5nidas5dynld11Uio48SensorE@Base 1.2+1640
 _ZTVN5nidas5dynld12Bzip2FileSetE@Base 1.2+1640
 _ZTVN5nidas5dynld12IR104_RelaysE@Base 1.2+1640
 _ZTVN5nidas5dynld13DSC_A2DSensorE@Base 1.2+1640
 _ZTVN5nidas5dynld14SampleArchiverE@Base 1.2+1640
 _ZTVN5nidas5dynld15DSC_FreqCounterE@Base 1.2+1640
 _ZTVN5nidas5dynld15DSMSerialSensorE@Base 1.2+1640
 _ZTVN5nidas5dynld15GPS_NMEA_SerialE@Base 1.2+1640
 _ZTVN5nidas5dynld15ParoSci_202BG_PE@Base 1.2+1640
 _ZTVN5nidas5dynld15ParoSci_202BG_TE@Base 1.2+1640
 _ZTVN5nidas5dynld15SampleProcessorE@Base 1.2+1640
 _ZTVN5nidas5dynld15UDPSampleOutput17ConnectionMonitorE@Base 1.2+1640
 _ZTVN5nidas5dynld15UDPSampleOutput17XMLSocketListenerE@Base 1.2+1640
 _ZTVN5nidas5dynld15UDPSampleOutput18VariableListWorkerE@Base 1.2+1640
 _ZTVN5nidas5dynld15UDPSampleOutputE@Base 1.2+1640
 _ZTVN5nidas5dynld15UDPSocketSensorE@Base 1.2+1640
 _ZTVN5nidas5dynld16DSC_PulseCounterE@Base 1.2+1640
 _ZTVN5nidas5dynld16RawSampleService6WorkerE@Base 1.2+1640
 _ZTVN5nidas5dynld16RawSampleServiceE@Base 1.2+1640
 _ZTVN5nidas5dynld16XMLConfigService6WorkerE@Base 1.2+1640
 _ZTVN5nidas5dynld16XMLConfigServiceE@Base 1.2+1640
 _ZTVN5nidas5dynld17SampleInputStreamE@Base 1.2+1640
 _ZTVN5nidas5dynld17WatchedFileSensorE@Base 1.2+1640
 _ZTVN5nidas5dynld18GPS_Novatel_SerialE@Base 1.2+1640
 _ZTVN5nidas5dynld18SampleOutputStreamE@Base 1.2+1640
 _ZTVN5nidas5dynld18StatisticsCruncherE@Base 1.2+1640
 _ZTVN5nidas5dynld19StatisticsProcessorE@Base 1.2+1640
 _ZTVN5nidas5dynld19XMLConfigAllServiceE@Base 1.2+1640
 _ZTVN5nidas5dynld20RawSampleInputStreamE@Base 1.2+1640
 _ZTVN5nidas5dynld21RawSampleOutputStreamE@Base 1.2+1640
 _ZTVN5nidas5dynld3iss10TiltSensorE@Base 1.2+1640
 _ZTVN5nidas5dynld3iss11WICORSensorE@Base 1.2+1640
 _ZTVN5nidas5dynld3raf10A2D_SerialE@Base 1.2+1640
 _ZTVN5nidas5dynld3raf10CDP_SerialE@Base 1.2+1640
 _ZTVN5nidas5dynld3raf10IRIGSensorE@Base 1.2+1640
 _ZTVN5nidas5dynld3raf10LamsSensorE@Base 1.2+1640
 _ZTVN5nidas5dynld3raf10PIP_SerialE@Base 1.2+1640
 _ZTVN5nidas5dynld3raf10PPT_SerialE@Base 1.2+1640
 _ZTVN5nidas5dynld3raf10SyncServerE@Base 1.2+1640
 _ZTVN5nidas5dynld3raf10TwoD32_USBE@Base 1.2+1640
 _ZTVN5nidas5dynld3raf10TwoD64_USBE@Base 1.2+1640
 _ZTVN5nidas5dynld3raf10TwoD_HouseE@Base 1.2+1640
 _ZTVN5nidas5dynld3raf11BCPD_SerialE@Base 1.2+1640
 _ZTVN5nidas5dynld3raf12CVIProcessorE@Base 1.2+1640
 _ZTVN5nidas5dynld3raf12CVI_LV_InputE@Base 1.2+1640
 _ZTVN5nidas5dynld3raf12UHSAS_SerialE@Base 1.2+1640
 _ZTVN5nidas5dynld3raf12VCSEL_SerialE@Base 1.2+1640
 _ZTVN5nidas5dynld3raf13DSMMesaSensorE@Base 1.2+1640
 _ZTVN5nidas5dynld3raf13IRS_HW_YG1854E@Base 1.2+1640
 _ZTVN5nidas5dynld3raf13LamsNetSensorE@Base 1.2+1640
 _ZTVN5nidas5dynld3raf13SPP100_SerialE@Base 1.2+1640
 _ZTVN5nidas5dynld3raf13SPP200_SerialE@Base 1.2+1640
 _ZTVN5nidas5dynld3raf13SPP300_SerialE@Base 1.2+1640
 _ZTVN5nidas5dynld3raf13SidsNetSensorE@Base 1.2+1640
 _ZTVN5nidas5dynld3raf13TwoD64_USB_v3E@Base 1.2+1640
 _ZTVN5nidas5dynld3raf13VCSEL2_SerialE@Base 1.2+1640
 _ZTVN5nidas5dynld3raf14DSMArincSensorE@Base 1.2+1640
 _ZTVN5nidas5dynld3raf14PSI9116_SensorE@Base 1.2+1640
 _ZTVN5nidas5dynld3raf14UDPArincSensorE@Base 1.2+1640
 _ZTVN5nidas5dynld3raf15DSMAnalogSensorE@Base 1.2+1640
 _ZTVN5nidas5dynld3raf15IRS_HW_HG2001GDE@Base 1.2+1640
 _ZTVN5nidas5dynld3raf15TwoD_ProcessingE@Base 1.2+1640
 _ZTVN5nidas5dynld3raf16ADC_HW_EB7022597E@Base 1.2+1640
 _ZTVN5nidas5dynld3raf16LSZ_HW_EB7032239E@Base 1.2+1640
 _ZTVN5nidas5dynld3raf16SyncRecordReaderE@Base 1.2+1640
 _ZTVN5nidas5dynld3raf16SyncRecordSourceE@Base 1.2+1640
 _ZTVN5nidas5dynld3raf17GPS_HW_HG2021GB02E@Base 1.2+1640
 _ZTVN5nidas5dynld3raf18A2DBoardTempSensorE@Base 1.2+1640
 _ZTVN5nidas5dynld3raf18SyncRecordVariableE@Base 1.2+1640
 _ZTVN5nidas5dynld3raf19SyncRecordGeneratorE@Base 1.2+1640
 _ZTVN5nidas5dynld3raf22SyncRecHeaderExceptionE@Base 1.2+1640
 _ZTVN5nidas5dynld3raf5TwoDSE@Base 1.2+1640
 _ZTVN5nidas5dynld3raf6WatlowE@Base 1.2+1640
 _ZTVN5nidas5dynld3raf8AircraftE@Base 1.2+1640
 _ZTVN5nidas5dynld3raf8TwoD_USBE@Base 1.2+1640
 _ZTVN5nidas5dynld3raf9AlicatSDIE@Base 1.2+1640
 _ZTVN5nidas5dynld3raf9Arinc_IRSE@Base 1.2+1640
 _ZTVN5nidas5dynld3raf9CVIOutputE@Base 1.2+1640
 _ZTVN5nidas5dynld3raf9Extract2DE@Base 1.2+1640
 _ZTVN5nidas5dynld3raf9PHIPS_UDPE@Base 1.2+1640
 _ZTVN5nidas5dynld3raf9PIP_ImageE@Base 1.2+1640
 _ZTVN5nidas5dynld3raf9SppSerialE@Base 1.2+1640
 _ZTVN5nidas5dynld4isff10ATIK_SonicE@Base 1.2+1640
 _ZTVN5nidas5dynld4isff10CS_KryptonE@Base 1.2+1640
 _ZTVN5nidas5dynld4isff10RebsLinearE@Base 1.2+1640
 _ZTVN5nidas5dynld4isff10WisardMoteE@Base 1.2+1640
 _ZTVN5nidas5dynld4isff11CSAT3_SonicE@Base 1.2+1640
 _ZTVN5nidas5dynld4isff11CU_ColdwireE@Base 1.2+1640
 _ZTVN5nidas5dynld4isff13GroundStationE@Base 1.2+1640
 _ZTVN5nidas5dynld4isff14CSI_CRX_BinaryE@Base 1.2+1640
 _ZTVN5nidas5dynld4isff14CSI_IRGA_SonicE@Base 1.2+1640
 _ZTVN5nidas5dynld4isff15SonicAnemometerE@Base 1.2+1640
 _ZTVN5nidas5dynld4isff6Wind2DE@Base 1.2+1640
 _ZTVN5nidas5dynld4isff6Wind3DE@Base 1.2+1640
 _ZTVN5nidas5dynld4isff7MOSMote14MOS_TimeSyncerE@Base 1.2+1640
 _ZTVN5nidas5dynld4isff7MOSMoteE@Base 1.2+1640
 _ZTVN5nidas5dynld4isff8NCAR_TRHE@Base 1.2+1640
 _ZTVN5nidas5dynld4isff8PropVaneE@Base 1.2+1640
 _ZTVN5nidas5dynld4isff9DAUSensorE@Base 1.2+1640
 _ZTVN5nidas5dynld4isff9Licor7500E@Base 1.2+1640
 _ZTVN5nidas5dynld7FileSetE@Base 1.2+1640
 _ZTVN5nidas5dynld9A2DSensor15A2DBoxcarConfigE@Base 1.2+1640
 _ZTVN5nidas5dynld9A2DSensor15A2DSampleConfigE@Base 1.2+1640
 _ZTVN5nidas5dynld9A2DSensor16A2DTimeAvgConfigE@Base 1.2+1640
 _ZTVN5nidas5dynld9A2DSensorE@Base 1.2+1640
 _ZTVN5nidas5dynld9ChronyLogE@Base 1.2+1640
 _ZTVN5nidas5dynld9DSC_EventE@Base 1.2+1640
 _ZTVN5nidas5dynld9ModbusRTU12ModbusThreadE@Base 1.2+1640
 _ZTVN5nidas5dynld9ModbusRTU14ModbusIODeviceE@Base 1.2+1640
 _ZTVN5nidas5dynld9ModbusRTU26ModbusMessageStreamScannerE@Base 1.2+1640
 _ZTVN5nidas5dynld9ModbusRTUE@Base 1.2+1640
 _ZTVN5nidas5dynld9WxtSensorE@Base 1.2+1640
 _ZTch0_h4_N5nidas5dynld15UDPSampleOutput9connectedEPNS_4core9IOChannelE@Base 1.2+1640
 _ZTch0_h4_N5nidas5dynld17SampleInputStream9connectedEPNS_4core9IOChannelE@Base 1.2+1640
 _ZTch0_h4_N5nidas5dynld18SampleOutputStream9connectedEPNS_4core9IOChannelE@Base 1.2+1640
 _ZTchn4_h4_N5nidas5dynld15UDPSampleOutput9connectedEPNS_4core9IOChannelE@Base 1.2+1640
 _ZTchn4_h4_N5nidas5dynld17SampleInputStream9connectedEPNS_4core9IOChannelE@Base 1.2+1640
 _ZTchn4_h4_N5nidas5dynld18SampleOutputStream9connectedEPNS_4core9IOChannelE@Base 1.2+1640
 _ZThn1072_N5nidas5dynld3raf10TwoD32_USBD0Ev@Base 1.2+1640
 _ZThn1072_N5nidas5dynld3raf10TwoD32_USBD1Ev@Base 1.2+1640
 _ZThn1072_N5nidas5dynld3raf10TwoD64_USBD0Ev@Base 1.2+1640
 _ZThn1072_N5nidas5dynld3raf10TwoD64_USBD1Ev@Base 1.2+1640
 _ZThn1072_N5nidas5dynld3raf13TwoD64_USB_v3D0Ev@Base 1.2+1640
 _ZThn1072_N5nidas5dynld3raf13TwoD64_USB_v3D1Ev@Base 1.2+1640
 _ZThn1072_N5nidas5dynld3raf8TwoD_USB17derivedDataNotifyEPKNS_4core17DerivedDataReaderE@Base 1.2+1640
 _ZThn1072_N5nidas5dynld3raf8TwoD_USBD0Ev@Base 1.2+1640
 _ZThn1072_N5nidas5dynld3raf8TwoD_USBD1Ev@Base 1.2+1640
 _ZThn1116_N5nidas5dynld3raf5TwoDSD0Ev@Base 1.2+1640
 _ZThn1116_N5nidas5dynld3raf5TwoDSD1Ev@Base 1.2+1640
 _ZThn1116_NK5nidas5dynld3raf5TwoDS14NumberOfDiodesEv@Base 1.2+1640
 _ZThn1160_N5nidas5dynld9ChronyLog17printChronyStatusERSo@Base 1.2+1640
 _ZThn1160_N5nidas5dynld9ChronyLogD0Ev@Base 1.2+1640
 _ZThn1160_N5nidas5dynld9ChronyLogD1Ev@Base 1.2+1640
 _ZThn1208_N5nidas5dynld3raf12VCSEL_Serial17derivedDataNotifyEPKNS_4core17DerivedDataReaderE@Base 1.2+1640
 _ZThn1208_N5nidas5dynld3raf12VCSEL_SerialD0Ev@Base 1.2+1640
 _ZThn1208_N5nidas5dynld3raf12VCSEL_SerialD1Ev@Base 1.2+1640
 _ZThn1208_N5nidas5dynld3raf13VCSEL2_Serial17derivedDataNotifyEPKNS_4core17DerivedDataReaderE@Base 1.2+1640
 _ZThn1208_N5nidas5dynld3raf13VCSEL2_SerialD0Ev@Base 1.2+1640
 _ZThn1208_N5nidas5dynld3raf13VCSEL2_SerialD1Ev@Base 1.2+1640
 _ZThn1208_N5nidas5dynld3raf9AlicatSDI17derivedDataNotifyEPKNS_4core17DerivedDataReaderE@Base 1.2+1640
 _ZThn1208_N5nidas5dynld3raf9AlicatSDID0Ev@Base 1.2+1640
 _ZThn1208_N5nidas5dynld3raf9AlicatSDID1Ev@Base 1.2+1640
 _ZThn128_N5nidas5dynld16XMLConfigService9connectedEPNS_4core9IOChannelE@Base 1.2+1640
 _ZThn128_N5nidas5dynld16XMLConfigServiceD0Ev@Base 1.2+1640
 _ZThn128_N5nidas5dynld16XMLConfigServiceD1Ev@Base 1.2+1640
 _ZThn128_N5nidas5dynld19XMLConfigAllService9connectedEPNS_4core9IOChannelE@Base 1.2+1640
 _ZThn128_N5nidas5dynld19XMLConfigAllServiceD0Ev@Base 1.2+1640
 _ZThn128_N5nidas5dynld19XMLConfigAllServiceD1Ev@Base 1.2+1640
 _ZThn1388_N5nidas5dynld3raf10PIP_Serial17derivedDataNotifyEPKNS_4core17DerivedDataReaderE@Base 1.2+1640
 _ZThn1388_N5nidas5dynld3raf10PIP_SerialD0Ev@Base 1.2+1640
 _ZThn1388_N5nidas5dynld3raf10PIP_SerialD1Ev@Base 1.2+1640
 _ZThn176_N5nidas5dynld3raf9CVIOutput17derivedDataNotifyEPKNS_4core17DerivedDataReaderE@Base 1.2+1640
 _ZThn176_N5nidas5dynld3raf9CVIOutputD0Ev@Base 1.2+1640
 _ZThn176_N5nidas5dynld3raf9CVIOutputD1Ev@Base 1.2+1640
 _ZThn328_N5nidas5dynld3raf12CVIProcessor5flushEv@Base 1.2+1640
 _ZThn328_N5nidas5dynld3raf12CVIProcessor7receiveEPKNS_4core6SampleE@Base 1.2+1640
 _ZThn328_N5nidas5dynld3raf12CVIProcessorD0Ev@Base 1.2+1640
 _ZThn328_N5nidas5dynld3raf12CVIProcessorD1Ev@Base 1.2+1640
 _ZThn328_N5nidas5dynld3raf19SyncRecordGenerator10sendHeaderExPNS_4core12SampleOutputE@Base 1.2+1640
 _ZThn328_N5nidas5dynld3raf19SyncRecordGeneratorD0Ev@Base 1.2+1640
 _ZThn328_N5nidas5dynld3raf19SyncRecordGeneratorD1Ev@Base 1.2+1640
 _ZThn388_N5nidas5dynld3raf10SyncServer10disconnectEPNS_4core12SampleOutputE@Base 1.2+1640
 _ZThn388_N5nidas5dynld3raf10SyncServer7connectEPNS_4core12SampleOutputE@Base 1.2+1640
 _ZThn388_N5nidas5dynld3raf10SyncServerD0Ev@Base 1.2+1640
 _ZThn388_N5nidas5dynld3raf10SyncServerD1Ev@Base 1.2+1640
 _ZThn4_N5nidas4core9DSMSensor5flushEv@Base 1.2+1640
 _ZThn4_N5nidas5dynld10IEEE_FloatD0Ev@Base 1.2+1640
 _ZThn4_N5nidas5dynld10IEEE_FloatD1Ev@Base 1.2+1640
 _ZThn4_N5nidas5dynld11AsciiOutputD0Ev@Base 1.2+1640
 _ZThn4_N5nidas5dynld11AsciiOutputD1Ev@Base 1.2+1640
 _ZThn4_N5nidas5dynld11TSI_CPC3772D0Ev@Base 1.2+1640
 _ZThn4_N5nidas5dynld11TSI_CPC3772D1Ev@Base 1.2+1640
 _ZThn4_N5nidas5dynld11Uio48SensorD0Ev@Base 1.2+1640
 _ZThn4_N5nidas5dynld11Uio48SensorD1Ev@Base 1.2+1640
 _ZThn4_N5nidas5dynld12IR104_RelaysD0Ev@Base 1.2+1640
 _ZThn4_N5nidas5dynld12IR104_RelaysD1Ev@Base 1.2+1640
 _ZThn4_N5nidas5dynld13DSC_A2DSensorD0Ev@Base 1.2+1640
 _ZThn4_N5nidas5dynld13DSC_A2DSensorD1Ev@Base 1.2+1640
 _ZThn4_N5nidas5dynld14SampleArchiverD0Ev@Base 1.2+1640
 _ZThn4_N5nidas5dynld14SampleArchiverD1Ev@Base 1.2+1640
 _ZThn4_N5nidas5dynld15DSC_FreqCounterD0Ev@Base 1.2+1640
 _ZThn4_N5nidas5dynld15DSC_FreqCounterD1Ev@Base 1.2+1640
 _ZThn4_N5nidas5dynld15DSMSerialSensorD0Ev@Base 1.2+1640
 _ZThn4_N5nidas5dynld15DSMSerialSensorD1Ev@Base 1.2+1640
 _ZThn4_N5nidas5dynld15GPS_NMEA_SerialD0Ev@Base 1.2+1640
 _ZThn4_N5nidas5dynld15GPS_NMEA_SerialD1Ev@Base 1.2+1640
 _ZThn4_N5nidas5dynld15ParoSci_202BG_PD0Ev@Base 1.2+1640
 _ZThn4_N5nidas5dynld15ParoSci_202BG_PD1Ev@Base 1.2+1640
 _ZThn4_N5nidas5dynld15ParoSci_202BG_TD0Ev@Base 1.2+1640
 _ZThn4_N5nidas5dynld15ParoSci_202BG_TD1Ev@Base 1.2+1640
 _ZThn4_N5nidas5dynld15SampleProcessor10disconnectEPNS_4core12SampleOutputE@Base 1.2+1640
 _ZThn4_N5nidas5dynld15SampleProcessor7connectEPNS_4core12SampleOutputE@Base 1.2+1640
 _ZThn4_N5nidas5dynld15SampleProcessorD0Ev@Base 1.2+1640
 _ZThn4_N5nidas5dynld15SampleProcessorD1Ev@Base 1.2+1640
 _ZThn4_N5nidas5dynld15UDPSampleOutputD0Ev@Base 1.2+1640
 _ZThn4_N5nidas5dynld15UDPSampleOutputD1Ev@Base 1.2+1640
 _ZThn4_N5nidas5dynld15UDPSocketSensorD0Ev@Base 1.2+1640
 _ZThn4_N5nidas5dynld15UDPSocketSensorD1Ev@Base 1.2+1640
 _ZThn4_N5nidas5dynld16DSC_PulseCounterD0Ev@Base 1.2+1640
 _ZThn4_N5nidas5dynld16DSC_PulseCounterD1Ev@Base 1.2+1640
 _ZThn4_N5nidas5dynld17SampleInputStreamD0Ev@Base 1.2+1640
 _ZThn4_N5nidas5dynld17SampleInputStreamD1Ev@Base 1.2+1640
 _ZThn4_N5nidas5dynld17WatchedFileSensorD0Ev@Base 1.2+1640
 _ZThn4_N5nidas5dynld17WatchedFileSensorD1Ev@Base 1.2+1640
 _ZThn4_N5nidas5dynld18GPS_Novatel_SerialD0Ev@Base 1.2+1640
 _ZThn4_N5nidas5dynld18GPS_Novatel_SerialD1Ev@Base 1.2+1640
 _ZThn4_N5nidas5dynld18SampleOutputStreamD0Ev@Base 1.2+1640
 _ZThn4_N5nidas5dynld18SampleOutputStreamD1Ev@Base 1.2+1640
 _ZThn4_N5nidas5dynld18StatisticsCruncher12addSampleTagEPKNS_4core9SampleTagE@Base 1.2+1640
 _ZThn4_N5nidas5dynld18StatisticsCruncher15addSampleClientEPNS_4core12SampleClientE@Base 1.2+1640
 _ZThn4_N5nidas5dynld18StatisticsCruncher15removeSampleTagEPKNS_4core9SampleTagE@Base 1.2+1640
 _ZThn4_N5nidas5dynld18StatisticsCruncher18getRawSampleSourceEv@Base 1.2+1640
 _ZThn4_N5nidas5dynld18StatisticsCruncher18removeSampleClientEPNS_4core12SampleClientE@Base 1.2+1640
 _ZThn4_N5nidas5dynld18StatisticsCruncher21addSampleClientForTagEPNS_4core12SampleClientEPKNS2_9SampleTagE@Base 1.2+1640
 _ZThn4_N5nidas5dynld18StatisticsCruncher24getProcessedSampleSourceEv@Base 1.2+1640
 _ZThn4_N5nidas5dynld18StatisticsCruncher24removeSampleClientForTagEPNS_4core12SampleClientEPKNS2_9SampleTagE@Base 1.2+1640
 _ZThn4_N5nidas5dynld18StatisticsCruncher5flushEv@Base 1.2+1640
 _ZThn4_N5nidas5dynld18StatisticsCruncherD0Ev@Base 1.2+1640
 _ZThn4_N5nidas5dynld18StatisticsCruncherD1Ev@Base 1.2+1640
 _ZThn4_N5nidas5dynld19StatisticsProcessor10disconnectEPNS_4core12SampleOutputE@Base 1.2+1640
 _ZThn4_N5nidas5dynld19StatisticsProcessor7connectEPNS_4core12SampleOutputE@Base 1.2+1640
 _ZThn4_N5nidas5dynld19StatisticsProcessorD0Ev@Base 1.2+1640
 _ZThn4_N5nidas5dynld19StatisticsProcessorD1Ev@Base 1.2+1640
 _ZThn4_N5nidas5dynld20RawSampleInputStreamD0Ev@Base 1.2+1640
 _ZThn4_N5nidas5dynld20RawSampleInputStreamD1Ev@Base 1.2+1640
 _ZThn4_N5nidas5dynld21RawSampleOutputStreamD0Ev@Base 1.2+1640
 _ZThn4_N5nidas5dynld21RawSampleOutputStreamD1Ev@Base 1.2+1640
 _ZThn4_N5nidas5dynld3iss10TiltSensorD0Ev@Base 1.2+1640
 _ZThn4_N5nidas5dynld3iss10TiltSensorD1Ev@Base 1.2+1640
 _ZThn4_N5nidas5dynld3raf10A2D_SerialD0Ev@Base 1.2+1640
 _ZThn4_N5nidas5dynld3raf10A2D_SerialD1Ev@Base 1.2+1640
 _ZThn4_N5nidas5dynld3raf10CDP_SerialD0Ev@Base 1.2+1640
 _ZThn4_N5nidas5dynld3raf10CDP_SerialD1Ev@Base 1.2+1640
 _ZThn4_N5nidas5dynld3raf10IRIGSensorD0Ev@Base 1.2+1640
 _ZThn4_N5nidas5dynld3raf10IRIGSensorD1Ev@Base 1.2+1640
 _ZThn4_N5nidas5dynld3raf10LamsSensorD0Ev@Base 1.2+1640
 _ZThn4_N5nidas5dynld3raf10LamsSensorD1Ev@Base 1.2+1640
 _ZThn4_N5nidas5dynld3raf10PIP_SerialD0Ev@Base 1.2+1640
 _ZThn4_N5nidas5dynld3raf10PIP_SerialD1Ev@Base 1.2+1640
 _ZThn4_N5nidas5dynld3raf10PPT_SerialD0Ev@Base 1.2+1640
 _ZThn4_N5nidas5dynld3raf10PPT_SerialD1Ev@Base 1.2+1640
 _ZThn4_N5nidas5dynld3raf10TwoD32_USBD0Ev@Base 1.2+1640
 _ZThn4_N5nidas5dynld3raf10TwoD32_USBD1Ev@Base 1.2+1640
 _ZThn4_N5nidas5dynld3raf10TwoD64_USBD0Ev@Base 1.2+1640
 _ZThn4_N5nidas5dynld3raf10TwoD64_USBD1Ev@Base 1.2+1640
 _ZThn4_N5nidas5dynld3raf10TwoD_HouseD0Ev@Base 1.2+1640
 _ZThn4_N5nidas5dynld3raf10TwoD_HouseD1Ev@Base 1.2+1640
 _ZThn4_N5nidas5dynld3raf11BCPD_SerialD0Ev@Base 1.2+1640
 _ZThn4_N5nidas5dynld3raf11BCPD_SerialD1Ev@Base 1.2+1640
 _ZThn4_N5nidas5dynld3raf12CVIProcessor10disconnectEPNS_4core12SampleOutputE@Base 1.2+1640
 _ZThn4_N5nidas5dynld3raf12CVIProcessor7connectEPNS_4core12SampleOutputE@Base 1.2+1640
 _ZThn4_N5nidas5dynld3raf12CVIProcessorD0Ev@Base 1.2+1640
 _ZThn4_N5nidas5dynld3raf12CVIProcessorD1Ev@Base 1.2+1640
 _ZThn4_N5nidas5dynld3raf12CVI_LV_InputD0Ev@Base 1.2+1640
 _ZThn4_N5nidas5dynld3raf12CVI_LV_InputD1Ev@Base 1.2+1640
 _ZThn4_N5nidas5dynld3raf12UHSAS_SerialD0Ev@Base 1.2+1640
 _ZThn4_N5nidas5dynld3raf12UHSAS_SerialD1Ev@Base 1.2+1640
 _ZThn4_N5nidas5dynld3raf12VCSEL_SerialD0Ev@Base 1.2+1640
 _ZThn4_N5nidas5dynld3raf12VCSEL_SerialD1Ev@Base 1.2+1640
 _ZThn4_N5nidas5dynld3raf13DSMMesaSensorD0Ev@Base 1.2+1640
 _ZThn4_N5nidas5dynld3raf13DSMMesaSensorD1Ev@Base 1.2+1640
 _ZThn4_N5nidas5dynld3raf13IRS_HW_YG1854D0Ev@Base 1.2+1640
 _ZThn4_N5nidas5dynld3raf13IRS_HW_YG1854D1Ev@Base 1.2+1640
 _ZThn4_N5nidas5dynld3raf13LamsNetSensorD0Ev@Base 1.2+1640
 _ZThn4_N5nidas5dynld3raf13LamsNetSensorD1Ev@Base 1.2+1640
 _ZThn4_N5nidas5dynld3raf13SPP100_SerialD0Ev@Base 1.2+1640
 _ZThn4_N5nidas5dynld3raf13SPP100_SerialD1Ev@Base 1.2+1640
 _ZThn4_N5nidas5dynld3raf13SPP200_SerialD0Ev@Base 1.2+1640
 _ZThn4_N5nidas5dynld3raf13SPP200_SerialD1Ev@Base 1.2+1640
 _ZThn4_N5nidas5dynld3raf13SPP300_SerialD0Ev@Base 1.2+1640
 _ZThn4_N5nidas5dynld3raf13SPP300_SerialD1Ev@Base 1.2+1640
 _ZThn4_N5nidas5dynld3raf13SidsNetSensorD0Ev@Base 1.2+1640
 _ZThn4_N5nidas5dynld3raf13SidsNetSensorD1Ev@Base 1.2+1640
 _ZThn4_N5nidas5dynld3raf13TwoD64_USB_v3D0Ev@Base 1.2+1640
 _ZThn4_N5nidas5dynld3raf13TwoD64_USB_v3D1Ev@Base 1.2+1640
 _ZThn4_N5nidas5dynld3raf13VCSEL2_SerialD0Ev@Base 1.2+1640
 _ZThn4_N5nidas5dynld3raf13VCSEL2_SerialD1Ev@Base 1.2+1640
 _ZThn4_N5nidas5dynld3raf14DSMArincSensorD0Ev@Base 1.2+1640
 _ZThn4_N5nidas5dynld3raf14DSMArincSensorD1Ev@Base 1.2+1640
 _ZThn4_N5nidas5dynld3raf14PSI9116_SensorD0Ev@Base 1.2+1640
 _ZThn4_N5nidas5dynld3raf14PSI9116_SensorD1Ev@Base 1.2+1640
 _ZThn4_N5nidas5dynld3raf14UDPArincSensorD0Ev@Base 1.2+1640
 _ZThn4_N5nidas5dynld3raf14UDPArincSensorD1Ev@Base 1.2+1640
 _ZThn4_N5nidas5dynld3raf15DSMAnalogSensorD0Ev@Base 1.2+1640
 _ZThn4_N5nidas5dynld3raf15DSMAnalogSensorD1Ev@Base 1.2+1640
 _ZThn4_N5nidas5dynld3raf15IRS_HW_HG2001GDD0Ev@Base 1.2+1640
 _ZThn4_N5nidas5dynld3raf15IRS_HW_HG2001GDD1Ev@Base 1.2+1640
 _ZThn4_N5nidas5dynld3raf16ADC_HW_EB7022597D0Ev@Base 1.2+1640
 _ZThn4_N5nidas5dynld3raf16ADC_HW_EB7022597D1Ev@Base 1.2+1640
 _ZThn4_N5nidas5dynld3raf16LSZ_HW_EB7032239D0Ev@Base 1.2+1640
 _ZThn4_N5nidas5dynld3raf16LSZ_HW_EB7032239D1Ev@Base 1.2+1640
 _ZThn4_N5nidas5dynld3raf16SyncRecordSource12addSampleTagEPKNS_4core9SampleTagE@Base 1.2+1640
 _ZThn4_N5nidas5dynld3raf16SyncRecordSource15addSampleClientEPNS_4core12SampleClientE@Base 1.2+1640
 _ZThn4_N5nidas5dynld3raf16SyncRecordSource15removeSampleTagEPKNS_4core9SampleTagE@Base 1.2+1640
 _ZThn4_N5nidas5dynld3raf16SyncRecordSource18getRawSampleSourceEv@Base 1.2+1640
 _ZThn4_N5nidas5dynld3raf16SyncRecordSource18removeSampleClientEPNS_4core12SampleClientE@Base 1.2+1640
 _ZThn4_N5nidas5dynld3raf16SyncRecordSource21addSampleClientForTagEPNS_4core12SampleClientEPKNS3_9SampleTagE@Base 1.2+1640
 _ZThn4_N5nidas5dynld3raf16SyncRecordSource24getProcessedSampleSourceEv@Base 1.2+1640
 _ZThn4_N5nidas5dynld3raf16SyncRecordSource24removeSampleClientForTagEPNS_4core12SampleClientEPKNS3_9SampleTagE@Base 1.2+1640
 _ZThn4_N5nidas5dynld3raf16SyncRecordSource5flushEv@Base 1.2+1640
 _ZThn4_N5nidas5dynld3raf16SyncRecordSourceD0Ev@Base 1.2+1640
 _ZThn4_N5nidas5dynld3raf16SyncRecordSourceD1Ev@Base 1.2+1640
 _ZThn4_N5nidas5dynld3raf17GPS_HW_HG2021GB02D0Ev@Base 1.2+1640
 _ZThn4_N5nidas5dynld3raf17GPS_HW_HG2021GB02D1Ev@Base 1.2+1640
 _ZThn4_N5nidas5dynld3raf18A2DBoardTempSensorD0Ev@Base 1.2+1640
 _ZThn4_N5nidas5dynld3raf18A2DBoardTempSensorD1Ev@Base 1.2+1640
 _ZThn4_N5nidas5dynld3raf19SyncRecordGenerator10disconnectEPNS_4core12SampleOutputE@Base 1.2+1640
 _ZThn4_N5nidas5dynld3raf19SyncRecordGenerator7connectEPNS_4core12SampleOutputE@Base 1.2+1640
 _ZThn4_N5nidas5dynld3raf19SyncRecordGeneratorD0Ev@Base 1.2+1640
 _ZThn4_N5nidas5dynld3raf19SyncRecordGeneratorD1Ev@Base 1.2+1640
 _ZThn4_N5nidas5dynld3raf5TwoDSD0Ev@Base 1.2+1640
 _ZThn4_N5nidas5dynld3raf5TwoDSD1Ev@Base 1.2+1640
 _ZThn4_N5nidas5dynld3raf6WatlowD0Ev@Base 1.2+1640
 _ZThn4_N5nidas5dynld3raf6WatlowD1Ev@Base 1.2+1640
 _ZThn4_N5nidas5dynld3raf8TwoD_USBD0Ev@Base 1.2+1640
 _ZThn4_N5nidas5dynld3raf8TwoD_USBD1Ev@Base 1.2+1640
 _ZThn4_N5nidas5dynld3raf9AlicatSDID0Ev@Base 1.2+1640
 _ZThn4_N5nidas5dynld3raf9AlicatSDID1Ev@Base 1.2+1640
 _ZThn4_N5nidas5dynld3raf9CVIOutputD0Ev@Base 1.2+1640
 _ZThn4_N5nidas5dynld3raf9CVIOutputD1Ev@Base 1.2+1640
 _ZThn4_N5nidas5dynld3raf9PHIPS_UDPD0Ev@Base 1.2+1640
 _ZThn4_N5nidas5dynld3raf9PHIPS_UDPD1Ev@Base 1.2+1640
 _ZThn4_N5nidas5dynld3raf9PIP_ImageD0Ev@Base 1.2+1640
 _ZThn4_N5nidas5dynld3raf9PIP_ImageD1Ev@Base 1.2+1640
 _ZThn4_N5nidas5dynld3raf9SppSerialD0Ev@Base 1.2+1640
 _ZThn4_N5nidas5dynld3raf9SppSerialD1Ev@Base 1.2+1640
 _ZThn4_N5nidas5dynld4isff10ATIK_SonicD0Ev@Base 1.2+1640
 _ZThn4_N5nidas5dynld4isff10ATIK_SonicD1Ev@Base 1.2+1640
 _ZThn4_N5nidas5dynld4isff10WisardMoteD0Ev@Base 1.2+1640
 _ZThn4_N5nidas5dynld4isff10WisardMoteD1Ev@Base 1.2+1640
 _ZThn4_N5nidas5dynld4isff11CSAT3_SonicD0Ev@Base 1.2+1640
 _ZThn4_N5nidas5dynld4isff11CSAT3_SonicD1Ev@Base 1.2+1640
 _ZThn4_N5nidas5dynld4isff11CU_ColdwireD0Ev@Base 1.2+1640
 _ZThn4_N5nidas5dynld4isff11CU_ColdwireD1Ev@Base 1.2+1640
 _ZThn4_N5nidas5dynld4isff14CSI_CRX_BinaryD0Ev@Base 1.2+1640
 _ZThn4_N5nidas5dynld4isff14CSI_CRX_BinaryD1Ev@Base 1.2+1640
 _ZThn4_N5nidas5dynld4isff14CSI_IRGA_SonicD0Ev@Base 1.2+1640
 _ZThn4_N5nidas5dynld4isff14CSI_IRGA_SonicD1Ev@Base 1.2+1640
 _ZThn4_N5nidas5dynld4isff15SonicAnemometerD0Ev@Base 1.2+1640
 _ZThn4_N5nidas5dynld4isff15SonicAnemometerD1Ev@Base 1.2+1640
 _ZThn4_N5nidas5dynld4isff6Wind2DD0Ev@Base 1.2+1640
 _ZThn4_N5nidas5dynld4isff6Wind2DD1Ev@Base 1.2+1640
 _ZThn4_N5nidas5dynld4isff6Wind3DD0Ev@Base 1.2+1640
 _ZThn4_N5nidas5dynld4isff6Wind3DD1Ev@Base 1.2+1640
 _ZThn4_N5nidas5dynld4isff7MOSMoteD0Ev@Base 1.2+1640
 _ZThn4_N5nidas5dynld4isff7MOSMoteD1Ev@Base 1.2+1640
 _ZThn4_N5nidas5dynld4isff8NCAR_TRHD0Ev@Base 1.2+1640
 _ZThn4_N5nidas5dynld4isff8NCAR_TRHD1Ev@Base 1.2+1640
 _ZThn4_N5nidas5dynld4isff8PropVaneD0Ev@Base 1.2+1640
 _ZThn4_N5nidas5dynld4isff8PropVaneD1Ev@Base 1.2+1640
 _ZThn4_N5nidas5dynld4isff9DAUSensorD0Ev@Base 1.2+1640
 _ZThn4_N5nidas5dynld4isff9DAUSensorD1Ev@Base 1.2+1640
 _ZThn4_N5nidas5dynld4isff9Licor7500D0Ev@Base 1.2+1640
 _ZThn4_N5nidas5dynld4isff9Licor7500D1Ev@Base 1.2+1640
 _ZThn4_N5nidas5dynld9A2DSensorD0Ev@Base 1.2+1640
 _ZThn4_N5nidas5dynld9A2DSensorD1Ev@Base 1.2+1640
 _ZThn4_N5nidas5dynld9ChronyLogD0Ev@Base 1.2+1640
 _ZThn4_N5nidas5dynld9ChronyLogD1Ev@Base 1.2+1640
 _ZThn4_N5nidas5dynld9DSC_EventD0Ev@Base 1.2+1640
 _ZThn4_N5nidas5dynld9DSC_EventD1Ev@Base 1.2+1640
 _ZThn4_N5nidas5dynld9ModbusRTUD0Ev@Base 1.2+1640
 _ZThn4_N5nidas5dynld9ModbusRTUD1Ev@Base 1.2+1640
 _ZThn4_N5nidas5dynld9WxtSensorD0Ev@Base 1.2+1640
 _ZThn4_N5nidas5dynld9WxtSensorD1Ev@Base 1.2+1640
 _ZThn4_NK5nidas5dynld18StatisticsCruncher13getSampleTagsB5cxx11Ev@Base 1.2+1640
 _ZThn4_NK5nidas5dynld18StatisticsCruncher14getClientCountEv@Base 1.2+1640
 _ZThn4_NK5nidas5dynld18StatisticsCruncher14getSampleStatsEv@Base 1.2+1640
 _ZThn4_NK5nidas5dynld18StatisticsCruncher20getSampleTagIteratorEv@Base 1.2+1640
 _ZThn4_NK5nidas5dynld3raf16SyncRecordSource13getSampleTagsB5cxx11Ev@Base 1.2+1640
 _ZThn4_NK5nidas5dynld3raf16SyncRecordSource14getClientCountEv@Base 1.2+1640
 _ZThn4_NK5nidas5dynld3raf16SyncRecordSource14getSampleStatsEv@Base 1.2+1640
 _ZThn4_NK5nidas5dynld3raf16SyncRecordSource20getSampleTagIteratorEv@Base 1.2+1640
 _ZThn8_N5nidas5dynld10IEEE_FloatD0Ev@Base 1.2+1640
 _ZThn8_N5nidas5dynld10IEEE_FloatD1Ev@Base 1.2+1640
 _ZThn8_N5nidas5dynld11AsciiOutputD0Ev@Base 1.2+1640
 _ZThn8_N5nidas5dynld11AsciiOutputD1Ev@Base 1.2+1640
 _ZThn8_N5nidas5dynld11TSI_CPC3772D0Ev@Base 1.2+1640
 _ZThn8_N5nidas5dynld11TSI_CPC3772D1Ev@Base 1.2+1640
 _ZThn8_N5nidas5dynld11Uio48SensorD0Ev@Base 1.2+1640
 _ZThn8_N5nidas5dynld11Uio48SensorD1Ev@Base 1.2+1640
 _ZThn8_N5nidas5dynld12IR104_RelaysD0Ev@Base 1.2+1640
 _ZThn8_N5nidas5dynld12IR104_RelaysD1Ev@Base 1.2+1640
 _ZThn8_N5nidas5dynld13DSC_A2DSensorD0Ev@Base 1.2+1640
 _ZThn8_N5nidas5dynld13DSC_A2DSensorD1Ev@Base 1.2+1640
 _ZThn8_N5nidas5dynld14SampleArchiverD0Ev@Base 1.2+1640
 _ZThn8_N5nidas5dynld14SampleArchiverD1Ev@Base 1.2+1640
 _ZThn8_N5nidas5dynld15DSC_FreqCounterD0Ev@Base 1.2+1640
 _ZThn8_N5nidas5dynld15DSC_FreqCounterD1Ev@Base 1.2+1640
 _ZThn8_N5nidas5dynld15DSMSerialSensorD0Ev@Base 1.2+1640
 _ZThn8_N5nidas5dynld15DSMSerialSensorD1Ev@Base 1.2+1640
 _ZThn8_N5nidas5dynld15GPS_NMEA_SerialD0Ev@Base 1.2+1640
 _ZThn8_N5nidas5dynld15GPS_NMEA_SerialD1Ev@Base 1.2+1640
 _ZThn8_N5nidas5dynld15ParoSci_202BG_PD0Ev@Base 1.2+1640
 _ZThn8_N5nidas5dynld15ParoSci_202BG_PD1Ev@Base 1.2+1640
 _ZThn8_N5nidas5dynld15ParoSci_202BG_TD0Ev@Base 1.2+1640
 _ZThn8_N5nidas5dynld15ParoSci_202BG_TD1Ev@Base 1.2+1640
 _ZThn8_N5nidas5dynld15SampleProcessorD0Ev@Base 1.2+1640
 _ZThn8_N5nidas5dynld15SampleProcessorD1Ev@Base 1.2+1640
 _ZThn8_N5nidas5dynld15UDPSampleOutput14fromDOMElementEPKN11xercesc_3_210DOMElementE@Base 1.2+1640
 _ZThn8_N5nidas5dynld15UDPSampleOutputD0Ev@Base 1.2+1640
 _ZThn8_N5nidas5dynld15UDPSampleOutputD1Ev@Base 1.2+1640
 _ZThn8_N5nidas5dynld15UDPSocketSensorD0Ev@Base 1.2+1640
 _ZThn8_N5nidas5dynld15UDPSocketSensorD1Ev@Base 1.2+1640
 _ZThn8_N5nidas5dynld16DSC_PulseCounterD0Ev@Base 1.2+1640
 _ZThn8_N5nidas5dynld16DSC_PulseCounterD1Ev@Base 1.2+1640
 _ZThn8_N5nidas5dynld17SampleInputStream14fromDOMElementEPKN11xercesc_3_210DOMElementE@Base 1.2+1640
 _ZThn8_N5nidas5dynld17SampleInputStreamD0Ev@Base 1.2+1640
 _ZThn8_N5nidas5dynld17SampleInputStreamD1Ev@Base 1.2+1640
 _ZThn8_N5nidas5dynld17WatchedFileSensorD0Ev@Base 1.2+1640
 _ZThn8_N5nidas5dynld17WatchedFileSensorD1Ev@Base 1.2+1640
 _ZThn8_N5nidas5dynld18GPS_Novatel_SerialD0Ev@Base 1.2+1640
 _ZThn8_N5nidas5dynld18GPS_Novatel_SerialD1Ev@Base 1.2+1640
 _ZThn8_N5nidas5dynld18SampleOutputStreamD0Ev@Base 1.2+1640
 _ZThn8_N5nidas5dynld18SampleOutputStreamD1Ev@Base 1.2+1640
 _ZThn8_N5nidas5dynld19StatisticsProcessorD0Ev@Base 1.2+1640
 _ZThn8_N5nidas5dynld19StatisticsProcessorD1Ev@Base 1.2+1640
 _ZThn8_N5nidas5dynld20RawSampleInputStream14fromDOMElementEPKN11xercesc_3_210DOMElementE@Base 1.2+1640
 _ZThn8_N5nidas5dynld20RawSampleInputStreamD0Ev@Base 1.2+1640
 _ZThn8_N5nidas5dynld20RawSampleInputStreamD1Ev@Base 1.2+1640
 _ZThn8_N5nidas5dynld21RawSampleOutputStream14fromDOMElementEPKN11xercesc_3_210DOMElementE@Base 1.2+1640
 _ZThn8_N5nidas5dynld21RawSampleOutputStreamD0Ev@Base 1.2+1640
 _ZThn8_N5nidas5dynld21RawSampleOutputStreamD1Ev@Base 1.2+1640
 _ZThn8_N5nidas5dynld3iss10TiltSensor14fromDOMElementEPKN11xercesc_3_210DOMElementE@Base 1.2+1640
 _ZThn8_N5nidas5dynld3iss10TiltSensorD0Ev@Base 1.2+1640
 _ZThn8_N5nidas5dynld3iss10TiltSensorD1Ev@Base 1.2+1640
 _ZThn8_N5nidas5dynld3raf10A2D_SerialD0Ev@Base 1.2+1640
 _ZThn8_N5nidas5dynld3raf10A2D_SerialD1Ev@Base 1.2+1640
 _ZThn8_N5nidas5dynld3raf10CDP_SerialD0Ev@Base 1.2+1640
 _ZThn8_N5nidas5dynld3raf10CDP_SerialD1Ev@Base 1.2+1640
 _ZThn8_N5nidas5dynld3raf10IRIGSensor14fromDOMElementEPKN11xercesc_3_210DOMElementE@Base 1.2+1640
 _ZThn8_N5nidas5dynld3raf10IRIGSensorD0Ev@Base 1.2+1640
 _ZThn8_N5nidas5dynld3raf10IRIGSensorD1Ev@Base 1.2+1640
 _ZThn8_N5nidas5dynld3raf10LamsSensor14fromDOMElementEPKN11xercesc_3_210DOMElementE@Base 1.2+1640
 _ZThn8_N5nidas5dynld3raf10LamsSensorD0Ev@Base 1.2+1640
 _ZThn8_N5nidas5dynld3raf10LamsSensorD1Ev@Base 1.2+1640
 _ZThn8_N5nidas5dynld3raf10PIP_SerialD0Ev@Base 1.2+1640
 _ZThn8_N5nidas5dynld3raf10PIP_SerialD1Ev@Base 1.2+1640
 _ZThn8_N5nidas5dynld3raf10PPT_SerialD0Ev@Base 1.2+1640
 _ZThn8_N5nidas5dynld3raf10PPT_SerialD1Ev@Base 1.2+1640
 _ZThn8_N5nidas5dynld3raf10TwoD32_USBD0Ev@Base 1.2+1640
 _ZThn8_N5nidas5dynld3raf10TwoD32_USBD1Ev@Base 1.2+1640
 _ZThn8_N5nidas5dynld3raf10TwoD64_USBD0Ev@Base 1.2+1640
 _ZThn8_N5nidas5dynld3raf10TwoD64_USBD1Ev@Base 1.2+1640
 _ZThn8_N5nidas5dynld3raf10TwoD_HouseD0Ev@Base 1.2+1640
 _ZThn8_N5nidas5dynld3raf10TwoD_HouseD1Ev@Base 1.2+1640
 _ZThn8_N5nidas5dynld3raf11BCPD_SerialD0Ev@Base 1.2+1640
 _ZThn8_N5nidas5dynld3raf11BCPD_SerialD1Ev@Base 1.2+1640
 _ZThn8_N5nidas5dynld3raf12CVIProcessor14fromDOMElementEPKN11xercesc_3_210DOMElementE@Base 1.2+1640
 _ZThn8_N5nidas5dynld3raf12CVIProcessorD0Ev@Base 1.2+1640
 _ZThn8_N5nidas5dynld3raf12CVIProcessorD1Ev@Base 1.2+1640
 _ZThn8_N5nidas5dynld3raf12CVI_LV_InputD0Ev@Base 1.2+1640
 _ZThn8_N5nidas5dynld3raf12CVI_LV_InputD1Ev@Base 1.2+1640
 _ZThn8_N5nidas5dynld3raf12UHSAS_SerialD0Ev@Base 1.2+1640
 _ZThn8_N5nidas5dynld3raf12UHSAS_SerialD1Ev@Base 1.2+1640
 _ZThn8_N5nidas5dynld3raf12VCSEL_SerialD0Ev@Base 1.2+1640
 _ZThn8_N5nidas5dynld3raf12VCSEL_SerialD1Ev@Base 1.2+1640
 _ZThn8_N5nidas5dynld3raf13DSMMesaSensor14fromDOMElementEPKN11xercesc_3_210DOMElementE@Base 1.2+1640
 _ZThn8_N5nidas5dynld3raf13DSMMesaSensorD0Ev@Base 1.2+1640
 _ZThn8_N5nidas5dynld3raf13DSMMesaSensorD1Ev@Base 1.2+1640
 _ZThn8_N5nidas5dynld3raf13IRS_HW_YG1854D0Ev@Base 1.2+1640
 _ZThn8_N5nidas5dynld3raf13IRS_HW_YG1854D1Ev@Base 1.2+1640
 _ZThn8_N5nidas5dynld3raf13LamsNetSensorD0Ev@Base 1.2+1640
 _ZThn8_N5nidas5dynld3raf13LamsNetSensorD1Ev@Base 1.2+1640
 _ZThn8_N5nidas5dynld3raf13SPP100_SerialD0Ev@Base 1.2+1640
 _ZThn8_N5nidas5dynld3raf13SPP100_SerialD1Ev@Base 1.2+1640
 _ZThn8_N5nidas5dynld3raf13SPP200_SerialD0Ev@Base 1.2+1640
 _ZThn8_N5nidas5dynld3raf13SPP200_SerialD1Ev@Base 1.2+1640
 _ZThn8_N5nidas5dynld3raf13SPP300_SerialD0Ev@Base 1.2+1640
 _ZThn8_N5nidas5dynld3raf13SPP300_SerialD1Ev@Base 1.2+1640
 _ZThn8_N5nidas5dynld3raf13SidsNetSensorD0Ev@Base 1.2+1640
 _ZThn8_N5nidas5dynld3raf13SidsNetSensorD1Ev@Base 1.2+1640
 _ZThn8_N5nidas5dynld3raf13TwoD64_USB_v3D0Ev@Base 1.2+1640
 _ZThn8_N5nidas5dynld3raf13TwoD64_USB_v3D1Ev@Base 1.2+1640
 _ZThn8_N5nidas5dynld3raf13VCSEL2_SerialD0Ev@Base 1.2+1640
 _ZThn8_N5nidas5dynld3raf13VCSEL2_SerialD1Ev@Base 1.2+1640
 _ZThn8_N5nidas5dynld3raf14DSMArincSensor14fromDOMElementEPKN11xercesc_3_210DOMElementE@Base 1.2+1640
 _ZThn8_N5nidas5dynld3raf14DSMArincSensorD0Ev@Base 1.2+1640
 _ZThn8_N5nidas5dynld3raf14DSMArincSensorD1Ev@Base 1.2+1640
 _ZThn8_N5nidas5dynld3raf14PSI9116_SensorD0Ev@Base 1.2+1640
 _ZThn8_N5nidas5dynld3raf14PSI9116_SensorD1Ev@Base 1.2+1640
 _ZThn8_N5nidas5dynld3raf14UDPArincSensorD0Ev@Base 1.2+1640
 _ZThn8_N5nidas5dynld3raf14UDPArincSensorD1Ev@Base 1.2+1640
 _ZThn8_N5nidas5dynld3raf15DSMAnalogSensorD0Ev@Base 1.2+1640
 _ZThn8_N5nidas5dynld3raf15DSMAnalogSensorD1Ev@Base 1.2+1640
 _ZThn8_N5nidas5dynld3raf15IRS_HW_HG2001GDD0Ev@Base 1.2+1640
 _ZThn8_N5nidas5dynld3raf15IRS_HW_HG2001GDD1Ev@Base 1.2+1640
 _ZThn8_N5nidas5dynld3raf16ADC_HW_EB7022597D0Ev@Base 1.2+1640
 _ZThn8_N5nidas5dynld3raf16ADC_HW_EB7022597D1Ev@Base 1.2+1640
 _ZThn8_N5nidas5dynld3raf16LSZ_HW_EB7032239D0Ev@Base 1.2+1640
 _ZThn8_N5nidas5dynld3raf16LSZ_HW_EB7032239D1Ev@Base 1.2+1640
 _ZThn8_N5nidas5dynld3raf17GPS_HW_HG2021GB02D0Ev@Base 1.2+1640
 _ZThn8_N5nidas5dynld3raf17GPS_HW_HG2021GB02D1Ev@Base 1.2+1640
 _ZThn8_N5nidas5dynld3raf18A2DBoardTempSensorD0Ev@Base 1.2+1640
 _ZThn8_N5nidas5dynld3raf18A2DBoardTempSensorD1Ev@Base 1.2+1640
 _ZThn8_N5nidas5dynld3raf19SyncRecordGeneratorD0Ev@Base 1.2+1640
 _ZThn8_N5nidas5dynld3raf19SyncRecordGeneratorD1Ev@Base 1.2+1640
 _ZThn8_N5nidas5dynld3raf5TwoDSD0Ev@Base 1.2+1640
 _ZThn8_N5nidas5dynld3raf5TwoDSD1Ev@Base 1.2+1640
 _ZThn8_N5nidas5dynld3raf6WatlowD0Ev@Base 1.2+1640
 _ZThn8_N5nidas5dynld3raf6WatlowD1Ev@Base 1.2+1640
 _ZThn8_N5nidas5dynld3raf8TwoD_USBD0Ev@Base 1.2+1640
 _ZThn8_N5nidas5dynld3raf8TwoD_USBD1Ev@Base 1.2+1640
 _ZThn8_N5nidas5dynld3raf9AlicatSDID0Ev@Base 1.2+1640
 _ZThn8_N5nidas5dynld3raf9AlicatSDID1Ev@Base 1.2+1640
 _ZThn8_N5nidas5dynld3raf9Arinc_IRS14fromDOMElementEPKN11xercesc_3_210DOMElementE@Base 1.2+1640
 _ZThn8_N5nidas5dynld3raf9CVIOutputD0Ev@Base 1.2+1640
 _ZThn8_N5nidas5dynld3raf9CVIOutputD1Ev@Base 1.2+1640
 _ZThn8_N5nidas5dynld3raf9PHIPS_UDPD0Ev@Base 1.2+1640
 _ZThn8_N5nidas5dynld3raf9PHIPS_UDPD1Ev@Base 1.2+1640
 _ZThn8_N5nidas5dynld3raf9PIP_ImageD0Ev@Base 1.2+1640
 _ZThn8_N5nidas5dynld3raf9PIP_ImageD1Ev@Base 1.2+1640
 _ZThn8_N5nidas5dynld3raf9SppSerialD0Ev@Base 1.2+1640
 _ZThn8_N5nidas5dynld3raf9SppSerialD1Ev@Base 1.2+1640
 _ZThn8_N5nidas5dynld4isff10ATIK_SonicD0Ev@Base 1.2+1640
 _ZThn8_N5nidas5dynld4isff10ATIK_SonicD1Ev@Base 1.2+1640
 _ZThn8_N5nidas5dynld4isff10WisardMoteD0Ev@Base 1.2+1640
 _ZThn8_N5nidas5dynld4isff10WisardMoteD1Ev@Base 1.2+1640
 _ZThn8_N5nidas5dynld4isff11CSAT3_SonicD0Ev@Base 1.2+1640
 _ZThn8_N5nidas5dynld4isff11CSAT3_SonicD1Ev@Base 1.2+1640
 _ZThn8_N5nidas5dynld4isff11CU_ColdwireD0Ev@Base 1.2+1640
 _ZThn8_N5nidas5dynld4isff11CU_ColdwireD1Ev@Base 1.2+1640
 _ZThn8_N5nidas5dynld4isff14CSI_CRX_BinaryD0Ev@Base 1.2+1640
 _ZThn8_N5nidas5dynld4isff14CSI_CRX_BinaryD1Ev@Base 1.2+1640
 _ZThn8_N5nidas5dynld4isff14CSI_IRGA_SonicD0Ev@Base 1.2+1640
 _ZThn8_N5nidas5dynld4isff14CSI_IRGA_SonicD1Ev@Base 1.2+1640
 _ZThn8_N5nidas5dynld4isff15SonicAnemometerD0Ev@Base 1.2+1640
 _ZThn8_N5nidas5dynld4isff15SonicAnemometerD1Ev@Base 1.2+1640
 _ZThn8_N5nidas5dynld4isff6Wind2D14fromDOMElementEPKN11xercesc_3_210DOMElementE@Base 1.2+1640
 _ZThn8_N5nidas5dynld4isff6Wind2DD0Ev@Base 1.2+1640
 _ZThn8_N5nidas5dynld4isff6Wind2DD1Ev@Base 1.2+1640
 _ZThn8_N5nidas5dynld4isff6Wind3DD0Ev@Base 1.2+1640
 _ZThn8_N5nidas5dynld4isff6Wind3DD1Ev@Base 1.2+1640
 _ZThn8_N5nidas5dynld4isff7MOSMoteD0Ev@Base 1.2+1640
 _ZThn8_N5nidas5dynld4isff7MOSMoteD1Ev@Base 1.2+1640
 _ZThn8_N5nidas5dynld4isff8NCAR_TRHD0Ev@Base 1.2+1640
 _ZThn8_N5nidas5dynld4isff8NCAR_TRHD1Ev@Base 1.2+1640
 _ZThn8_N5nidas5dynld4isff8PropVaneD0Ev@Base 1.2+1640
 _ZThn8_N5nidas5dynld4isff8PropVaneD1Ev@Base 1.2+1640
 _ZThn8_N5nidas5dynld4isff9DAUSensor14fromDOMElementEPKN11xercesc_3_210DOMElementE@Base 1.2+1640
 _ZThn8_N5nidas5dynld4isff9DAUSensorD0Ev@Base 1.2+1640
 _ZThn8_N5nidas5dynld4isff9DAUSensorD1Ev@Base 1.2+1640
 _ZThn8_N5nidas5dynld4isff9Licor7500D0Ev@Base 1.2+1640
 _ZThn8_N5nidas5dynld4isff9Licor7500D1Ev@Base 1.2+1640
 _ZThn8_N5nidas5dynld9A2DSensorD0Ev@Base 1.2+1640
 _ZThn8_N5nidas5dynld9A2DSensorD1Ev@Base 1.2+1640
 _ZThn8_N5nidas5dynld9ChronyLogD0Ev@Base 1.2+1640
 _ZThn8_N5nidas5dynld9ChronyLogD1Ev@Base 1.2+1640
 _ZThn8_N5nidas5dynld9DSC_EventD0Ev@Base 1.2+1640
 _ZThn8_N5nidas5dynld9DSC_EventD1Ev@Base 1.2+1640
 _ZThn8_N5nidas5dynld9ModbusRTUD0Ev@Base 1.2+1640
 _ZThn8_N5nidas5dynld9ModbusRTUD1Ev@Base 1.2+1640
 _ZThn8_N5nidas5dynld9WxtSensorD0Ev@Base 1.2+1640
 _ZThn8_N5nidas5dynld9WxtSensorD1Ev@Base 1.2+1640
 _ZThn928_N5nidas5dynld3raf10LamsSensor17derivedDataNotifyEPKNS_4core17DerivedDataReaderE@Base 1.2+1640
 _ZThn928_N5nidas5dynld3raf10LamsSensorD0Ev@Base 1.2+1640
 _ZThn928_N5nidas5dynld3raf10LamsSensorD1Ev@Base 1.2+1640
 _ZThn928_N5nidas5dynld3raf10TwoD32_USBD0Ev@Base 1.2+1640
 _ZThn928_N5nidas5dynld3raf10TwoD32_USBD1Ev@Base 1.2+1640
 _ZThn928_N5nidas5dynld3raf10TwoD64_USBD0Ev@Base 1.2+1640
 _ZThn928_N5nidas5dynld3raf10TwoD64_USBD1Ev@Base 1.2+1640
 _ZThn928_N5nidas5dynld3raf13TwoD64_USB_v3D0Ev@Base 1.2+1640
 _ZThn928_N5nidas5dynld3raf13TwoD64_USB_v3D1Ev@Base 1.2+1640
 _ZThn928_N5nidas5dynld3raf8TwoD_USBD0Ev@Base 1.2+1640
 _ZThn928_N5nidas5dynld3raf8TwoD_USBD1Ev@Base 1.2+1640
 _ZThn928_NK5nidas5dynld3raf10TwoD32_USB14NumberOfDiodesEv@Base 1.2+1640
 _ZThn928_NK5nidas5dynld3raf10TwoD64_USB14NumberOfDiodesEv@Base 1.2+1640
 _ZTv0_n12_N5nidas5dynld3iss11WICORSensorD0Ev@Base 1.2+1640
 _ZTv0_n12_N5nidas5dynld3iss11WICORSensorD1Ev@Base 1.2+1640
 _ZTv0_n200_N5nidas5dynld3iss11WICORSensor7processEPKNS_4core6SampleERNSt7__cxx114listIS6_SaIS6_EEE@Base 1.2+1640
 _ZTv0_n96_N5nidas5dynld3iss11WICORSensor12addSampleTagEPNS_4core9SampleTagE@Base 1.2+1640
 _ZTvn4_n12_N5nidas5dynld3iss11WICORSensorD0Ev@Base 1.2+1640
 _ZTvn4_n12_N5nidas5dynld3iss11WICORSensorD1Ev@Base 1.2+1640
 _ZTvn8_n12_N5nidas5dynld3iss11WICORSensorD0Ev@Base 1.2+1640
 _ZTvn8_n12_N5nidas5dynld3iss11WICORSensorD1Ev@Base 1.2+1640
 _ZZN5nidas4core10SamplePoolINS0_7SampleTIcEEE9getSampleEPPS3_PijE5weird@Base 1.2+1640
 _ZZN5nidas4core7FileSet14setNonBlockingEbE7logctxt@Base 1.2+1640
 _ZZN5nidas4util8McSocketINS0_14DatagramSocketEE15joinMulticasterEvE7logctxt@Base 1.2+1640
 _ZZN5nidas4util8McSocketINS0_14DatagramSocketEE15joinMulticasterEvE7logctxt_0@Base 1.2+1640
 _ZZN5nidas4util8McSocketINS0_14DatagramSocketEE15joinMulticasterEvE7logctxt_1@Base 1.2+1640
 _ZZN5nidas4util8McSocketINS0_14DatagramSocketEE5closeEvE7logctxt@Base 1.2+1640
 _ZZN5nidas4util8McSocketINS0_14DatagramSocketEE5closeEvE7logctxt_0@Base 1.2+1640
 _ZZN5nidas4util8McSocketINS0_14DatagramSocketEE5closeEvE7logctxt_1@Base 1.2+1640
 _ZZN5nidas4util8McSocketINS0_6SocketEE15joinMulticasterEvE7logctxt@Base 1.2+1640
 _ZZN5nidas4util8McSocketINS0_6SocketEE15joinMulticasterEvE7logctxt_0@Base 1.2+1640
 _ZZN5nidas4util8McSocketINS0_6SocketEE15joinMulticasterEvE7logctxt_1@Base 1.2+1640
 _ZZN5nidas4util8McSocketINS0_6SocketEE5closeEvE7logctxt@Base 1.2+1640
 _ZZN5nidas4util8McSocketINS0_6SocketEE5closeEvE7logctxt_0@Base 1.2+1640
 _ZZN5nidas4util8McSocketINS0_6SocketEE5closeEvE7logctxt_1@Base 1.2+1640
 _ZlsRSoRKN5nidas5dynld10BlockStatsE@Base 1.2+1640
 create_nidas_dynld_AsciiOutput@Base 1.2+1640
 create_nidas_dynld_Bzip2FileSet@Base 1.2+1640
 create_nidas_dynld_ChronyLog@Base 1.2+1640
 create_nidas_dynld_DSC_A2DSensor@Base 1.2+1640
 create_nidas_dynld_DSC_Event@Base 1.2+1640
 create_nidas_dynld_DSC_FreqCounter@Base 1.2+1640
 create_nidas_dynld_DSC_PulseCounter@Base 1.2+1640
 create_nidas_dynld_DSMSerialSensor@Base 1.2+1640
 create_nidas_dynld_FileSet@Base 1.2+1640
 create_nidas_dynld_GPS_NMEA_Serial@Base 1.2+1640
 create_nidas_dynld_GPS_Novatel_Serial@Base 1.2+1640
 create_nidas_dynld_IEEE_Float@Base 1.2+1640
 create_nidas_dynld_IR104_Relays@Base 1.2+1640
 create_nidas_dynld_ModbusRTU@Base 1.2+1640
 create_nidas_dynld_ParoSci_202BG_P@Base 1.2+1640
 create_nidas_dynld_ParoSci_202BG_T@Base 1.2+1640
 create_nidas_dynld_RawSampleInputStream@Base 1.2+1640
 create_nidas_dynld_RawSampleOutputStream@Base 1.2+1640
 create_nidas_dynld_RawSampleService@Base 1.2+1640
 create_nidas_dynld_SampleArchiver@Base 1.2+1640
 create_nidas_dynld_SampleInputStream@Base 1.2+1640
 create_nidas_dynld_SampleOutputStream@Base 1.2+1640
 create_nidas_dynld_SampleProcessor@Base 1.2+1640
 create_nidas_dynld_StatisticsProcessor@Base 1.2+1640
 create_nidas_dynld_TSI_CPC3772@Base 1.2+1640
 create_nidas_dynld_UDPSampleOutput@Base 1.2+1640
 create_nidas_dynld_UDPSocketSensor@Base 1.2+1640
 create_nidas_dynld_Uio48Sensor@Base 1.2+1640
 create_nidas_dynld_WatchedFileSensor@Base 1.2+1640
 create_nidas_dynld_WxtSensor@Base 1.2+1640
 create_nidas_dynld_XMLConfigAllService@Base 1.2+1640
 create_nidas_dynld_XMLConfigService@Base 1.2+1640
 create_nidas_dynld_isff_ATIK_Sonic@Base 1.2+1640
 create_nidas_dynld_isff_CSAT3_Sonic@Base 1.2+1640
 create_nidas_dynld_isff_CSI_CRX_Binary@Base 1.2+1640
 create_nidas_dynld_isff_CSI_IRGA_Sonic@Base 1.2+1640
 create_nidas_dynld_isff_CS_Krypton@Base 1.2+1640
 create_nidas_dynld_isff_CU_Coldwire@Base 1.2+1640
 create_nidas_dynld_isff_DAUSensor@Base 1.2+1640
 create_nidas_dynld_isff_GroundStation@Base 1.2+1640
 create_nidas_dynld_isff_Licor7500@Base 1.2+1640
 create_nidas_dynld_isff_MOSMote@Base 1.2+1640
 create_nidas_dynld_isff_NCAR_TRH@Base 1.2+1640
 create_nidas_dynld_isff_PropVane@Base 1.2+1640
 create_nidas_dynld_isff_RebsLinear@Base 1.2+1640
 create_nidas_dynld_isff_SonicAnemometer@Base 1.2+1640
 create_nidas_dynld_isff_Wind2D@Base 1.2+1640
 create_nidas_dynld_isff_Wind3D@Base 1.2+1640
 create_nidas_dynld_isff_WisardMote@Base 1.2+1640
 create_nidas_dynld_iss_TiltSensor@Base 1.2+1640
 create_nidas_dynld_iss_WICORSensor@Base 1.2+1640
 create_nidas_dynld_raf_A2DBoardTempSensor@Base 1.2+1640
 create_nidas_dynld_raf_A2D_Serial@Base 1.2+1640
 create_nidas_dynld_raf_ADC_HW_EB7022597@Base 1.2+1640
 create_nidas_dynld_raf_Aircraft@Base 1.2+1640
 create_nidas_dynld_raf_AlicatSDI@Base 1.2+1640
 create_nidas_dynld_raf_BCPD_Serial@Base 1.2+1640
 create_nidas_dynld_raf_CDP_Serial@Base 1.2+1640
 create_nidas_dynld_raf_CVIOutput@Base 1.2+1640
 create_nidas_dynld_raf_CVIProcessor@Base 1.2+1640
 create_nidas_dynld_raf_CVI_LV_Input@Base 1.2+1640
 create_nidas_dynld_raf_DSMAnalogSensor@Base 1.2+1640
 create_nidas_dynld_raf_DSMMesaSensor@Base 1.2+1640
 create_nidas_dynld_raf_GPS_HW_HG2021GB02@Base 1.2+1640
 create_nidas_dynld_raf_IRIGSensor@Base 1.2+1640
 create_nidas_dynld_raf_IRS_HW_HG2001GD@Base 1.2+1640
 create_nidas_dynld_raf_IRS_HW_YG1854@Base 1.2+1640
 create_nidas_dynld_raf_LSZ_HW_EB7032239@Base 1.2+1640
 create_nidas_dynld_raf_LamsNetSensor@Base 1.2+1640
 create_nidas_dynld_raf_LamsSensor@Base 1.2+1640
 create_nidas_dynld_raf_PHIPS_UDP@Base 1.2+1640
 create_nidas_dynld_raf_PIP_Image@Base 1.2+1640
 create_nidas_dynld_raf_PIP_Serial@Base 1.2+1640
 create_nidas_dynld_raf_PPT_Serial@Base 1.2+1640
 create_nidas_dynld_raf_PSI9116_Sensor@Base 1.2+1640
 create_nidas_dynld_raf_SPP100_Serial@Base 1.2+1640
 create_nidas_dynld_raf_SPP200_Serial@Base 1.2+1640
 create_nidas_dynld_raf_SPP300_Serial@Base 1.2+1640
 create_nidas_dynld_raf_SidsNetSensor@Base 1.2+1640
 create_nidas_dynld_raf_SyncRecordGenerator@Base 1.2+1640
 create_nidas_dynld_raf_TwoD32_USB@Base 1.2+1640
 create_nidas_dynld_raf_TwoD64_USB@Base 1.2+1640
 create_nidas_dynld_raf_TwoD64_USB_v3@Base 1.2+1640
 create_nidas_dynld_raf_TwoDS@Base 1.2+1640
 create_nidas_dynld_raf_TwoD_House@Base 1.2+1640
 create_nidas_dynld_raf_UDPArincSensor@Base 1.2+1640
 create_nidas_dynld_raf_UHSAS_Serial@Base 1.2+1640
 create_nidas_dynld_raf_VCSEL2_Serial@Base 1.2+1640
 create_nidas_dynld_raf_VCSEL_Serial@Base 1.2+1640
 create_nidas_dynld_raf_Watlow@Base 1.2+1640
libnidas_util.so.1 nidas-libs #MINVER#
 _Z15parse_log_levelRiRKNSt7__cxx1112basic_stringIcSt11char_traitsIcESaIcEEE@Base 1.2+1640
 _ZGVZN5nidas4util8McSocketINS0_14DatagramSocketEE15joinMulticasterEvE7logctxt@Base 1.2+1640
 _ZGVZN5nidas4util8McSocketINS0_14DatagramSocketEE15joinMulticasterEvE7logctxt_0@Base 1.2+1640
 _ZGVZN5nidas4util8McSocketINS0_14DatagramSocketEE15joinMulticasterEvE7logctxt_1@Base 1.2+1640
 _ZGVZN5nidas4util8McSocketINS0_6SocketEE15joinMulticasterEvE7logctxt@Base 1.2+1640
 _ZGVZN5nidas4util8McSocketINS0_6SocketEE15joinMulticasterEvE7logctxt_0@Base 1.2+1640
 _ZGVZN5nidas4util8McSocketINS0_6SocketEE15joinMulticasterEvE7logctxt_1@Base 1.2+1640
 _ZN5nidas4util10LogContextC1EiPKcS3_iS3_@Base 1.2+1640
 _ZN5nidas4util10LogContextC2EiPKcS3_iS3_@Base 1.2+1640
 _ZN5nidas4util10LogContextD1Ev@Base 1.2+1640
 _ZN5nidas4util10LogContextD2Ev@Base 1.2+1640
 _ZN5nidas4util10LogMessage3logEv@Base 1.2+1640
 _ZN5nidas4util10LogMessage6formatEPKcz@Base 1.2+1640
 _ZN5nidas4util10LogMessageC1ERKNSt7__cxx1112basic_stringIcSt11char_traitsIcESaIcEEE@Base 1.2+1640
 _ZN5nidas4util10LogMessageC2ERKNSt7__cxx1112basic_stringIcSt11char_traitsIcESaIcEEE@Base 1.2+1640
 _ZN5nidas4util10SerialPort10flushInputEv@Base 1.2+1640
 _ZN5nidas4util10SerialPort11flushOutputEv@Base 1.2+1640
 _ZN5nidas4util10SerialPort11getBlockingEv@Base 1.2+1640
 _ZN5nidas4util10SerialPort11setBlockingEb@Base 1.2+1640
 _ZN5nidas4util10SerialPort12applyTermiosEv@Base 1.2+1640
 _ZN5nidas4util10SerialPort12setModemBitsEi@Base 1.2+1640
 _ZN5nidas4util10SerialPort13createPtyLinkERKNSt7__cxx1112basic_stringIcSt11char_traitsIcESaIcEEE@Base 1.2+1640
 _ZN5nidas4util10SerialPort14clearModemBitsEi@Base 1.2+1640
 _ZN5nidas4util10SerialPort14getModemStatusEv@Base 1.2+1640
 _ZN5nidas4util10SerialPort14setModemStatusEi@Base 1.2+1640
 _ZN5nidas4util10SerialPort16getCarrierDetectEv@Base 1.2+1640
 _ZN5nidas4util10SerialPort18modemFlagsToStringB5cxx11Ei@Base 1.2+1640
 _ZN5nidas4util10SerialPort4openEi@Base 1.2+1640
 _ZN5nidas4util10SerialPort4readEPci@Base 1.2+1640
 _ZN5nidas4util10SerialPort5closeEv@Base 1.2+1640
 _ZN5nidas4util10SerialPort5drainEv@Base 1.2+1640
 _ZN5nidas4util10SerialPort5writeEPKvi@Base 1.2+1640
 _ZN5nidas4util10SerialPort8readLineEPci@Base 1.2+1640
 _ZN5nidas4util10SerialPort8readcharEv@Base 1.2+1640
 _ZN5nidas4util10SerialPort9flushBothEv@Base 1.2+1640
 _ZN5nidas4util10SerialPort9readUntilEPcic@Base 1.2+1640
 _ZN5nidas4util10SerialPortC1ERKNSt7__cxx1112basic_stringIcSt11char_traitsIcESaIcEEE@Base 1.2+1640
 _ZN5nidas4util10SerialPortC1ERKNSt7__cxx1112basic_stringIcSt11char_traitsIcESaIcEEEi@Base 1.2+1640
 _ZN5nidas4util10SerialPortC1ERKS1_@Base 1.2+1640
 _ZN5nidas4util10SerialPortC1Ev@Base 1.2+1640
 _ZN5nidas4util10SerialPortC2ERKNSt7__cxx1112basic_stringIcSt11char_traitsIcESaIcEEE@Base 1.2+1640
 _ZN5nidas4util10SerialPortC2ERKNSt7__cxx1112basic_stringIcSt11char_traitsIcESaIcEEEi@Base 1.2+1640
 _ZN5nidas4util10SerialPortC2ERKS1_@Base 1.2+1640
 _ZN5nidas4util10SerialPortC2Ev@Base 1.2+1640
 _ZN5nidas4util10SerialPortD0Ev@Base 1.2+1640
 _ZN5nidas4util10SerialPortD1Ev@Base 1.2+1640
 _ZN5nidas4util10SerialPortD2Ev@Base 1.2+1640
 _ZN5nidas4util10SocketImpl10leaveGroupENS0_12Inet4AddressE@Base 1.2+1640
 _ZN5nidas4util10SocketImpl10leaveGroupENS0_12Inet4AddressERKNS0_21Inet4NetworkInterfaceE@Base 1.2+1640
 _ZN5nidas4util10SocketImpl10setPktInfoEb@Base 1.2+1640
 _ZN5nidas4util10SocketImpl10setTimeoutEi@Base 1.2+1640
 _ZN5nidas4util10SocketImpl12getLocalAddrEv@Base 1.2+1640
 _ZN5nidas4util10SocketImpl12setInterfaceENS0_12Inet4AddressE@Base 1.2+1640
 _ZN5nidas4util10SocketImpl12setInterfaceENS0_12Inet4AddressERKNS0_21Inet4NetworkInterfaceE@Base 1.2+1640
 _ZN5nidas4util10SocketImpl12setKeepAliveEb@Base 1.2+1640
 _ZN5nidas4util10SocketImpl13getRemoteAddrEv@Base 1.2+1640
 _ZN5nidas4util10SocketImpl13getTcpNoDelayEv@Base 1.2+1640
 _ZN5nidas4util10SocketImpl13setTcpNoDelayEb@Base 1.2+1640
 _ZN5nidas4util10SocketImpl13setTimeToLiveEi@Base 1.2+1640
 _ZN5nidas4util10SocketImpl14setNonBlockingEb@Base 1.2+1640
 _ZN5nidas4util10SocketImpl16setMulticastLoopEb@Base 1.2+1640
 _ZN5nidas4util10SocketImpl17getSendBufferSizeEv@Base 1.2+1640
 _ZN5nidas4util10SocketImpl17setSendBufferSizeEi@Base 1.2+1640
 _ZN5nidas4util10SocketImpl18setBroadcastEnableEb@Base 1.2+1640
 _ZN5nidas4util10SocketImpl20getReceiveBufferSizeEv@Base 1.2+1640
 _ZN5nidas4util10SocketImpl20setKeepAliveIdleSecsEi@Base 1.2+1640
 _ZN5nidas4util10SocketImpl20setReceiveBufferSizeEi@Base 1.2+1640
 _ZN5nidas4util10SocketImpl4bindERKNS0_12Inet4AddressEi@Base 1.2+1640
 _ZN5nidas4util10SocketImpl4bindERKNS0_13SocketAddressE@Base 1.2+1640
 _ZN5nidas4util10SocketImpl4bindEi@Base 1.2+1640
 _ZN5nidas4util10SocketImpl4recvEPvji@Base 1.2+1640
 _ZN5nidas4util10SocketImpl4sendEPK5iovecii@Base 1.2+1640
 _ZN5nidas4util10SocketImpl4sendEPKvji@Base 1.2+1640
 _ZN5nidas4util10SocketImpl4sendERKNS0_18DatagramPacketBaseEi@Base 1.2+1640
 _ZN5nidas4util10SocketImpl5closeEv@Base 1.2+1640
 _ZN5nidas4util10SocketImpl6acceptEv@Base 1.2+1640
 _ZN5nidas4util10SocketImpl6listenEv@Base 1.2+1640
 _ZN5nidas4util10SocketImpl6sendtoEPK5ioveciiRKNS0_13SocketAddressE@Base 1.2+1640
 _ZN5nidas4util10SocketImpl6sendtoEPKvjiRKNS0_13SocketAddressE@Base 1.2+1640
 _ZN5nidas4util10SocketImpl7connectERKNS0_12Inet4AddressEi@Base 1.2+1640
 _ZN5nidas4util10SocketImpl7connectERKNS0_13SocketAddressE@Base 1.2+1640
 _ZN5nidas4util10SocketImpl7connectERKNSt7__cxx1112basic_stringIcSt11char_traitsIcESaIcEEEi@Base 1.2+1640
 _ZN5nidas4util10SocketImpl7receiveERNS0_18DatagramPacketBaseE@Base 1.2+1640
 _ZN5nidas4util10SocketImpl7receiveERNS0_18DatagramPacketBaseERNS0_15Inet4PacketInfoEi@Base 1.2+1640
 _ZN5nidas4util10SocketImpl7sendallEPKvji@Base 1.2+1640
 _ZN5nidas4util10SocketImpl8recvfromEPvjiRNS0_13SocketAddressE@Base 1.2+1640
 _ZN5nidas4util10SocketImpl9joinGroupENS0_12Inet4AddressE@Base 1.2+1640
 _ZN5nidas4util10SocketImpl9joinGroupENS0_12Inet4AddressERKNS0_21Inet4NetworkInterfaceE@Base 1.2+1640
 _ZN5nidas4util10SocketImplC1ERKS1_@Base 1.2+1640
 _ZN5nidas4util10SocketImplC1EiRKNS0_13SocketAddressE@Base 1.2+1640
 _ZN5nidas4util10SocketImplC1Eii@Base 1.2+1640
 _ZN5nidas4util10SocketImplC2ERKS1_@Base 1.2+1640
 _ZN5nidas4util10SocketImplC2EiRKNS0_13SocketAddressE@Base 1.2+1640
 _ZN5nidas4util10SocketImplC2Eii@Base 1.2+1640
 _ZN5nidas4util10SocketImplD1Ev@Base 1.2+1640
 _ZN5nidas4util10SocketImplD2Ev@Base 1.2+1640
 _ZN5nidas4util10SocketImplaSERKS1_@Base 1.2+1640
 _ZN5nidas4util10sleepUntilEjj@Base 1.2+1640
 _ZN5nidas4util10trimStringERNSt7__cxx1112basic_stringIcSt11char_traitsIcESaIcEEE@Base 1.2+1640
 _ZN5nidas4util11IOExceptionC1ERKNSt7__cxx1112basic_stringIcSt11char_traitsIcESaIcEEES9_@Base 1.2+1640
 _ZN5nidas4util11IOExceptionC1ERKNSt7__cxx1112basic_stringIcSt11char_traitsIcESaIcEEES9_S9_@Base 1.2+1640
 _ZN5nidas4util11IOExceptionC1ERKNSt7__cxx1112basic_stringIcSt11char_traitsIcESaIcEEES9_i@Base 1.2+1640
 _ZN5nidas4util11IOExceptionC2ERKNSt7__cxx1112basic_stringIcSt11char_traitsIcESaIcEEES9_@Base 1.2+1640
 _ZN5nidas4util11IOExceptionC2ERKNSt7__cxx1112basic_stringIcSt11char_traitsIcESaIcEEES9_S9_@Base 1.2+1640
 _ZN5nidas4util11IOExceptionC2ERKNSt7__cxx1112basic_stringIcSt11char_traitsIcESaIcEEES9_i@Base 1.2+1640
 _ZN5nidas4util11IOExceptionD0Ev@Base 1.2+1640
 _ZN5nidas4util11IOExceptionD1Ev@Base 1.2+1640
 _ZN5nidas4util11IOExceptionD2Ev@Base 1.2+1640
 _ZN5nidas4util12Bzip2FileSet12openNextFileEv@Base 1.2+1640
 _ZN5nidas4util12Bzip2FileSet18openFileForWritingERKNSt7__cxx1112basic_stringIcSt11char_traitsIcESaIcEEE@Base 1.2+1640
 _ZN5nidas4util12Bzip2FileSet4readEPvj@Base 1.2+1640
 _ZN5nidas4util12Bzip2FileSet5writeEPK5ioveci@Base 1.2+1640
 _ZN5nidas4util12Bzip2FileSet5writeEPKvj@Base 1.2+1640
 _ZN5nidas4util12Bzip2FileSet9closeFileEv@Base 1.2+1640
 _ZN5nidas4util12Bzip2FileSetC1ERKS1_@Base 1.2+1640
 _ZN5nidas4util12Bzip2FileSetC1Ev@Base 1.2+1640
 _ZN5nidas4util12Bzip2FileSetC2ERKS1_@Base 1.2+1640
 _ZN5nidas4util12Bzip2FileSetC2Ev@Base 1.2+1640
 _ZN5nidas4util12Bzip2FileSetD0Ev@Base 1.2+1640
 _ZN5nidas4util12Bzip2FileSetD1Ev@Base 1.2+1640
 _ZN5nidas4util12Bzip2FileSetD2Ev@Base 1.2+1640
 _ZN5nidas4util12Bzip2FileSetaSERKS1_@Base 1.2+1640
 _ZN5nidas4util12EOFExceptionC1ERKNSt7__cxx1112basic_stringIcSt11char_traitsIcESaIcEEES9_@Base 1.2+1640
 _ZN5nidas4util12EOFExceptionC2ERKNSt7__cxx1112basic_stringIcSt11char_traitsIcESaIcEEES9_@Base 1.2+1640
 _ZN5nidas4util12EOFExceptionD0Ev@Base 1.2+1640
 _ZN5nidas4util12EOFExceptionD1Ev@Base 1.2+1640
 _ZN5nidas4util12EOFExceptionD2Ev@Base 1.2+1640
 _ZN5nidas4util12Inet4Address11getHostNameB5cxx11ERKS1_@Base 1.2+1640
 _ZN5nidas4util12Inet4Address12getAllByNameERKNSt7__cxx1112basic_stringIcSt11char_traitsIcESaIcEEE@Base 1.2+1640
 _ZN5nidas4util12Inet4Address9getByNameERKNSt7__cxx1112basic_stringIcSt11char_traitsIcESaIcEEE@Base 1.2+1640
 _ZN5nidas4util12Inet4AddressC1EPK7in_addr@Base 1.2+1640
 _ZN5nidas4util12Inet4AddressC1Ej@Base 1.2+1640
 _ZN5nidas4util12Inet4AddressC1Ev@Base 1.2+1640
 _ZN5nidas4util12Inet4AddressC2EPK7in_addr@Base 1.2+1640
 _ZN5nidas4util12Inet4AddressC2Ej@Base 1.2+1640
 _ZN5nidas4util12Inet4AddressC2Ev@Base 1.2+1640
 _ZN5nidas4util12ServerSocket5closeEv@Base 1.2+1640
 _ZN5nidas4util12ServerSocketC1ERKNS0_12Inet4AddressEii@Base 1.2+1640
 _ZN5nidas4util12ServerSocketC1ERKNS0_13SocketAddressEi@Base 1.2+1640
 _ZN5nidas4util12ServerSocketC1Eii@Base 1.2+1640
 _ZN5nidas4util12ServerSocketC2ERKNS0_12Inet4AddressEii@Base 1.2+1640
 _ZN5nidas4util12ServerSocketC2ERKNS0_13SocketAddressEi@Base 1.2+1640
 _ZN5nidas4util12ServerSocketC2Eii@Base 1.2+1640
 _ZN5nidas4util12SynchronizedD1Ev@Base 1.2+1640
 _ZN5nidas4util12SynchronizedD2Ev@Base 1.2+1640
 _ZN5nidas4util12ThreadJoiner3runEv@Base 1.2+1640
 _ZN5nidas4util12ThreadJoinerC1EPNS0_6ThreadE@Base 1.2+1640
 _ZN5nidas4util12ThreadJoinerC2EPNS0_6ThreadE@Base 1.2+1640
 _ZN5nidas4util12ThreadJoinerD0Ev@Base 1.2+1640
 _ZN5nidas4util12ThreadJoinerD1Ev@Base 1.2+1640
 _ZN5nidas4util12ThreadJoinerD2Ev@Base 1.2+1640
 _ZN5nidas4util12replaceCharsERKNSt7__cxx1112basic_stringIcSt11char_traitsIcESaIcEEES8_S8_@Base 1.2+1640
 _ZN5nidas4util13FlipConverterD0Ev@Base 1.2+1640
 _ZN5nidas4util13FlipConverterD1Ev@Base 1.2+1640
 _ZN5nidas4util13FlipConverterD2Ev@Base 1.2+1640
 _ZN5nidas4util13SerialOptions14_regexpressionE@Base 1.2+1640
 _ZN5nidas4util13SerialOptions5parseERKNSt7__cxx1112basic_stringIcSt11char_traitsIcESaIcEEE@Base 1.2+1640
 _ZN5nidas4util13SerialOptions5usageEv@Base 1.2+1640
 _ZN5nidas4util13SerialOptionsC1Ev@Base 1.2+1640
 _ZN5nidas4util13SerialOptionsC2Ev@Base 1.2+1640
 _ZN5nidas4util13SerialOptionsD1Ev@Base 1.2+1640
 _ZN5nidas4util13SerialOptionsD2Ev@Base 1.2+1640
 _ZN5nidas4util14DatagramSocketC1ERKNS0_12Inet4AddressEi@Base 1.2+1640
 _ZN5nidas4util14DatagramSocketC1ERKNS0_13SocketAddressE@Base 1.2+1640
 _ZN5nidas4util14DatagramSocketC1Ei@Base 1.2+1640
 _ZN5nidas4util14DatagramSocketC1Ev@Base 1.2+1640
 _ZN5nidas4util14DatagramSocketC2ERKNS0_12Inet4AddressEi@Base 1.2+1640
 _ZN5nidas4util14DatagramSocketC2ERKNS0_13SocketAddressE@Base 1.2+1640
 _ZN5nidas4util14DatagramSocketC2Ei@Base 1.2+1640
 _ZN5nidas4util14DatagramSocketC2Ev@Base 1.2+1640
 _ZN5nidas4util14DatagramSocketD0Ev@Base 1.2+1640
 _ZN5nidas4util14DatagramSocketD1Ev@Base 1.2+1640
 _ZN5nidas4util14DatagramSocketD2Ev@Base 1.2+1640
 _ZN5nidas4util14NMEAchecksumOKEPKci@Base 1.2+1640
 _ZN5nidas4util14ParseExceptionC1ERKNSt7__cxx1112basic_stringIcSt11char_traitsIcESaIcEEES9_@Base 1.2+1640
 _ZN5nidas4util14ParseExceptionC2ERKNSt7__cxx1112basic_stringIcSt11char_traitsIcESaIcEEES9_@Base 1.2+1640
 _ZN5nidas4util14ParseExceptionD0Ev@Base 1.2+1640
 _ZN5nidas4util14ParseExceptionD1Ev@Base 1.2+1640
 _ZN5nidas4util14ParseExceptionD2Ev@Base 1.2+1640
 _ZN5nidas4util14replaceCharsInERNSt7__cxx1112basic_stringIcSt11char_traitsIcESaIcEEERKS6_S9_@Base 1.2+1640
 _ZN5nidas4util15DatagramPacketTINS0_12McSocketDataEE14getDataVoidPtrEv@Base 1.2+1640
 _ZN5nidas4util15DatagramPacketTINS0_12McSocketDataEED0Ev@Base 1.2+1640
 _ZN5nidas4util15DatagramPacketTINS0_12McSocketDataEED1Ev@Base 1.2+1640
 _ZN5nidas4util15DatagramPacketTINS0_12McSocketDataEED2Ev@Base 1.2+1640
 _ZN5nidas4util15DatagramPacketTIcE14getDataVoidPtrEv@Base 1.2+1640
 _ZN5nidas4util15EndianConverter12getConverterENS1_10endiannessE@Base 1.2+1640
 _ZN5nidas4util15EndianConverter12getConverterENS1_10endiannessES2_@Base 1.2+1640
 _ZN5nidas4util15EndianConverter13flipConverterE@Base 1.2+1640
 _ZN5nidas4util15EndianConverter14hostEndiannessE@Base 1.2+1640
 _ZN5nidas4util15EndianConverter15noflipConverterE@Base 1.2+1640
 _ZN5nidas4util15EndianConverter15staticInitMutexE@Base 1.2+1640
 _ZN5nidas4util15EndianConverter17getHostEndiannessEv@Base 1.2+1640
 _ZN5nidas4util15EndianConverter21privGetHostEndiannessEv@Base 1.2+1640
 _ZN5nidas4util15Inet4PacketInfo12setInterfaceERKNS0_21Inet4NetworkInterfaceE@Base 1.2+1640
 _ZN5nidas4util15Inet4PacketInfo15setLocalAddressERKNS0_12Inet4AddressE@Base 1.2+1640
 _ZN5nidas4util15Inet4PacketInfo21setDestinationAddressERKNS0_12Inet4AddressE@Base 1.2+1640
 _ZN5nidas4util15Inet4PacketInfo8setFlagsEi@Base 1.2+1640
 _ZN5nidas4util15Inet4PacketInfoD0Ev@Base 1.2+1640
 _ZN5nidas4util15Inet4PacketInfoD1Ev@Base 1.2+1640
 _ZN5nidas4util15Inet4PacketInfoD2Ev@Base 1.2+1640
 _ZN5nidas4util15MulticastSocketD0Ev@Base 1.2+1640
 _ZN5nidas4util15MulticastSocketD1Ev@Base 1.2+1640
 _ZN5nidas4util15MulticastSocketD2Ev@Base 1.2+1640
 _ZN5nidas4util15MutexAttributes10setPSharedEi@Base 1.2+1640
 _ZN5nidas4util15MutexAttributes7setTypeEi@Base 1.2+1640
 _ZN5nidas4util15MutexAttributesC1ERKS1_@Base 1.2+1640
 _ZN5nidas4util15MutexAttributesC1Ev@Base 1.2+1640
 _ZN5nidas4util15MutexAttributesC2ERKS1_@Base 1.2+1640
 _ZN5nidas4util15MutexAttributesC2Ev@Base 1.2+1640
 _ZN5nidas4util15MutexAttributesD1Ev@Base 1.2+1640
 _ZN5nidas4util15MutexAttributesD2Ev@Base 1.2+1640
 _ZN5nidas4util15NoFlipConverterD0Ev@Base 1.2+1640
 _ZN5nidas4util15NoFlipConverterD1Ev@Base 1.2+1640
 _ZN5nidas4util15NoFlipConverterD2Ev@Base 1.2+1640
 _ZN5nidas4util16BluetoothAddress11getHostNameB5cxx11ERKS1_@Base 1.2+1640
 _ZN5nidas4util16BluetoothAddress12_staticMutexE@Base 1.2+1640
 _ZN5nidas4util16BluetoothAddress8_addrMapB5cxx11E@Base 1.2+1640
 _ZN5nidas4util16BluetoothAddress9_addrPregE@Base 1.2+1640
 _ZN5nidas4util16BluetoothAddress9getByNameERKNSt7__cxx1112basic_stringIcSt11char_traitsIcESaIcEEE@Base 1.2+1640
 _ZN5nidas4util16BluetoothAddressC1EPK8bdaddr_t@Base 1.2+1640
 _ZN5nidas4util16BluetoothAddressC1Ev@Base 1.2+1640
 _ZN5nidas4util16BluetoothAddressC2EPK8bdaddr_t@Base 1.2+1640
 _ZN5nidas4util16BluetoothAddressC2Ev@Base 1.2+1640
 _ZN5nidas4util16Inet4PacketInfoXD0Ev@Base 1.2+1640
 _ZN5nidas4util16Inet4PacketInfoXD1Ev@Base 1.2+1640
 _ZN5nidas4util16Inet4PacketInfoXD2Ev@Base 1.2+1640
 _ZN5nidas4util16McSocketDatagram8magicValE@Base 1.2+1640
 _ZN5nidas4util16McSocketDatagramC1ERKS1_@Base 1.2+1640
 _ZN5nidas4util16McSocketDatagramC1Ei@Base 1.2+1640
 _ZN5nidas4util16McSocketDatagramC2ERKS1_@Base 1.2+1640
 _ZN5nidas4util16McSocketDatagramC2Ei@Base 1.2+1640
 _ZN5nidas4util16McSocketDatagramD0Ev@Base 1.2+1640
 _ZN5nidas4util16McSocketDatagramD1Ev@Base 1.2+1640
 _ZN5nidas4util16McSocketDatagramD2Ev@Base 1.2+1640
 _ZN5nidas4util16McSocketDatagramaSERKS1_@Base 1.2+1640
 _ZN5nidas4util16McSocketListener3addEPNS0_8McSocketINS0_14DatagramSocketEEE@Base 1.2+1640
 _ZN5nidas4util16McSocketListener3addEPNS0_8McSocketINS0_6SocketEEE@Base 1.2+1640
 _ZN5nidas4util16McSocketListener3runEv@Base 1.2+1640
 _ZN5nidas4util16McSocketListener5checkEv@Base 1.2+1640
 _ZN5nidas4util16McSocketListener5closeEPNS0_8McSocketINS0_14DatagramSocketEEE@Base 1.2+1640
 _ZN5nidas4util16McSocketListener5closeEPNS0_8McSocketINS0_6SocketEEE@Base 1.2+1640
 _ZN5nidas4util16McSocketListener6acceptEPNS0_8McSocketINS0_14DatagramSocketEEE@Base 1.2+1640
 _ZN5nidas4util16McSocketListener6acceptEPNS0_8McSocketINS0_6SocketEEE@Base 1.2+1640
 _ZN5nidas4util16McSocketListener6removeEPNS0_8McSocketINS0_14DatagramSocketEEE@Base 1.2+1640
 _ZN5nidas4util16McSocketListener6removeEPNS0_8McSocketINS0_6SocketEEE@Base 1.2+1640
 _ZN5nidas4util16McSocketListener9interruptEv@Base 1.2+1640
 _ZN5nidas4util16McSocketListenerC1ERKNS0_18Inet4SocketAddressE@Base 1.2+1640
 _ZN5nidas4util16McSocketListenerC2ERKNS0_18Inet4SocketAddressE@Base 1.2+1640
 _ZN5nidas4util16McSocketListenerD0Ev@Base 1.2+1640
 _ZN5nidas4util16McSocketListenerD1Ev@Base 1.2+1640
 _ZN5nidas4util16McSocketListenerD2Ev@Base 1.2+1640
 _ZN5nidas4util16RWLockAttributes10setPSharedEi@Base 1.2+1640
 _ZN5nidas4util16RWLockAttributesC1ERKS1_@Base 1.2+1640
 _ZN5nidas4util16RWLockAttributesC1Ev@Base 1.2+1640
 _ZN5nidas4util16RWLockAttributesC2ERKS1_@Base 1.2+1640
 _ZN5nidas4util16RWLockAttributesC2Ev@Base 1.2+1640
 _ZN5nidas4util16RWLockAttributesD1Ev@Base 1.2+1640
 _ZN5nidas4util16RWLockAttributesD2Ev@Base 1.2+1640
 _ZN5nidas4util16logLevelToStringB5cxx11Ei@Base 1.2+1640
 _ZN5nidas4util16stringToLogLevelERKNSt7__cxx1112basic_stringIcSt11char_traitsIcESaIcEEE@Base 1.2+1640
 _ZN5nidas4util17UnixSocketAddress14getSockAddrPtrEv@Base 1.2+1640
 _ZN5nidas4util17UnixSocketAddressC1EPK11sockaddr_un@Base 1.2+1640
 _ZN5nidas4util17UnixSocketAddressC1ERKNSt7__cxx1112basic_stringIcSt11char_traitsIcESaIcEEE@Base 1.2+1640
 _ZN5nidas4util17UnixSocketAddressC1ERKS1_@Base 1.2+1640
 _ZN5nidas4util17UnixSocketAddressC2EPK11sockaddr_un@Base 1.2+1640
 _ZN5nidas4util17UnixSocketAddressC2ERKNSt7__cxx1112basic_stringIcSt11char_traitsIcESaIcEEE@Base 1.2+1640
 _ZN5nidas4util17UnixSocketAddressC2ERKS1_@Base 1.2+1640
 _ZN5nidas4util17UnixSocketAddressD0Ev@Base 1.2+1640
 _ZN5nidas4util17UnixSocketAddressD1Ev@Base 1.2+1640
 _ZN5nidas4util17UnixSocketAddressD2Ev@Base 1.2+1640
 _ZN5nidas4util17UnixSocketAddressaSERKS1_@Base 1.2+1640
 _ZN5nidas4util18DatagramPacketBase9setLengthEi@Base 1.2+1640
 _ZN5nidas4util18IOTimeoutExceptionC1ERKNSt7__cxx1112basic_stringIcSt11char_traitsIcESaIcEEES9_@Base 1.2+1640
 _ZN5nidas4util18IOTimeoutExceptionC2ERKNSt7__cxx1112basic_stringIcSt11char_traitsIcESaIcEEES9_@Base 1.2+1640
 _ZN5nidas4util18IOTimeoutExceptionD0Ev@Base 1.2+1640
 _ZN5nidas4util18IOTimeoutExceptionD1Ev@Base 1.2+1640
 _ZN5nidas4util18IOTimeoutExceptionD2Ev@Base 1.2+1640
 _ZN5nidas4util18Inet4SocketAddress14getSockAddrPtrEv@Base 1.2+1640
 _ZN5nidas4util18Inet4SocketAddressC1EPK11sockaddr_in@Base 1.2+1640
 _ZN5nidas4util18Inet4SocketAddressC1ERKNS0_12Inet4AddressEi@Base 1.2+1640
 _ZN5nidas4util18Inet4SocketAddressC1ERKS1_@Base 1.2+1640
 _ZN5nidas4util18Inet4SocketAddressC1Ei@Base 1.2+1640
 _ZN5nidas4util18Inet4SocketAddressC1Ev@Base 1.2+1640
 _ZN5nidas4util18Inet4SocketAddressC2EPK11sockaddr_in@Base 1.2+1640
 _ZN5nidas4util18Inet4SocketAddressC2ERKNS0_12Inet4AddressEi@Base 1.2+1640
 _ZN5nidas4util18Inet4SocketAddressC2ERKS1_@Base 1.2+1640
 _ZN5nidas4util18Inet4SocketAddressC2Ei@Base 1.2+1640
 _ZN5nidas4util18Inet4SocketAddressC2Ev@Base 1.2+1640
 _ZN5nidas4util18Inet4SocketAddressD0Ev@Base 1.2+1640
 _ZN5nidas4util18Inet4SocketAddressD1Ev@Base 1.2+1640
 _ZN5nidas4util18Inet4SocketAddressD2Ev@Base 1.2+1640
 _ZN5nidas4util18Inet4SocketAddressaSERKS1_@Base 1.2+1640
 _ZN5nidas4util20UnknownHostExceptionC1ERKNSt7__cxx1112basic_stringIcSt11char_traitsIcESaIcEEE@Base 1.2+1640
 _ZN5nidas4util20UnknownHostExceptionC2ERKNSt7__cxx1112basic_stringIcSt11char_traitsIcESaIcEEE@Base 1.2+1640
 _ZN5nidas4util20UnknownHostExceptionD0Ev@Base 1.2+1640
 _ZN5nidas4util20UnknownHostExceptionD1Ev@Base 1.2+1640
 _ZN5nidas4util20UnknownHostExceptionD2Ev@Base 1.2+1640
 _ZN5nidas4util21BluetoothRFCommSocket10setTimeoutEi@Base 1.2+1640
 _ZN5nidas4util21BluetoothRFCommSocket12getLocalAddrEv@Base 1.2+1640
 _ZN5nidas4util21BluetoothRFCommSocket13getRemoteAddrEv@Base 1.2+1640
 _ZN5nidas4util21BluetoothRFCommSocket14setNonBlockingEb@Base 1.2+1640
 _ZN5nidas4util21BluetoothRFCommSocket4bindERKNS0_13SocketAddressE@Base 1.2+1640
 _ZN5nidas4util21BluetoothRFCommSocket4bindERKNS0_16BluetoothAddressEi@Base 1.2+1640
 _ZN5nidas4util21BluetoothRFCommSocket4bindEi@Base 1.2+1640
 _ZN5nidas4util21BluetoothRFCommSocket4recvEPvji@Base 1.2+1640
 _ZN5nidas4util21BluetoothRFCommSocket4sendEPK5iovecii@Base 1.2+1640
 _ZN5nidas4util21BluetoothRFCommSocket4sendEPKvji@Base 1.2+1640
 _ZN5nidas4util21BluetoothRFCommSocket5closeEv@Base 1.2+1640
 _ZN5nidas4util21BluetoothRFCommSocket6acceptEv@Base 1.2+1640
 _ZN5nidas4util21BluetoothRFCommSocket6listenEv@Base 1.2+1640
 _ZN5nidas4util21BluetoothRFCommSocket7connectERKNS0_13SocketAddressE@Base 1.2+1640
 _ZN5nidas4util21BluetoothRFCommSocket7connectERKNS0_16BluetoothAddressEi@Base 1.2+1640
 _ZN5nidas4util21BluetoothRFCommSocket7connectERKNSt7__cxx1112basic_stringIcSt11char_traitsIcESaIcEEEi@Base 1.2+1640
 _ZN5nidas4util21BluetoothRFCommSocket7sendallEPKvji@Base 1.2+1640
 _ZN5nidas4util21BluetoothRFCommSocketC1ERKS1_@Base 1.2+1640
 _ZN5nidas4util21BluetoothRFCommSocketC1EiRKNS0_13SocketAddressE@Base 1.2+1640
 _ZN5nidas4util21BluetoothRFCommSocketC1Ev@Base 1.2+1640
 _ZN5nidas4util21BluetoothRFCommSocketC2ERKS1_@Base 1.2+1640
 _ZN5nidas4util21BluetoothRFCommSocketC2EiRKNS0_13SocketAddressE@Base 1.2+1640
 _ZN5nidas4util21BluetoothRFCommSocketC2Ev@Base 1.2+1640
 _ZN5nidas4util21BluetoothRFCommSocketD1Ev@Base 1.2+1640
 _ZN5nidas4util21BluetoothRFCommSocketD2Ev@Base 1.2+1640
 _ZN5nidas4util21BluetoothRFCommSocketaSERKS1_@Base 1.2+1640
 _ZN5nidas4util21Inet4NetworkInterface12getInterfaceERKNS0_12Inet4AddressE@Base 1.2+1640
 _ZN5nidas4util21addBackslashSequencesERKNSt7__cxx1112basic_stringIcSt11char_traitsIcESaIcEEE@Base 1.2+1640
 _ZN5nidas4util23listMulticastInterfacesEPNS0_15MulticastSocketERSt6vectorINS0_21Inet4NetworkInterfaceESaIS4_EE@Base 1.2+1640
 _ZN5nidas4util25InvalidParameterExceptionD0Ev@Base 1.2+1640
 _ZN5nidas4util25InvalidParameterExceptionD1Ev@Base 1.2+1640
 _ZN5nidas4util25InvalidParameterExceptionD2Ev@Base 1.2+1640
 _ZN5nidas4util25replaceBackslashSequencesERKNSt7__cxx1112basic_stringIcSt11char_traitsIcESaIcEEE@Base 1.2+1640
 _ZN5nidas4util28BluetoothRFCommSocketAddress14getSockAddrPtrEv@Base 1.2+1640
 _ZN5nidas4util28BluetoothRFCommSocketAddressC1EPK11sockaddr_rc@Base 1.2+1640
 _ZN5nidas4util28BluetoothRFCommSocketAddressC1ERKNS0_16BluetoothAddressEi@Base 1.2+1640
 _ZN5nidas4util28BluetoothRFCommSocketAddressC1ERKNSt7__cxx1112basic_stringIcSt11char_traitsIcESaIcEEEi@Base 1.2+1640
 _ZN5nidas4util28BluetoothRFCommSocketAddressC1ERKS1_@Base 1.2+1640
 _ZN5nidas4util28BluetoothRFCommSocketAddressC1Ei@Base 1.2+1640
 _ZN5nidas4util28BluetoothRFCommSocketAddressC1Ev@Base 1.2+1640
 _ZN5nidas4util28BluetoothRFCommSocketAddressC2EPK11sockaddr_rc@Base 1.2+1640
 _ZN5nidas4util28BluetoothRFCommSocketAddressC2ERKNS0_16BluetoothAddressEi@Base 1.2+1640
 _ZN5nidas4util28BluetoothRFCommSocketAddressC2ERKNSt7__cxx1112basic_stringIcSt11char_traitsIcESaIcEEEi@Base 1.2+1640
 _ZN5nidas4util28BluetoothRFCommSocketAddressC2ERKS1_@Base 1.2+1640
 _ZN5nidas4util28BluetoothRFCommSocketAddressC2Ei@Base 1.2+1640
 _ZN5nidas4util28BluetoothRFCommSocketAddressC2Ev@Base 1.2+1640
 _ZN5nidas4util28BluetoothRFCommSocketAddressD0Ev@Base 1.2+1640
 _ZN5nidas4util28BluetoothRFCommSocketAddressD1Ev@Base 1.2+1640
 _ZN5nidas4util28BluetoothRFCommSocketAddressD2Ev@Base 1.2+1640
 _ZN5nidas4util28BluetoothRFCommSocketAddressaSERKS1_@Base 1.2+1640
 _ZN5nidas4util4Cond4waitEv@Base 1.2+1640
 _ZN5nidas4util4CondC1ERKS1_@Base 1.2+1640
 _ZN5nidas4util4CondC1Ev@Base 1.2+1640
 _ZN5nidas4util4CondC2ERKS1_@Base 1.2+1640
 _ZN5nidas4util4CondC2Ev@Base 1.2+1640
 _ZN5nidas4util4CondD1Ev@Base 1.2+1640
 _ZN5nidas4util4CondD2Ev@Base 1.2+1640
 _ZN5nidas4util5Mutex3ptrEv@Base 1.2+1640
 _ZN5nidas4util5Mutex4lockEv@Base 1.2+1640
 _ZN5nidas4util5Mutex6unlockEv@Base 1.2+1640
 _ZN5nidas4util5MutexC1ERKNS0_15MutexAttributesE@Base 1.2+1640
 _ZN5nidas4util5MutexC1ERKS1_@Base 1.2+1640
 _ZN5nidas4util5MutexC1Ei@Base 1.2+1640
 _ZN5nidas4util5MutexC2ERKNS0_15MutexAttributesE@Base 1.2+1640
 _ZN5nidas4util5MutexC2ERKS1_@Base 1.2+1640
 _ZN5nidas4util5MutexC2Ei@Base 1.2+1640
 _ZN5nidas4util5MutexD1Ev@Base 1.2+1640
 _ZN5nidas4util5MutexD2Ev@Base 1.2+1640
 _ZN5nidas4util5UTime10checkParseEbRKNSt7__cxx1112basic_stringIcSt11char_traitsIcESaIcEEES9_Pib@Base 1.2+1640
 _ZN5nidas4util5UTime14_defaultFormatB5cxx11E@Base 1.2+1640
 _ZN5nidas4util5UTime16getDefaultFormatB5cxx11Ev@Base 1.2+1640
 _ZN5nidas4util5UTime16setDefaultFormatERKNSt7__cxx1112basic_stringIcSt11char_traitsIcESaIcEEE@Base 1.2+1640
 _ZN5nidas4util5UTime3setEbRKNSt7__cxx1112basic_stringIcSt11char_traitsIcESaIcEEEPi@Base 1.2+1640
 _ZN5nidas4util5UTime3setEbRKNSt7__cxx1112basic_stringIcSt11char_traitsIcESaIcEEES9_Pi@Base 1.2+1640
 _ZN5nidas4util5UTime4pmodExx@Base 1.2+1640
 _ZN5nidas4util5UTime5getTZB5cxx11Ev@Base 1.2+1640
 _ZN5nidas4util5UTime5monthENSt7__cxx1112basic_stringIcSt11char_traitsIcESaIcEEE@Base 1.2+1640
 _ZN5nidas4util5UTime5parseEbRKNSt7__cxx1112basic_stringIcSt11char_traitsIcESaIcEEEPi@Base 1.2+1640
 _ZN5nidas4util5UTime5parseEbRKNSt7__cxx1112basic_stringIcSt11char_traitsIcESaIcEEES9_Pi@Base 1.2+1640
 _ZN5nidas4util5UTime5setTZERKNSt7__cxx1112basic_stringIcSt11char_traitsIcESaIcEEE@Base 1.2+1640
 _ZN5nidas4util5UTime6fromTmEbPK2tmi@Base 1.2+1640
 _ZN5nidas4util5UTime9_fmtMutexE@Base 1.2+1640
 _ZN5nidas4util5UTimeC1EbPK2tmi@Base 1.2+1640
 _ZN5nidas4util5UTimeC1Ebiiiid@Base 1.2+1640
 _ZN5nidas4util5UTimeC1Ebiiiiid@Base 1.2+1640
 _ZN5nidas4util5UTimeC1Ev@Base 1.2+1640
 _ZN5nidas4util5UTimeC2EbPK2tmi@Base 1.2+1640
 _ZN5nidas4util5UTimeC2Ebiiiid@Base 1.2+1640
 _ZN5nidas4util5UTimeC2Ebiiiiid@Base 1.2+1640
 _ZN5nidas4util5UTimeC2Ev@Base 1.2+1640
 _ZN5nidas4util6Logger10msg_lockedERKNS0_10LogContextERKNSt7__cxx1112basic_stringIcSt11char_traitsIcESaIcEEE@Base 1.2+1640
 _ZN5nidas4util6Logger11getInstanceEv@Base 1.2+1640
 _ZN5nidas4util6Logger11knownSchemeERKNSt7__cxx1112basic_stringIcSt11char_traitsIcESaIcEEE@Base 1.2+1640
 _ZN5nidas4util6Logger12clearSchemesEv@Base 1.2+1640
 _ZN5nidas4util6Logger12updateSchemeERKNS0_9LogSchemeE@Base 1.2+1640
 _ZN5nidas4util6Logger14createInstanceEPSo@Base 1.2+1640
 _ZN5nidas4util6Logger14createInstanceERKNSt7__cxx1112basic_stringIcSt11char_traitsIcESaIcEEEiiPKc@Base 1.2+1640
 _ZN5nidas4util6Logger15destroyInstanceEv@Base 1.2+1640
 _ZN5nidas4util6Logger19get_instance_lockedEPSo@Base 1.2+1640
 _ZN5nidas4util6Logger3logEiPKcS3_iS3_z@Base 1.2+1640
 _ZN5nidas4util6Logger3msgERKNS0_10LogContextERKNSt7__cxx1112basic_stringIcSt11char_traitsIcESaIcEEE@Base 1.2+1640
 _ZN5nidas4util6Logger5mutexE@Base 1.2+1640
 _ZN5nidas4util6Logger5setTZEPKc@Base 1.2+1640
 _ZN5nidas4util6Logger9_instanceE@Base 1.2+1640
 _ZN5nidas4util6Logger9getSchemeERKNSt7__cxx1112basic_stringIcSt11char_traitsIcESaIcEEE@Base 1.2+1640
 _ZN5nidas4util6Logger9getSchemeEv@Base 1.2+1640
 _ZN5nidas4util6Logger9setSchemeERKNS0_9LogSchemeE@Base 1.2+1640
 _ZN5nidas4util6Logger9setSchemeERKNSt7__cxx1112basic_stringIcSt11char_traitsIcESaIcEEE@Base 1.2+1640
 _ZN5nidas4util6LoggerC1EPSo@Base 1.2+1640
 _ZN5nidas4util6LoggerC1ERKNSt7__cxx1112basic_stringIcSt11char_traitsIcESaIcEEEiiPKc@Base 1.2+1640
 _ZN5nidas4util6LoggerC1Ev@Base 1.2+1640
 _ZN5nidas4util6LoggerC2EPSo@Base 1.2+1640
 _ZN5nidas4util6LoggerC2ERKNSt7__cxx1112basic_stringIcSt11char_traitsIcESaIcEEEiiPKc@Base 1.2+1640
 _ZN5nidas4util6LoggerC2Ev@Base 1.2+1640
 _ZN5nidas4util6LoggerD1Ev@Base 1.2+1640
 _ZN5nidas4util6LoggerD2Ev@Base 1.2+1640
 _ZN5nidas4util6RWLock3ptrEv@Base 1.2+1640
 _ZN5nidas4util6RWLockC1ERKNS0_16RWLockAttributesE@Base 1.2+1640
 _ZN5nidas4util6RWLockC1ERKS1_@Base 1.2+1640
 _ZN5nidas4util6RWLockC1Ev@Base 1.2+1640
 _ZN5nidas4util6RWLockC2ERKNS0_16RWLockAttributesE@Base 1.2+1640
 _ZN5nidas4util6RWLockC2ERKS1_@Base 1.2+1640
 _ZN5nidas4util6RWLockC2Ev@Base 1.2+1640
 _ZN5nidas4util6RWLockD1Ev@Base 1.2+1640
 _ZN5nidas4util6RWLockD2Ev@Base 1.2+1640
 _ZN5nidas4util6Socket16createSocketPairEi@Base 1.2+1640
 _ZN5nidas4util6SocketC1ERKNS0_12Inet4AddressEi@Base 1.2+1640
 _ZN5nidas4util6SocketC1ERKNS0_13SocketAddressE@Base 1.2+1640
 _ZN5nidas4util6SocketC1ERKNSt7__cxx1112basic_stringIcSt11char_traitsIcESaIcEEEi@Base 1.2+1640
 _ZN5nidas4util6SocketC1Ei@Base 1.2+1640
 _ZN5nidas4util6SocketC1EiRKNS0_13SocketAddressE@Base 1.2+1640
 _ZN5nidas4util6SocketC2ERKNS0_12Inet4AddressEi@Base 1.2+1640
 _ZN5nidas4util6SocketC2ERKNS0_13SocketAddressE@Base 1.2+1640
 _ZN5nidas4util6SocketC2ERKNSt7__cxx1112basic_stringIcSt11char_traitsIcESaIcEEEi@Base 1.2+1640
 _ZN5nidas4util6SocketC2Ei@Base 1.2+1640
 _ZN5nidas4util6SocketC2EiRKNS0_13SocketAddressE@Base 1.2+1640
 _ZN5nidas4util6Thread11blockSignalEi@Base 1.2+1640
 _ZN5nidas4util6Thread11getFullNameB5cxx11Ev@Base 1.2+1640
 _ZN5nidas4util6Thread11thr_add_sigEi@Base 1.2+1640
 _ZN5nidas4util6Thread11thr_cleanupEPv@Base 1.2+1640
 _ZN5nidas4util6Thread11unknownNameB5cxx11E@Base 1.2+1640
 _ZN5nidas4util6Thread12lookupThreadEm@Base 1.2+1640
 _ZN5nidas4util6Thread12makeFullNameEv@Base 1.2+1640
 _ZN5nidas4util6Thread13currentThreadEv@Base 1.2+1640
 _ZN5nidas4util6Thread13signalHandlerEiP9siginfo_t@Base 1.2+1640
 _ZN5nidas4util6Thread13unblockSignalEi@Base 1.2+1640
 _ZN5nidas4util6Thread14registerThreadEv@Base 1.2+1640
 _ZN5nidas4util6Thread15currentThreadIdEv@Base 1.2+1640
 _ZN5nidas4util6Thread15getPolicyStringB5cxx11Ei@Base 1.2+1640
 _ZN5nidas4util6Thread16setCancelEnabledEb@Base 1.2+1640
 _ZN5nidas4util6Thread16thr_run_detachedEPv@Base 1.2+1640
 _ZN5nidas4util6Thread16unregisterThreadEv@Base 1.2+1640
 _ZN5nidas4util6Thread17setCancelDeferredEb@Base 1.2+1640
 _ZN5nidas4util6Thread18setThreadSchedulerENS1_11SchedPolicyEi@Base 1.2+1640
 _ZN5nidas4util6Thread18thr_cleanup_deleteEPv@Base 1.2+1640
 _ZN5nidas4util6Thread22setNonRealTimePriorityEv@Base 1.2+1640
 _ZN5nidas4util6Thread23setRealTimeFIFOPriorityEi@Base 1.2+1640
 _ZN5nidas4util6Thread24setThreadSchedulerNolockENS1_11SchedPolicyEi@Base 1.2+1640
 _ZN5nidas4util6Thread29setRealTimeRoundRobinPriorityEi@Base 1.2+1640
 _ZN5nidas4util6Thread4joinEv@Base 1.2+1640
 _ZN5nidas4util6Thread4killEi@Base 1.2+1640
 _ZN5nidas4util6Thread4pRunEv@Base 1.2+1640
 _ZN5nidas4util6Thread4testEiPPc@Base 1.2+1640
 _ZN5nidas4util6Thread5startEv@Base 1.2+1640
 _ZN5nidas4util6Thread6cancelEv@Base 1.2+1640
 _ZN5nidas4util6Thread7thr_runEPv@Base 1.2+1640
 _ZN5nidas4util6Thread9interruptEv@Base 1.2+1640
 _ZN5nidas4util6Thread9sigActionEiP9siginfo_tPv@Base 1.2+1640
 _ZN5nidas4util6ThreadC1ERKNSt7__cxx1112basic_stringIcSt11char_traitsIcESaIcEEEb@Base 1.2+1640
 _ZN5nidas4util6ThreadC1ERKS1_@Base 1.2+1640
 _ZN5nidas4util6ThreadC2ERKNSt7__cxx1112basic_stringIcSt11char_traitsIcESaIcEEEb@Base 1.2+1640
 _ZN5nidas4util6ThreadC2ERKS1_@Base 1.2+1640
 _ZN5nidas4util6ThreadD0Ev@Base 1.2+1640
 _ZN5nidas4util6ThreadD1Ev@Base 1.2+1640
 _ZN5nidas4util6ThreadD2Ev@Base 1.2+1640
 _ZN5nidas4util7FileSet10createFileENS0_5UTimeEb@Base 1.2+1640
 _ZN5nidas4util7FileSet10formatNameB5cxx11ERKNS0_5UTimeE@Base 1.2+1640
 _ZN5nidas4util7FileSet10initializeEv@Base 1.2+1640
 _ZN5nidas4util7FileSet10matchFilesB5cxx11ERKNS0_5UTimeES4_@Base 1.2+1640
 _ZN5nidas4util7FileSet11addFileNameERKNSt7__cxx1112basic_stringIcSt11char_traitsIcESaIcEEE@Base 1.2+1640
 _ZN5nidas4util7FileSet11getFileNameB5cxx11Ev@Base 1.2+1640
 _ZN5nidas4util7FileSet11setFileNameERKNSt7__cxx1112basic_stringIcSt11char_traitsIcESaIcEEE@Base 1.2+1640
 _ZN5nidas4util7FileSet12openNextFileEv@Base 1.2+1640
 _ZN5nidas4util7FileSet12replaceCharsERNSt7__cxx1112basic_stringIcSt11char_traitsIcESaIcEEERKS7_SA_@Base 1.2+1640
 _ZN5nidas4util7FileSet13getDirPortionERKNSt7__cxx1112basic_stringIcSt11char_traitsIcESaIcEEE@Base 1.2+1640
 _ZN5nidas4util7FileSet13pathSeparatorE@Base 1.2+1640
 _ZN5nidas4util7FileSet14getFilePortionERKNSt7__cxx1112basic_stringIcSt11char_traitsIcESaIcEEE@Base 1.2+1640
 _ZN5nidas4util7FileSet15checkPathFormatERKNS0_5UTimeES4_@Base 1.2+1640
 _ZN5nidas4util7FileSet15createDirectoryERKNSt7__cxx1112basic_stringIcSt11char_traitsIcESaIcEEEj@Base 1.2+1640
 _ZN5nidas4util7FileSet18openFileForWritingERKNSt7__cxx1112basic_stringIcSt11char_traitsIcESaIcEEE@Base 1.2+1640
 _ZN5nidas4util7FileSet4readEPvj@Base 1.2+1640
 _ZN5nidas4util7FileSet5writeEPK5ioveci@Base 1.2+1640
 _ZN5nidas4util7FileSet5writeEPKvj@Base 1.2+1640
 _ZN5nidas4util7FileSet6getDirB5cxx11Ev@Base 1.2+1640
 _ZN5nidas4util7FileSet6setDirERKNSt7__cxx1112basic_stringIcSt11char_traitsIcESaIcEEE@Base 1.2+1640
 _ZN5nidas4util7FileSet7getPathB5cxx11Ev@Base 1.2+1640
 _ZN5nidas4util7FileSet8makePathERKNSt7__cxx1112basic_stringIcSt11char_traitsIcESaIcEEES9_@Base 1.2+1640
 _ZN5nidas4util7FileSet9closeFileEv@Base 1.2+1640
 _ZN5nidas4util7FileSetC1ERKS1_@Base 1.2+1640
 _ZN5nidas4util7FileSetC1Ev@Base 1.2+1640
 _ZN5nidas4util7FileSetC2ERKS1_@Base 1.2+1640
 _ZN5nidas4util7FileSetC2Ev@Base 1.2+1640
 _ZN5nidas4util7FileSetD0Ev@Base 1.2+1640
 _ZN5nidas4util7FileSetD1Ev@Base 1.2+1640
 _ZN5nidas4util7FileSetD2Ev@Base 1.2+1640
 _ZN5nidas4util7FileSetaSERKS1_@Base 1.2+1640
 _ZN5nidas4util7Process11getVMemSizeEv@Base 1.2+1640
 _ZN5nidas4util7Process12_environmentB5cxx11E@Base 1.2+1640
 _ZN5nidas4util7Process12checkPidFileERKNSt7__cxx1112basic_stringIcSt11char_traitsIcESaIcEEE@Base 1.2+1640
 _ZN5nidas4util7Process13expandEnvVarsENSt7__cxx1112basic_stringIcSt11char_traitsIcESaIcEEE@Base 1.2+1640
 _ZN5nidas4util7Process13removePidFileEv@Base 1.2+1640
 _ZN5nidas4util7Process22addEffectiveCapabilityEi@Base 1.2+1640
 _ZN5nidas4util7Process22getEffectiveCapabilityEi@Base 1.2+1640
 _ZN5nidas4util7Process24clearEffectiveCapabilityEi@Base 1.2+1640
 _ZN5nidas4util7Process4killEi@Base 1.2+1640
 _ZN5nidas4util7Process4waitEbPi@Base 1.2+1640
 _ZN5nidas4util7Process5spawnERKNSt7__cxx1112basic_stringIcSt11char_traitsIcESaIcEEE@Base 1.2+1640
 _ZN5nidas4util7Process5spawnERKNSt7__cxx1112basic_stringIcSt11char_traitsIcESaIcEEERKSt6vectorIS7_SaIS7_EERKSt3mapIS7_S7_St4lessIS7_ESaISt4pairIS8_S7_EEEi@Base 1.2+1640
 _ZN5nidas4util7Process5spawnERKNSt7__cxx1112basic_stringIcSt11char_traitsIcESaIcEEERKSt6vectorIS7_SaIS7_EEi@Base 1.2+1640
 _ZN5nidas4util7Process7closeInEv@Base 1.2+1640
 _ZN5nidas4util7Process7setInFdEi@Base 1.2+1640
 _ZN5nidas4util7Process8_envLockE@Base 1.2+1640
 _ZN5nidas4util7Process8_pidFileB5cxx11E@Base 1.2+1640
 _ZN5nidas4util7Process8clearEnvEv@Base 1.2+1640
 _ZN5nidas4util7Process8closeErrEv@Base 1.2+1640
 _ZN5nidas4util7Process8closeOutEv@Base 1.2+1640
 _ZN5nidas4util7Process8setErrFdEi@Base 1.2+1640
 _ZN5nidas4util7Process8setOutFdEi@Base 1.2+1640
 _ZN5nidas4util7Process9getEnvVarERKNSt7__cxx1112basic_stringIcSt11char_traitsIcESaIcEEERS7_@Base 1.2+1640
 _ZN5nidas4util7Process9getMaxRSSEv@Base 1.2+1640
 _ZN5nidas4util7Process9setEnvVarERKNSt7__cxx1112basic_stringIcSt11char_traitsIcESaIcEEES9_@Base 1.2+1640
 _ZN5nidas4util7ProcessC1ERKS1_@Base 1.2+1640
 _ZN5nidas4util7ProcessC1Ei@Base 1.2+1640
 _ZN5nidas4util7ProcessC1Ev@Base 1.2+1640
 _ZN5nidas4util7ProcessC2ERKS1_@Base 1.2+1640
 _ZN5nidas4util7ProcessC2Ei@Base 1.2+1640
 _ZN5nidas4util7ProcessC2Ev@Base 1.2+1640
 _ZN5nidas4util7ProcessD1Ev@Base 1.2+1640
 _ZN5nidas4util7ProcessD2Ev@Base 1.2+1640
 _ZN5nidas4util7ProcessaSERKS1_@Base 1.2+1640
 _ZN5nidas4util7Termios11setBaudRateEi@Base 1.2+1640
 _ZN5nidas4util7Termios11setDataBitsEi@Base 1.2+1640
 _ZN5nidas4util7Termios11setStopBitsEi@Base 1.2+1640
 _ZN5nidas4util7Termios12setRawLengthEh@Base 1.2+1640
 _ZN5nidas4util7Termios13setRawTimeoutEh@Base 1.2+1640
 _ZN5nidas4util7Termios14setFlowControlENS1_11flowcontrolE@Base 1.2+1640
 _ZN5nidas4util7Termios17setDefaultTermiosEv@Base 1.2+1640
 _ZN5nidas4util7Termios3getEv@Base 1.2+1640
 _ZN5nidas4util7Termios3setEPK7termios@Base 1.2+1640
 _ZN5nidas4util7Termios5applyEiRKNSt7__cxx1112basic_stringIcSt11char_traitsIcESaIcEEE@Base 1.2+1640
 _ZN5nidas4util7Termios5baudsE@Base 1.2+1640
 _ZN5nidas4util7Termios6setRawEb@Base 1.2+1640
 _ZN5nidas4util7Termios8setLocalEb@Base 1.2+1640
 _ZN5nidas4util7Termios9setParityENS1_6parityE@Base 1.2+1640
 _ZN5nidas4util7TermiosC1EPK7termios@Base 1.2+1640
 _ZN5nidas4util7TermiosC1EiRKNSt7__cxx1112basic_stringIcSt11char_traitsIcESaIcEEE@Base 1.2+1640
 _ZN5nidas4util7TermiosC1Ev@Base 1.2+1640
 _ZN5nidas4util7TermiosC2EPK7termios@Base 1.2+1640
 _ZN5nidas4util7TermiosC2EiRKNSt7__cxx1112basic_stringIcSt11char_traitsIcESaIcEEE@Base 1.2+1640
 _ZN5nidas4util7TermiosC2Ev@Base 1.2+1640
 _ZN5nidas4util7TermiosD0Ev@Base 1.2+1640
 _ZN5nidas4util7TermiosD1Ev@Base 1.2+1640
 _ZN5nidas4util7TermiosD2Ev@Base 1.2+1640
 _ZN5nidas4util8AutolockD1Ev@Base 1.2+1640
 _ZN5nidas4util8AutolockD2Ev@Base 1.2+1640
 _ZN5nidas4util8BitArray7getBitsEii@Base 1.2+1640
 _ZN5nidas4util8BitArray7setBitsEb@Base 1.2+1640
 _ZN5nidas4util8BitArray7setBitsEiij@Base 1.2+1640
 _ZN5nidas4util8BitArray9getBits64Eii@Base 1.2+1640
 _ZN5nidas4util8BitArray9setBits64Eiiy@Base 1.2+1640
 _ZN5nidas4util8BitArrayC1ERKS1_@Base 1.2+1640
 _ZN5nidas4util8BitArrayC1Ei@Base 1.2+1640
 _ZN5nidas4util8BitArrayC2ERKS1_@Base 1.2+1640
 _ZN5nidas4util8BitArrayC2Ei@Base 1.2+1640
 _ZN5nidas4util8BitArrayD1Ev@Base 1.2+1640
 _ZN5nidas4util8BitArrayD2Ev@Base 1.2+1640
 _ZN5nidas4util8BitArrayaNERKS1_@Base 1.2+1640
 _ZN5nidas4util8BitArrayaSERKS1_@Base 1.2+1640
 _ZN5nidas4util8BitArrayanERKS1_@Base 1.2+1640
 _ZN5nidas4util8BitArrayeOERKS1_@Base 1.2+1640
 _ZN5nidas4util8BitArrayeoERKS1_@Base 1.2+1640
 _ZN5nidas4util8BitArrayoRERKS1_@Base 1.2+1640
 _ZN5nidas4util8BitArrayorERKS1_@Base 1.2+1640
 _ZN5nidas4util8McSocketINS0_14DatagramSocketEE15joinMulticasterEv@Base 1.2+1640
 _ZN5nidas4util8McSocketINS0_14DatagramSocketEE5offerEi@Base 1.2+1640
 _ZN5nidas4util8McSocketINS0_14DatagramSocketEE9connectedEPS2_RKNS0_16Inet4PacketInfoXE@Base 1.2+1640
 _ZN5nidas4util8McSocketINS0_6SocketEE15joinMulticasterEv@Base 1.2+1640
 _ZN5nidas4util8McSocketINS0_6SocketEE5offerEi@Base 1.2+1640
 _ZN5nidas4util8McSocketINS0_6SocketEE9connectedEPS2_RKNS0_16Inet4PacketInfoXE@Base 1.2+1640
 _ZN5nidas4util9Exception13errnoToStringB5cxx11Ei@Base 1.2+1640
 _ZN5nidas4util9ExceptionC1ERKNSt7__cxx1112basic_stringIcSt11char_traitsIcESaIcEEE@Base 1.2+1640
 _ZN5nidas4util9ExceptionC1ERKNSt7__cxx1112basic_stringIcSt11char_traitsIcESaIcEEES9_@Base 1.2+1640
 _ZN5nidas4util9ExceptionC1ERKNSt7__cxx1112basic_stringIcSt11char_traitsIcESaIcEEEi@Base 1.2+1640
 _ZN5nidas4util9ExceptionC1ERKS1_@Base 1.2+1640
 _ZN5nidas4util9ExceptionC2ERKNSt7__cxx1112basic_stringIcSt11char_traitsIcESaIcEEE@Base 1.2+1640
 _ZN5nidas4util9ExceptionC2ERKNSt7__cxx1112basic_stringIcSt11char_traitsIcESaIcEEES9_@Base 1.2+1640
 _ZN5nidas4util9ExceptionC2ERKNSt7__cxx1112basic_stringIcSt11char_traitsIcESaIcEEEi@Base 1.2+1640
 _ZN5nidas4util9ExceptionC2ERKS1_@Base 1.2+1640
 _ZN5nidas4util9ExceptionD0Ev@Base 1.2+1640
 _ZN5nidas4util9ExceptionD1Ev@Base 1.2+1640
 _ZN5nidas4util9ExceptionD2Ev@Base 1.2+1640
 _ZN5nidas4util9LogConfig5parseERKNSt7__cxx1112basic_stringIcSt11char_traitsIcESaIcEEE@Base 1.2+1640
 _ZN5nidas4util9LogConfigC1ERKNSt7__cxx1112basic_stringIcSt11char_traitsIcESaIcEEE@Base 1.2+1640
 _ZN5nidas4util9LogConfigC2ERKNSt7__cxx1112basic_stringIcSt11char_traitsIcESaIcEEE@Base 1.2+1640
 _ZN5nidas4util9LogConfigD1Ev@Base 1.2+1640
 _ZN5nidas4util9LogConfigD2Ev@Base 1.2+1640
 _ZN5nidas4util9LogScheme10getConfigsEv@Base 1.2+1640
 _ZN5nidas4util9LogScheme11addFallbackERKNS0_9LogConfigE@Base 1.2+1640
 _ZN5nidas4util9LogScheme11addFallbackERKNSt7__cxx1112basic_stringIcSt11char_traitsIcESaIcEEE@Base 1.2+1640
 _ZN5nidas4util9LogScheme12clearConfigsEv@Base 1.2+1640
 _ZN5nidas4util9LogScheme12getParameterERKNSt7__cxx1112basic_stringIcSt11char_traitsIcESaIcEEES9_@Base 1.2+1640
 _ZN5nidas4util9LogScheme12setParameterERKNSt7__cxx1112basic_stringIcSt11char_traitsIcESaIcEEES9_@Base 1.2+1640
 _ZN5nidas4util9LogScheme13fieldToStringB5cxx11ENS1_8LogFieldE@Base 1.2+1640
 _ZN5nidas4util9LogScheme13setShowFieldsERKNSt7__cxx1112basic_stringIcSt11char_traitsIcESaIcEEE@Base 1.2+1640
 _ZN5nidas4util9LogScheme13setShowFieldsERKSt6vectorINS1_8LogFieldESaIS3_EE@Base 1.2+1640
 _ZN5nidas4util9LogScheme13showLogPointsEb@Base 1.2+1640
 _ZN5nidas4util9LogScheme13stringToFieldERKNSt7__cxx1112basic_stringIcSt11char_traitsIcESaIcEEE@Base 1.2+1640
 _ZN5nidas4util9LogScheme14parseParameterERKNSt7__cxx1112basic_stringIcSt11char_traitsIcESaIcEEE@Base 1.2+1640
 _ZN5nidas4util9LogScheme14show_log_pointERNS0_10LogContextE@Base 1.2+1640
 _ZN5nidas4util9LogScheme15getEnvParameterERKNSt7__cxx1112basic_stringIcSt11char_traitsIcESaIcEEES9_@Base 1.2+1640
 _ZN5nidas4util9LogScheme8logLevelEv@Base 1.2+1640
 _ZN5nidas4util9LogScheme9addConfigERKNS0_9LogConfigE@Base 1.2+1640
 _ZN5nidas4util9LogScheme9addConfigERKNSt7__cxx1112basic_stringIcSt11char_traitsIcESaIcEEE@Base 1.2+1640
 _ZN5nidas4util9LogSchemeC1ERKNSt7__cxx1112basic_stringIcSt11char_traitsIcESaIcEEE@Base 1.2+1640
 _ZN5nidas4util9LogSchemeC2ERKNSt7__cxx1112basic_stringIcSt11char_traitsIcESaIcEEE@Base 1.2+1640
 _ZN5nidas4util9LogSchemeD1Ev@Base 1.2+1640
 _ZN5nidas4util9LogSchemeD2Ev@Base 1.2+1640
 _ZN5nidas4util9Multisync4initEv@Base 1.2+1640
 _ZN5nidas4util9Multisync4syncERNSt7__cxx1112basic_stringIcSt11char_traitsIcESaIcEEE@Base 1.2+1640
 _ZN5nidas4util9Multisync4syncEv@Base 1.2+1640
 _ZN5nidas4util9MultisyncC1Ei@Base 1.2+1640
 _ZN5nidas4util9MultisyncC2Ei@Base 1.2+1640
 _ZN5nidas4util9dirFromUVEff@Base 1.2+1640
 _ZN5nidas4util9svnStatusERKNSt7__cxx1112basic_stringIcSt11char_traitsIcESaIcEEE@Base 1.2+1640
 _ZN5nidas4utilanERKNS0_8BitArrayES3_@Base 1.2+1640
 _ZN5nidas4utileoERKNS0_8BitArrayES3_@Base 1.2+1640
 _ZN5nidas4utileqERKNS0_8BitArrayES3_@Base 1.2+1640
 _ZN5nidas4utilneERKNS0_8BitArrayES3_@Base 1.2+1640
 _ZN5nidas4utilorERKNS0_8BitArrayES3_@Base 1.2+1640
 _ZN9__gnu_cxx13stdio_filebufIcSt11char_traitsIcEEC1EiSt13_Ios_Openmodej@Base 1.2+1640
 _ZN9__gnu_cxx13stdio_filebufIcSt11char_traitsIcEEC2EiSt13_Ios_Openmodej@Base 1.2+1640
 _ZN9__gnu_cxx13stdio_filebufIcSt11char_traitsIcEED0Ev@Base 1.2+1640
 _ZN9__gnu_cxx13stdio_filebufIcSt11char_traitsIcEED1Ev@Base 1.2+1640
 _ZN9__gnu_cxx13stdio_filebufIcSt11char_traitsIcEED2Ev@Base 1.2+1640
 _ZNK5nidas4util10LogContext10threadNameB5cxx11Ev@Base 1.2+1640
 _ZNK5nidas4util10SocketImpl10getTimeoutEv@Base 1.2+1640
 _ZNK5nidas4util10SocketImpl12getInterfaceERKNSt7__cxx1112basic_stringIcSt11char_traitsIcESaIcEEE@Base 1.2+1640
 _ZNK5nidas4util10SocketImpl12getInterfaceEv@Base 1.2+1640
 _ZNK5nidas4util10SocketImpl12getKeepAliveEv@Base 1.2+1640
 _ZNK5nidas4util10SocketImpl13findInterfaceERKNS0_12Inet4AddressE@Base 1.2+1640
 _ZNK5nidas4util10SocketImpl13getInterfacesB5cxx11Ev@Base 1.2+1640
 _ZNK5nidas4util10SocketImpl13getTimeToLiveEv@Base 1.2+1640
 _ZNK5nidas4util10SocketImpl13isNonBlockingEv@Base 1.2+1640
 _ZNK5nidas4util10SocketImpl14getInQueueSizeEv@Base 1.2+1640
 _ZNK5nidas4util10SocketImpl15getOutQueueSizeEv@Base 1.2+1640
 _ZNK5nidas4util10SocketImpl16getMulticastLoopEv@Base 1.2+1640
 _ZNK5nidas4util10SocketImpl18getBroadcastEnableEv@Base 1.2+1640
 _ZNK5nidas4util10SocketImpl20getKeepAliveIdleSecsEv@Base 1.2+1640
 _ZNK5nidas4util11IOException5cloneEv@Base 1.2+1640
 _ZNK5nidas4util12Bzip2FileSet5cloneEv@Base 1.2+1640
 _ZNK5nidas4util12Inet4Address11getHostNameB5cxx11Ev@Base 1.2+1640
 _ZNK5nidas4util12Inet4Address14getHostAddressB5cxx11Ev@Base 1.2+1640
 _ZNK5nidas4util12Inet4Address9bitsMatchERKS1_@Base 1.2+1640
 _ZNK5nidas4util13FlipConverter10doubleCopyERKdPv@Base 1.2+1640
 _ZNK5nidas4util13FlipConverter10floatValueEPKv@Base 1.2+1640
 _ZNK5nidas4util13FlipConverter10floatValueERKf@Base 1.2+1640
 _ZNK5nidas4util13FlipConverter10int16ValueEPKv@Base 1.2+1640
 _ZNK5nidas4util13FlipConverter10int16ValueERKs@Base 1.2+1640
 _ZNK5nidas4util13FlipConverter10int32ValueEPKv@Base 1.2+1640
 _ZNK5nidas4util13FlipConverter10int32ValueERKi@Base 1.2+1640
 _ZNK5nidas4util13FlipConverter10int64ValueEPKv@Base 1.2+1640
 _ZNK5nidas4util13FlipConverter10int64ValueERKx@Base 1.2+1640
 _ZNK5nidas4util13FlipConverter10uint16CopyERKtPv@Base 1.2+1640
 _ZNK5nidas4util13FlipConverter10uint32CopyERKjPv@Base 1.2+1640
 _ZNK5nidas4util13FlipConverter11doubleValueEPKv@Base 1.2+1640
 _ZNK5nidas4util13FlipConverter11doubleValueERKd@Base 1.2+1640
 _ZNK5nidas4util13FlipConverter11uint16ValueEPKv@Base 1.2+1640
 _ZNK5nidas4util13FlipConverter11uint16ValueERKt@Base 1.2+1640
 _ZNK5nidas4util13FlipConverter11uint32ValueEPKv@Base 1.2+1640
 _ZNK5nidas4util13FlipConverter11uint32ValueERKj@Base 1.2+1640
 _ZNK5nidas4util13FlipConverter9floatCopyERKfPv@Base 1.2+1640
 _ZNK5nidas4util13FlipConverter9int16CopyERKsPv@Base 1.2+1640
 _ZNK5nidas4util13FlipConverter9int32CopyERKiPv@Base 1.2+1640
 _ZNK5nidas4util13FlipConverter9int64CopyERKxPv@Base 1.2+1640
 _ZNK5nidas4util13SerialOptions8toStringB5cxx11Ev@Base 1.2+1640
 _ZNK5nidas4util14ParseException5cloneEv@Base 1.2+1640
 _ZNK5nidas4util15DatagramPacketTINS0_12McSocketDataEE19getConstDataVoidPtrEv@Base 1.2+1640
 _ZNK5nidas4util15DatagramPacketTIcE19getConstDataVoidPtrEv@Base 1.2+1640
 _ZNK5nidas4util15Inet4PacketInfo12getInterfaceEv@Base 1.2+1640
 _ZNK5nidas4util15Inet4PacketInfo15getLocalAddressEv@Base 1.2+1640
 _ZNK5nidas4util15Inet4PacketInfo21getDestinationAddressEv@Base 1.2+1640
 _ZNK5nidas4util15Inet4PacketInfo8getFlagsEv@Base 1.2+1640
 _ZNK5nidas4util15MutexAttributes10getPSharedEv@Base 1.2+1640
 _ZNK5nidas4util15MutexAttributes7getTypeEv@Base 1.2+1640
 _ZNK5nidas4util15NoFlipConverter10doubleCopyERKdPv@Base 1.2+1640
 _ZNK5nidas4util15NoFlipConverter10floatValueEPKv@Base 1.2+1640
 _ZNK5nidas4util15NoFlipConverter10floatValueERKf@Base 1.2+1640
 _ZNK5nidas4util15NoFlipConverter10int16ValueEPKv@Base 1.2+1640
 _ZNK5nidas4util15NoFlipConverter10int16ValueERKs@Base 1.2+1640
 _ZNK5nidas4util15NoFlipConverter10int32ValueEPKv@Base 1.2+1640
 _ZNK5nidas4util15NoFlipConverter10int32ValueERKi@Base 1.2+1640
 _ZNK5nidas4util15NoFlipConverter10int64ValueEPKv@Base 1.2+1640
 _ZNK5nidas4util15NoFlipConverter10int64ValueERKx@Base 1.2+1640
 _ZNK5nidas4util15NoFlipConverter10uint16CopyERKtPv@Base 1.2+1640
 _ZNK5nidas4util15NoFlipConverter10uint32CopyERKjPv@Base 1.2+1640
 _ZNK5nidas4util15NoFlipConverter11doubleValueEPKv@Base 1.2+1640
 _ZNK5nidas4util15NoFlipConverter11doubleValueERKd@Base 1.2+1640
 _ZNK5nidas4util15NoFlipConverter11uint16ValueEPKv@Base 1.2+1640
 _ZNK5nidas4util15NoFlipConverter11uint16ValueERKt@Base 1.2+1640
 _ZNK5nidas4util15NoFlipConverter11uint32ValueEPKv@Base 1.2+1640
 _ZNK5nidas4util15NoFlipConverter11uint32ValueERKj@Base 1.2+1640
 _ZNK5nidas4util15NoFlipConverter9floatCopyERKfPv@Base 1.2+1640
 _ZNK5nidas4util15NoFlipConverter9int16CopyERKsPv@Base 1.2+1640
 _ZNK5nidas4util15NoFlipConverter9int32CopyERKiPv@Base 1.2+1640
 _ZNK5nidas4util15NoFlipConverter9int64CopyERKxPv@Base 1.2+1640
 _ZNK5nidas4util16BluetoothAddress11getHostNameB5cxx11Ev@Base 1.2+1640
 _ZNK5nidas4util16BluetoothAddresseqERKS1_@Base 1.2+1640
 _ZNK5nidas4util16BluetoothAddressltERKS1_@Base 1.2+1640
 _ZNK5nidas4util16BluetoothAddressneERKS1_@Base 1.2+1640
 _ZNK5nidas4util16RWLockAttributes10getPSharedEv@Base 1.2+1640
 _ZNK5nidas4util17UnixSocketAddress14getSockAddrLenEv@Base 1.2+1640
 _ZNK5nidas4util17UnixSocketAddress15toAddressStringB5cxx11Ev@Base 1.2+1640
 _ZNK5nidas4util17UnixSocketAddress19getConstSockAddrPtrEv@Base 1.2+1640
 _ZNK5nidas4util17UnixSocketAddress5cloneEv@Base 1.2+1640
 _ZNK5nidas4util17UnixSocketAddress7getPortEv@Base 1.2+1640
 _ZNK5nidas4util17UnixSocketAddress8toStringB5cxx11Ev@Base 1.2+1640
 _ZNK5nidas4util17UnixSocketAddress9getFamilyEv@Base 1.2+1640
 _ZNK5nidas4util17UnixSocketAddresseqERKNS0_13SocketAddressE@Base 1.2+1640
 _ZNK5nidas4util17UnixSocketAddressltERKNS0_13SocketAddressE@Base 1.2+1640
 _ZNK5nidas4util18DatagramPacketBase9getLengthEv@Base 1.2+1640
 _ZNK5nidas4util18Inet4SocketAddress14getSockAddrLenEv@Base 1.2+1640
 _ZNK5nidas4util18Inet4SocketAddress15toAddressStringB5cxx11Ev@Base 1.2+1640
 _ZNK5nidas4util18Inet4SocketAddress19getConstSockAddrPtrEv@Base 1.2+1640
 _ZNK5nidas4util18Inet4SocketAddress5cloneEv@Base 1.2+1640
 _ZNK5nidas4util18Inet4SocketAddress7getPortEv@Base 1.2+1640
 _ZNK5nidas4util18Inet4SocketAddress8toStringB5cxx11Ev@Base 1.2+1640
 _ZNK5nidas4util18Inet4SocketAddress9getFamilyEv@Base 1.2+1640
 _ZNK5nidas4util18Inet4SocketAddresseqERKS1_@Base 1.2+1640
 _ZNK5nidas4util18Inet4SocketAddressltERKS1_@Base 1.2+1640
 _ZNK5nidas4util21BluetoothRFCommSocket10getTimeoutEv@Base 1.2+1640
 _ZNK5nidas4util21BluetoothRFCommSocket13isNonBlockingEv@Base 1.2+1640
 _ZNK5nidas4util25InvalidParameterException5cloneEv@Base 1.2+1640
 _ZNK5nidas4util28BluetoothRFCommSocketAddress14getSockAddrLenEv@Base 1.2+1640
 _ZNK5nidas4util28BluetoothRFCommSocketAddress15toAddressStringB5cxx11Ev@Base 1.2+1640
 _ZNK5nidas4util28BluetoothRFCommSocketAddress19getConstSockAddrPtrEv@Base 1.2+1640
 _ZNK5nidas4util28BluetoothRFCommSocketAddress5cloneEv@Base 1.2+1640
 _ZNK5nidas4util28BluetoothRFCommSocketAddress7getPortEv@Base 1.2+1640
 _ZNK5nidas4util28BluetoothRFCommSocketAddress8toStringB5cxx11Ev@Base 1.2+1640
 _ZNK5nidas4util28BluetoothRFCommSocketAddress9getFamilyEv@Base 1.2+1640
 _ZNK5nidas4util28BluetoothRFCommSocketAddresseqERKS1_@Base 1.2+1640
 _ZNK5nidas4util28BluetoothRFCommSocketAddressltERKS1_@Base 1.2+1640
 _ZNK5nidas4util5UTime4toTmEP2tmPi@Base 1.2+1640
 _ZNK5nidas4util5UTime4toTmEbP2tmPi@Base 1.2+1640
 _ZNK5nidas4util5UTime6formatB5cxx11Eb@Base 1.2+1640
 _ZNK5nidas4util5UTime6formatB5cxx11Ev@Base 1.2+1640
 _ZNK5nidas4util5UTime6formatERKNSt7__cxx1112basic_stringIcSt11char_traitsIcESaIcEEE@Base 1.2+1640
 _ZNK5nidas4util5UTime6formatEbRKNSt7__cxx1112basic_stringIcSt11char_traitsIcESaIcEEE@Base 1.2+1640
 _ZNK5nidas4util5UTime7earlierEx@Base 1.2+1640
 _ZNK5nidas4util6Thread10isDetachedEv@Base 1.2+1640
 _ZNK5nidas4util6Thread13isInterruptedEv@Base 1.2+1640
 _ZNK5nidas4util6Thread15isCancelEnabledEv@Base 1.2+1640
 _ZNK5nidas4util6Thread16isCancelDeferredEv@Base 1.2+1640
 _ZNK5nidas4util6Thread7getNameB5cxx11Ev@Base 1.2+1640
 _ZNK5nidas4util6Thread8isJoinedEv@Base 1.2+1640
 _ZNK5nidas4util6Thread9isRunningEv@Base 1.2+1640
 _ZNK5nidas4util7FileSet11getFileSizeEv@Base 1.2+1640
 _ZNK5nidas4util7FileSet5cloneEv@Base 1.2+1640
 _ZNK5nidas4util7Termios11getBaudRateEv@Base 1.2+1640
 _ZNK5nidas4util7Termios11getDataBitsEv@Base 1.2+1640
 _ZNK5nidas4util7Termios11getStopBitsEv@Base 1.2+1640
 _ZNK5nidas4util7Termios12getRawLengthEv@Base 1.2+1640
 _ZNK5nidas4util7Termios13getRawTimeoutEv@Base 1.2+1640
 _ZNK5nidas4util7Termios14getFlowControlEv@Base 1.2+1640
 _ZNK5nidas4util7Termios15getParityStringB5cxx11Ev@Base 1.2+1640
 _ZNK5nidas4util7Termios20getFlowControlStringB5cxx11Ev@Base 1.2+1640
 _ZNK5nidas4util7Termios6getRawEv@Base 1.2+1640
 _ZNK5nidas4util7Termios8getLocalEv@Base 1.2+1640
 _ZNK5nidas4util7Termios9getParityEv@Base 1.2+1640
 _ZNK5nidas4util8BitArray8toStringB5cxx11Ev@Base 1.2+1640
 _ZNK5nidas4util8Runnable13amInterruptedEv@Base 1.2+1640
 _ZNK5nidas4util9Exception4whatEv@Base 1.2+1640
 _ZNK5nidas4util9Exception5cloneEv@Base 1.2+1640
 _ZNK5nidas4util9Exception8getErrnoEv@Base 1.2+1640
 _ZNK5nidas4util9Exception8toStringB5cxx11Ev@Base 1.2+1640
 _ZNK5nidas4util9LogConfig7matchesERKNS0_10LogContextE@Base 1.2+1640
 _ZNK5nidas4util9LogScheme19getShowFieldsStringB5cxx11Ev@Base 1.2+1640
 _ZNKSt5ctypeIcE8do_widenEc@Base 1.2+1640
 _ZNSt3mapIN5nidas4util18Inet4SocketAddressEPNS1_16McSocketListenerESt4lessIS2_ESaISt4pairIKS2_S4_EEED1Ev@Base 1.2+1640
 _ZNSt3mapIN5nidas4util18Inet4SocketAddressEPNS1_16McSocketListenerESt4lessIS2_ESaISt4pairIKS2_S4_EEED2Ev@Base 1.2+1640
 _ZNSt3mapINSt7__cxx1112basic_stringIcSt11char_traitsIcESaIcEEEN5nidas4util16BluetoothAddressESt4lessIS5_ESaISt4pairIKS5_S8_EEED1Ev@Base 1.2+1640
 _ZNSt3mapINSt7__cxx1112basic_stringIcSt11char_traitsIcESaIcEEEN5nidas4util16BluetoothAddressESt4lessIS5_ESaISt4pairIKS5_S8_EEED2Ev@Base 1.2+1640
 _ZNSt3mapINSt7__cxx1112basic_stringIcSt11char_traitsIcESaIcEEEN5nidas4util9LogScheme8LogFieldESt4lessIS5_ESaISt4pairIKS5_S9_EEEixEOS5_@Base 1.2+1640
 _ZNSt3mapINSt7__cxx1112basic_stringIcSt11char_traitsIcESaIcEEEN5nidas4util9LogSchemeESt4lessIS5_ESaISt4pairIKS5_S8_EEED1Ev@Base 1.2+1640
 _ZNSt3mapINSt7__cxx1112basic_stringIcSt11char_traitsIcESaIcEEEN5nidas4util9LogSchemeESt4lessIS5_ESaISt4pairIKS5_S8_EEED2Ev@Base 1.2+1640
 _ZNSt3mapINSt7__cxx1112basic_stringIcSt11char_traitsIcESaIcEEEPcSt4lessIS5_ESaISt4pairIKS5_S6_EEED1Ev@Base 1.2+1640
 _ZNSt3mapINSt7__cxx1112basic_stringIcSt11char_traitsIcESaIcEEEPcSt4lessIS5_ESaISt4pairIKS5_S6_EEED2Ev@Base 1.2+1640
 _ZNSt3mapINSt7__cxx1112basic_stringIcSt11char_traitsIcESaIcEEEiSt4lessIS5_ESaISt4pairIKS5_iEEEixEOS5_@Base 1.2+1640
 _ZNSt3mapImPN5nidas4util6ThreadESt4lessImESaISt4pairIKmS3_EEED1Ev@Base 1.2+1640
 _ZNSt3mapImPN5nidas4util6ThreadESt4lessImESaISt4pairIKmS3_EEED2Ev@Base 1.2+1640
 _ZNSt3setIiSt4lessIiESaIiEED1Ev@Base 1.2+1640
 _ZNSt3setIiSt4lessIiESaIiEED2Ev@Base 1.2+1640
 _ZNSt6vectorIN5nidas4util21Inet4NetworkInterfaceESaIS2_EE17_M_realloc_insertIJRKS2_EEEvN9__gnu_cxx17__normal_iteratorIPS2_S4_EEDpOT_@Base 1.2+1640
 _ZNSt6vectorIN5nidas4util9LogConfigESaIS2_EE17_M_realloc_insertIJRKS2_EEEvN9__gnu_cxx17__normal_iteratorIPS2_S4_EEDpOT_@Base 1.2+1640
 _ZNSt6vectorIN5nidas4util9LogConfigESaIS2_EED1Ev@Base 1.2+1640
 _ZNSt6vectorIN5nidas4util9LogConfigESaIS2_EED2Ev@Base 1.2+1640
 _ZNSt6vectorIN5nidas4util9LogConfigESaIS2_EEaSERKS4_@Base 1.2+1640
 _ZNSt6vectorIN5nidas4util9LogScheme8LogFieldESaIS3_EEaSERKS5_@Base 1.2+1640
 _ZNSt6vectorINSt7__cxx1112basic_stringIcSt11char_traitsIcESaIcEEESaIS5_EE12emplace_backIJS5_EEEvDpOT_@Base 1.2+1640
 _ZNSt6vectorINSt7__cxx1112basic_stringIcSt11char_traitsIcESaIcEEESaIS5_EE17_M_realloc_insertIJRKS5_EEEvN9__gnu_cxx17__normal_iteratorIPS5_S7_EEDpOT_@Base 1.2+1640
 _ZNSt6vectorINSt7__cxx1112basic_stringIcSt11char_traitsIcESaIcEEESaIS5_EE17_M_realloc_insertIJS5_EEEvN9__gnu_cxx17__normal_iteratorIPS5_S7_EEDpOT_@Base 1.2+1640
 _ZNSt6vectorIPN5nidas4util10LogContextESaIS3_EE17_M_realloc_insertIJS3_EEEvN9__gnu_cxx17__normal_iteratorIPS3_S5_EEDpOT_@Base 1.2+1640
 _ZNSt6vectorIPN5nidas4util10LogContextESaIS3_EED1Ev@Base 1.2+1640
 _ZNSt6vectorIPN5nidas4util10LogContextESaIS3_EED2Ev@Base 1.2+1640
 _ZNSt6vectorIPN5nidas4util6SocketESaIS3_EE12emplace_backIJS3_EEEvDpOT_@Base 1.2+1640
 _ZNSt6vectorIPN5nidas4util6SocketESaIS3_EE17_M_realloc_insertIJS3_EEEvN9__gnu_cxx17__normal_iteratorIPS3_S5_EEDpOT_@Base 1.2+1640
 _ZNSt6vectorIjSaIjEE17_M_realloc_insertIJRKjEEEvN9__gnu_cxx17__normal_iteratorIPjS1_EEDpOT_@Base 1.2+1640
 _ZNSt7__cxx1110_List_baseIN5nidas4util21Inet4NetworkInterfaceESaIS3_EE8_M_clearEv@Base 1.2+1640
 _ZNSt7__cxx1110_List_baseINS_12basic_stringIcSt11char_traitsIcESaIcEEESaIS5_EE8_M_clearEv@Base 1.2+1640
 _ZNSt7__cxx1115basic_stringbufIcSt11char_traitsIcESaIcEED0Ev@Base 1.2+1640
 _ZNSt7__cxx1115basic_stringbufIcSt11char_traitsIcESaIcEED1Ev@Base 1.2+1640
 _ZNSt7__cxx1115basic_stringbufIcSt11char_traitsIcESaIcEED2Ev@Base 1.2+1640
 _ZNSt7__cxx114listINS_12basic_stringIcSt11char_traitsIcESaIcEEESaIS5_EE18_M_assign_dispatchISt20_List_const_iteratorIS5_EEEvT_SB_St12__false_type@Base 1.2+1640
 _ZNSt8_Rb_treeIN5nidas4util18Inet4SocketAddressESt4pairIKS2_PNS1_16McSocketListenerEESt10_Select1stIS7_ESt4lessIS2_ESaIS7_EE22_M_emplace_hint_uniqueIJRKSt21piecewise_construct_tSt5tupleIJRS4_EESI_IJEEEEESt17_Rb_tree_iteratorIS7_ESt23_Rb_tree_const_iteratorIS7_EDpOT_@Base 1.2+1640
 _ZNSt8_Rb_treeIN5nidas4util18Inet4SocketAddressESt4pairIKS2_PNS1_16McSocketListenerEESt10_Select1stIS7_ESt4lessIS2_ESaIS7_EE24_M_get_insert_unique_posERS4_@Base 1.2+1640
 _ZNSt8_Rb_treeIN5nidas4util18Inet4SocketAddressESt4pairIKS2_PNS1_16McSocketListenerEESt10_Select1stIS7_ESt4lessIS2_ESaIS7_EE4findERS4_@Base 1.2+1640
 _ZNSt8_Rb_treeIN5nidas4util18Inet4SocketAddressESt4pairIKS2_PNS1_16McSocketListenerEESt10_Select1stIS7_ESt4lessIS2_ESaIS7_EE8_M_eraseEPSt13_Rb_tree_nodeIS7_E@Base 1.2+1640
 _ZNSt8_Rb_treeINSt7__cxx1112basic_stringIcSt11char_traitsIcESaIcEEES5_St9_IdentityIS5_ESt4lessIS5_ESaIS5_EE16_M_insert_uniqueIRKS5_EESt4pairISt17_Rb_tree_iteratorIS5_EbEOT_@Base 1.2+1640
 _ZNSt8_Rb_treeINSt7__cxx1112basic_stringIcSt11char_traitsIcESaIcEEES5_St9_IdentityIS5_ESt4lessIS5_ESaIS5_EE8_M_eraseEPSt13_Rb_tree_nodeIS5_E@Base 1.2+1640
 _ZNSt8_Rb_treeINSt7__cxx1112basic_stringIcSt11char_traitsIcESaIcEEESt4pairIKS5_N5nidas4util16BluetoothAddressEESt10_Select1stISB_ESt4lessIS5_ESaISB_EE24_M_get_insert_unique_posERS7_@Base 1.2+1640
 _ZNSt8_Rb_treeINSt7__cxx1112basic_stringIcSt11char_traitsIcESaIcEEESt4pairIKS5_N5nidas4util16BluetoothAddressEESt10_Select1stISB_ESt4lessIS5_ESaISB_EE4findERS7_@Base 1.2+1640
 _ZNSt8_Rb_treeINSt7__cxx1112basic_stringIcSt11char_traitsIcESaIcEEESt4pairIKS5_N5nidas4util16BluetoothAddressEESt10_Select1stISB_ESt4lessIS5_ESaISB_EE8_M_eraseEPSt13_Rb_tree_nodeISB_E@Base 1.2+1640
 _ZNSt8_Rb_treeINSt7__cxx1112basic_stringIcSt11char_traitsIcESaIcEEESt4pairIKS5_N5nidas4util9LogScheme8LogFieldEESt10_Select1stISC_ESt4lessIS5_ESaISC_EE24_M_get_insert_unique_posERS7_@Base 1.2+1640
 _ZNSt8_Rb_treeINSt7__cxx1112basic_stringIcSt11char_traitsIcESaIcEEESt4pairIKS5_N5nidas4util9LogScheme8LogFieldEESt10_Select1stISC_ESt4lessIS5_ESaISC_EE8_M_eraseEPSt13_Rb_tree_nodeISC_E@Base 1.2+1640
 _ZNSt8_Rb_treeINSt7__cxx1112basic_stringIcSt11char_traitsIcESaIcEEESt4pairIKS5_N5nidas4util9LogSchemeEESt10_Select1stISB_ESt4lessIS5_ESaISB_EE24_M_get_insert_unique_posERS7_@Base 1.2+1640
 _ZNSt8_Rb_treeINSt7__cxx1112basic_stringIcSt11char_traitsIcESaIcEEESt4pairIKS5_N5nidas4util9LogSchemeEESt10_Select1stISB_ESt4lessIS5_ESaISB_EE4findERS7_@Base 1.2+1640
 _ZNSt8_Rb_treeINSt7__cxx1112basic_stringIcSt11char_traitsIcESaIcEEESt4pairIKS5_N5nidas4util9LogSchemeEESt10_Select1stISB_ESt4lessIS5_ESaISB_EE8_M_eraseEPSt13_Rb_tree_nodeISB_E@Base 1.2+1640
 _ZNSt8_Rb_treeINSt7__cxx1112basic_stringIcSt11char_traitsIcESaIcEEESt4pairIKS5_PcESt10_Select1stIS9_ESt4lessIS5_ESaIS9_EE24_M_get_insert_unique_posERS7_@Base 1.2+1640
 _ZNSt8_Rb_treeINSt7__cxx1112basic_stringIcSt11char_traitsIcESaIcEEESt4pairIKS5_PcESt10_Select1stIS9_ESt4lessIS5_ESaIS9_EE8_M_eraseEPSt13_Rb_tree_nodeIS9_E@Base 1.2+1640
 _ZNSt8_Rb_treeINSt7__cxx1112basic_stringIcSt11char_traitsIcESaIcEEESt4pairIKS5_S5_ESt10_Select1stIS8_ESt4lessIS5_ESaIS8_EE24_M_get_insert_unique_posERS7_@Base 1.2+1640
 _ZNSt8_Rb_treeINSt7__cxx1112basic_stringIcSt11char_traitsIcESaIcEEESt4pairIKS5_S5_ESt10_Select1stIS8_ESt4lessIS5_ESaIS8_EE4findERS7_@Base 1.2+1640
 _ZNSt8_Rb_treeINSt7__cxx1112basic_stringIcSt11char_traitsIcESaIcEEESt4pairIKS5_S5_ESt10_Select1stIS8_ESt4lessIS5_ESaIS8_EE7_M_copyINSE_11_Alloc_nodeEEEPSt13_Rb_tree_nodeIS8_EPKSI_PSt18_Rb_tree_node_baseRT_@Base 1.2+1640
 _ZNSt8_Rb_treeINSt7__cxx1112basic_stringIcSt11char_traitsIcESaIcEEESt4pairIKS5_S5_ESt10_Select1stIS8_ESt4lessIS5_ESaIS8_EE7_M_copyINSE_20_Reuse_or_alloc_nodeEEEPSt13_Rb_tree_nodeIS8_EPKSI_PSt18_Rb_tree_node_baseRT_@Base 1.2+1640
 _ZNSt8_Rb_treeINSt7__cxx1112basic_stringIcSt11char_traitsIcESaIcEEESt4pairIKS5_S5_ESt10_Select1stIS8_ESt4lessIS5_ESaIS8_EE8_M_eraseEPSt13_Rb_tree_nodeIS8_E@Base 1.2+1640
 _ZNSt8_Rb_treeINSt7__cxx1112basic_stringIcSt11char_traitsIcESaIcEEESt4pairIKS5_S5_ESt10_Select1stIS8_ESt4lessIS5_ESaIS8_EEaSERKSE_@Base 1.2+1640
 _ZNSt8_Rb_treeINSt7__cxx1112basic_stringIcSt11char_traitsIcESaIcEEESt4pairIKS5_iESt10_Select1stIS8_ESt4lessIS5_ESaIS8_EE24_M_get_insert_unique_posERS7_@Base 1.2+1640
 _ZNSt8_Rb_treeINSt7__cxx1112basic_stringIcSt11char_traitsIcESaIcEEESt4pairIKS5_iESt10_Select1stIS8_ESt4lessIS5_ESaIS8_EE8_M_eraseEPSt13_Rb_tree_nodeIS8_E@Base 1.2+1640
 _ZNSt8_Rb_treeIiSt4pairIKiPN5nidas4util8McSocketINS3_14DatagramSocketEEEESt10_Select1stIS8_ESt4lessIiESaIS8_EE24_M_get_insert_unique_posERS1_@Base 1.2+1640
 _ZNSt8_Rb_treeIiSt4pairIKiPN5nidas4util8McSocketINS3_14DatagramSocketEEEESt10_Select1stIS8_ESt4lessIiESaIS8_EE8_M_eraseEPSt13_Rb_tree_nodeIS8_E@Base 1.2+1640
 _ZNSt8_Rb_treeIiSt4pairIKiPN5nidas4util8McSocketINS3_6SocketEEEESt10_Select1stIS8_ESt4lessIiESaIS8_EE24_M_get_insert_unique_posERS1_@Base 1.2+1640
 _ZNSt8_Rb_treeIiSt4pairIKiPN5nidas4util8McSocketINS3_6SocketEEEESt10_Select1stIS8_ESt4lessIiESaIS8_EE8_M_eraseEPSt13_Rb_tree_nodeIS8_E@Base 1.2+1640
 _ZNSt8_Rb_treeIiiSt9_IdentityIiESt4lessIiESaIiEE16_M_insert_uniqueIRKiEESt4pairISt17_Rb_tree_iteratorIiEbEOT_@Base 1.2+1640
 _ZNSt8_Rb_treeIiiSt9_IdentityIiESt4lessIiESaIiEE8_M_eraseEPSt13_Rb_tree_nodeIiE@Base 1.2+1640
 _ZNSt8_Rb_treeImSt4pairIKmPN5nidas4util6ThreadEESt10_Select1stIS6_ESt4lessImESaIS6_EE24_M_get_insert_unique_posERS1_@Base 1.2+1640
 _ZNSt8_Rb_treeImSt4pairIKmPN5nidas4util6ThreadEESt10_Select1stIS6_ESt4lessImESaIS6_EE8_M_eraseEPSt13_Rb_tree_nodeIS6_E@Base 1.2+1640
 _ZStplIcSt11char_traitsIcESaIcEENSt7__cxx1112basic_stringIT_T0_T1_EEOS8_S9_@Base 1.2+1640
 _ZStplIcSt11char_traitsIcESaIcEENSt7__cxx1112basic_stringIT_T0_T1_EEPKS5_RKS8_@Base 1.2+1640
 _ZTIN5nidas4util10SerialPortE@Base 1.2+1640
 _ZTIN5nidas4util11IOExceptionE@Base 1.2+1640
 _ZTIN5nidas4util12Bzip2FileSetE@Base 1.2+1640
 _ZTIN5nidas4util12EOFExceptionE@Base 1.2+1640
 _ZTIN5nidas4util12ThreadJoinerE@Base 1.2+1640
 _ZTIN5nidas4util13FlipConverterE@Base 1.2+1640
 _ZTIN5nidas4util13SocketAddressE@Base 1.2+1640
 _ZTIN5nidas4util14DatagramSocketE@Base 1.2+1640
 _ZTIN5nidas4util14DetachedThreadE@Base 1.2+1640
 _ZTIN5nidas4util14ParseExceptionE@Base 1.2+1640
 _ZTIN5nidas4util15DatagramPacketTINS0_12McSocketDataEEE@Base 1.2+1640
 _ZTIN5nidas4util15EndianConverterE@Base 1.2+1640
 _ZTIN5nidas4util15Inet4PacketInfoE@Base 1.2+1640
